
cmark_iccm.exe:     file format elf32-littleriscv


Disassembly of section .text_init:

00000000 <_start>:
   0:	5f5552b7          	lui	t0,0x5f555
   4:	55528293          	addi	t0,t0,1365 # 5f555555 <.LLST534+0x5f547f06>
   8:	7c029073          	csrw	0x7c0,t0
   c:	f0048117          	auipc	sp,0xf0048
  10:	5a410113          	addi	sp,sp,1444 # f00485b0 <STACK+0x0>
  14:	ee007097          	auipc	ra,0xee007
  18:	58e080e7          	jalr	1422(ra) # ee0075a2 <STACK+0xfdfbeff2>

0000001c <_finish>:
  1c:	d05802b7          	lui	t0,0xd0580
  20:	0ff00313          	li	t1,255
  24:	00628023          	sb	t1,0(t0) # d0580000 <STACK+0xe0537a50>
  28:	fe000ae3          	beqz	zero,1c <_finish>
  2c:	0001                	nop
  2e:	0001                	nop
  30:	0001                	nop
  32:	0001                	nop
  34:	0001                	nop
  36:	0001                	nop
  38:	0001                	nop
  3a:	0001                	nop
  3c:	0001                	nop
  3e:	0001                	nop

Disassembly of section .text:

ee000000 <cmp_idx>:
        Compare the idx item in a list cell, and regen the data.

        Can be used by mergesort.
*/
ee_s32 cmp_idx(list_data *a, list_data *b, core_results *res) {
        if (res==NULL) {
ee000000:	c619                	beqz	a2,ee00000e <.L4>
                a->data16 = (a->data16 & 0xff00) | (0x00ff & (a->data16>>8));
                b->data16 = (b->data16 & 0xff00) | (0x00ff & (b->data16>>8));
        }
        return a->idx - b->idx;
ee000002:	00251503          	lh	a0,2(a0)

ee000006 <.LVL1>:
ee000006:	00259583          	lh	a1,2(a1)

ee00000a <.LVL2>:
}
ee00000a:	8d0d                	sub	a0,a0,a1
ee00000c:	8082                	ret

ee00000e <.L4>:
                a->data16 = (a->data16 & 0xff00) | (0x00ff & (a->data16>>8));
ee00000e:	00051783          	lh	a5,0(a0)
ee000012:	01079713          	slli	a4,a5,0x10
ee000016:	01075293          	srli	t0,a4,0x10
ee00001a:	f007f313          	andi	t1,a5,-256
ee00001e:	0082d393          	srli	t2,t0,0x8
ee000022:	00736633          	or	a2,t1,t2

ee000026 <.LVL4>:
ee000026:	00c51023          	sh	a2,0(a0)
                b->data16 = (b->data16 & 0xff00) | (0x00ff & (b->data16>>8));
ee00002a:	00059683          	lh	a3,0(a1)
        return a->idx - b->idx;
ee00002e:	00251503          	lh	a0,2(a0)

ee000032 <.LVL5>:
                b->data16 = (b->data16 & 0xff00) | (0x00ff & (b->data16>>8));
ee000032:	01069813          	slli	a6,a3,0x10
ee000036:	01085893          	srli	a7,a6,0x10
ee00003a:	f006fe13          	andi	t3,a3,-256
ee00003e:	0088de93          	srli	t4,a7,0x8
ee000042:	01de6f33          	or	t5,t3,t4
ee000046:	01e59023          	sh	t5,0(a1)
        return a->idx - b->idx;
ee00004a:	00259583          	lh	a1,2(a1)

ee00004e <.LVL6>:
}
ee00004e:	8d0d                	sub	a0,a0,a1
ee000050:	8082                	ret

ee000052 <copy_info>:

void copy_info(list_data *to,list_data *from) {
        to->data16=from->data16;
ee000052:	00059703          	lh	a4,0(a1)
        to->idx=from->idx;
ee000056:	00259783          	lh	a5,2(a1)
        to->data16=from->data16;
ee00005a:	00e51023          	sh	a4,0(a0)
        to->idx=from->idx;
ee00005e:	00f51123          	sh	a5,2(a0)
}
ee000062:	8082                	ret

ee000064 <core_list_init>:

*/
list_head *core_list_init(ee_u32 blksize, list_head *memblock, ee_s16 seed) {
        /* calculated pointers for the list */
        ee_u32 per_item=16+sizeof(struct list_data_s);
        ee_u32 size=(blksize/per_item)-2; /* to accomodate systems with 64b pointers, and make sure same code is executed, set max list elements */
ee000064:	4851                	li	a6,20
ee000066:	030552b3          	divu	t0,a0,a6
list_head *core_list_init(ee_u32 blksize, list_head *memblock, ee_s16 seed) {
ee00006a:	8eb2                	mv	t4,a2

        /* create a fake items for the list head and tail */
        list->next=NULL;
        list->info=datablock;
        list->info->idx=0x0000;
        list->info->data16=(ee_s16)0x8080;
ee00006c:	7561                	lui	a0,0xffff8

ee00006e <.LVL9>:
        list->next=NULL;
ee00006e:	0005a023          	sw	zero,0(a1)
        list->info->data16=(ee_s16)0x8080;
ee000072:	08050713          	addi	a4,a0,128 # ffff8080 <STACK+0xffafad0>

ee000076 <.LBB157>:
*/
list_head *core_list_insert_new(list_head *insert_point, list_data *info, list_head **memblock, list_data **datablock
        , list_head *memblock_end, list_data *datablock_end) {
        list_head *newitem;

        if ((*memblock+1) >= memblock_end)
ee000076:	01058793          	addi	a5,a1,16

ee00007a <.LBE157>:
        memblock++;
ee00007a:	00858693          	addi	a3,a1,8
        ee_u32 size=(blksize/per_item)-2; /* to accomodate systems with 64b pointers, and make sure same code is executed, set max list elements */
ee00007e:	ffe28813          	addi	a6,t0,-2

ee000082 <.LVL10>:
        list_head *memblock_end=memblock+size;
ee000082:	00381613          	slli	a2,a6,0x3

ee000086 <.LVL11>:
ee000086:	962e                	add	a2,a2,a1

ee000088 <.LVL12>:
        list->info=datablock;
ee000088:	c1d0                	sw	a2,4(a1)
        list_data *datablock_end=datablock+size;
ee00008a:	00281893          	slli	a7,a6,0x2
        list->info->idx=0x0000;
ee00008e:	00061123          	sh	zero,2(a2)
        list->info->data16=(ee_s16)0x8080;
ee000092:	00e61023          	sh	a4,0(a2)
        list_data *datablock_end=datablock+size;
ee000096:	98b2                	add	a7,a7,a2

ee000098 <.LVL13>:
        datablock++;
ee000098:	00460313          	addi	t1,a2,4

ee00009c <.LBB163>:
        if ((*memblock+1) >= memblock_end)
ee00009c:	3ec7f963          	bgeu	a5,a2,ee00048e <.L38>
                return NULL;
        if ((*datablock+1) >= datablock_end)
ee0000a0:	00860713          	addi	a4,a2,8
ee0000a4:	3f177563          	bgeu	a4,a7,ee00048e <.L38>

ee0000a8 <.LVL15>:
                return NULL;

        newitem=*memblock;
        (*memblock)++;
        newitem->next=insert_point->next;
ee0000a8:	0005a423          	sw	zero,8(a1)
        insert_point->next=newitem;
ee0000ac:	c194                	sw	a3,0(a1)

        newitem->info=*datablock;
ee0000ae:	0065a623          	sw	t1,12(a1)

ee0000b2 <.LBB159>:
        to->idx=from->idx;
ee0000b2:	fff54393          	not	t2,a0
        to->data16=from->data16;
ee0000b6:	5e7d                	li	t3,-1
ee0000b8:	01c61223          	sh	t3,4(a2)
        to->idx=from->idx;
ee0000bc:	00761323          	sh	t2,6(a2)

ee0000c0 <.L7>:
        for (i=0; i<size; i++) {
ee0000c0:	20080d63          	beqz	a6,ee0002da <.L8>

ee0000c4 <.LBB164>:
                        ee_u16 pat=(ee_u16)(i++ ^ seed); /* get a pseudo random number */
ee0000c4:	010e9f13          	slli	t5,t4,0x10

ee0000c8 <.LBB165>:
        to->idx=from->idx;
ee0000c8:	7fe1                	lui	t6,0xffff8
ee0000ca:	00387293          	andi	t0,a6,3

ee0000ce <.LBB278>:
                        ee_u16 pat=(ee_u16)(i++ ^ seed); /* get a pseudo random number */
ee0000ce:	010f5f13          	srli	t5,t5,0x10
ee0000d2:	4501                	li	a0,0

ee0000d4 <.LBB185>:
        to->idx=from->idx;
ee0000d4:	ffffc313          	not	t1,t6
ee0000d8:	0c028d63          	beqz	t0,ee0001b2 <.L13>
ee0000dc:	4385                	li	t2,1
ee0000de:	08728463          	beq	t0,t2,ee000166 <.L98>
ee0000e2:	4e09                	li	t3,2
ee0000e4:	03c28d63          	beq	t0,t3,ee00011e <.L99>

ee0000e8 <.LBB240>:
        if ((*memblock+1) >= memblock_end)
ee0000e8:	00878293          	addi	t0,a5,8
ee0000ec:	1ec2f763          	bgeu	t0,a2,ee0002da <.L8>
        if ((*datablock+1) >= datablock_end)
ee0000f0:	00470f93          	addi	t6,a4,4
ee0000f4:	031ff463          	bgeu	t6,a7,ee00011c <.L83>

ee0000f8 <.LBE240>:
                ee_u16 dat=(datpat<<3) | (i&0x7); /* alternate between algorithms */
ee0000f8:	003f1513          	slli	a0,t5,0x3

ee0000fc <.LBB241>:
        newitem->next=insert_point->next;
ee0000fc:	c394                	sw	a3,0(a5)

ee0000fe <.LBE241>:
                ee_u16 dat=(datpat<<3) | (i&0x7); /* alternate between algorithms */
ee0000fe:	07857693          	andi	a3,a0,120

ee000102 <.LBB242>:
        insert_point->next=newitem;
ee000102:	c19c                	sw	a5,0(a1)

ee000104 <.LBE242>:
                info.data16=(dat<<8) | dat;             /* fill the data with actual data and upper bits with rebuild value */
ee000104:	00869393          	slli	t2,a3,0x8

ee000108 <.LBB243>:
        newitem->info=*datablock;
ee000108:	c3d8                	sw	a4,4(a5)

ee00010a <.LBB186>:
                info.data16=(dat<<8) | dat;             /* fill the data with actual data and upper bits with rebuild value */
ee00010a:	00d3ee33          	or	t3,t2,a3

ee00010e <.LBB187>:
        to->data16=from->data16;
ee00010e:	01c71023          	sh	t3,0(a4)
        to->idx=from->idx;
ee000112:	00671123          	sh	t1,2(a4)

ee000116 <.LBE187>:
        (*datablock)++;
        copy_info(newitem->info,info);

        return newitem;
ee000116:	86be                	mv	a3,a5
ee000118:	877e                	mv	a4,t6
ee00011a:	8796                	mv	a5,t0

ee00011c <.L83>:
        for (i=0; i<size; i++) {
ee00011c:	4505                	li	a0,1

ee00011e <.L99>:
        if ((*memblock+1) >= memblock_end)
ee00011e:	00878293          	addi	t0,a5,8
ee000122:	1ac2fc63          	bgeu	t0,a2,ee0002da <.L8>
        if ((*datablock+1) >= datablock_end)
ee000126:	00470393          	addi	t2,a4,4
ee00012a:	0313fd63          	bgeu	t2,a7,ee000164 <.L86>
ee00012e:	01051f93          	slli	t6,a0,0x10
ee000132:	010fdf93          	srli	t6,t6,0x10

ee000136 <.LBE245>:
                ee_u16 datpat=((ee_u16)(seed^i) & 0xf);
ee000136:	01efce33          	xor	t3,t6,t5
                ee_u16 dat=(datpat<<3) | (i&0x7); /* alternate between algorithms */
ee00013a:	0e0e                	slli	t3,t3,0x3
ee00013c:	078e7e13          	andi	t3,t3,120
ee000140:	007fff93          	andi	t6,t6,7

ee000144 <.LBB246>:
        newitem->next=insert_point->next;
ee000144:	c394                	sw	a3,0(a5)

ee000146 <.LBE246>:
                ee_u16 dat=(datpat<<3) | (i&0x7); /* alternate between algorithms */
ee000146:	01fe66b3          	or	a3,t3,t6

ee00014a <.LBB247>:
        insert_point->next=newitem;
ee00014a:	c19c                	sw	a5,0(a1)

ee00014c <.LBE247>:
                info.data16=(dat<<8) | dat;             /* fill the data with actual data and upper bits with rebuild value */
ee00014c:	00869e13          	slli	t3,a3,0x8

ee000150 <.LBB248>:
        newitem->info=*datablock;
ee000150:	c3d8                	sw	a4,4(a5)

ee000152 <.LBB188>:
                info.data16=(dat<<8) | dat;             /* fill the data with actual data and upper bits with rebuild value */
ee000152:	00de6fb3          	or	t6,t3,a3

ee000156 <.LBB189>:
        to->data16=from->data16;
ee000156:	01f71023          	sh	t6,0(a4)
        to->idx=from->idx;
ee00015a:	00671123          	sh	t1,2(a4)

ee00015e <.LBE189>:
        return newitem;
ee00015e:	86be                	mv	a3,a5
ee000160:	871e                	mv	a4,t2
ee000162:	8796                	mv	a5,t0

ee000164 <.L86>:
        for (i=0; i<size; i++) {
ee000164:	0505                	addi	a0,a0,1

ee000166 <.L98>:
        if ((*memblock+1) >= memblock_end)
ee000166:	00878293          	addi	t0,a5,8
ee00016a:	16c2f863          	bgeu	t0,a2,ee0002da <.L8>
        if ((*datablock+1) >= datablock_end)
ee00016e:	00470393          	addi	t2,a4,4
ee000172:	0313fd63          	bgeu	t2,a7,ee0001ac <.L89>
ee000176:	01051e13          	slli	t3,a0,0x10
ee00017a:	010e5f93          	srli	t6,t3,0x10

ee00017e <.LBE250>:
                ee_u16 datpat=((ee_u16)(seed^i) & 0xf);
ee00017e:	01efce33          	xor	t3,t6,t5
                ee_u16 dat=(datpat<<3) | (i&0x7); /* alternate between algorithms */
ee000182:	0e0e                	slli	t3,t3,0x3
ee000184:	078e7e13          	andi	t3,t3,120
ee000188:	007fff93          	andi	t6,t6,7

ee00018c <.LBB251>:
        newitem->next=insert_point->next;
ee00018c:	c394                	sw	a3,0(a5)

ee00018e <.LBE251>:
                ee_u16 dat=(datpat<<3) | (i&0x7); /* alternate between algorithms */
ee00018e:	01fe66b3          	or	a3,t3,t6

ee000192 <.LBB252>:
        insert_point->next=newitem;
ee000192:	c19c                	sw	a5,0(a1)

ee000194 <.LBE252>:
                info.data16=(dat<<8) | dat;             /* fill the data with actual data and upper bits with rebuild value */
ee000194:	00869e13          	slli	t3,a3,0x8

ee000198 <.LBB253>:
        newitem->info=*datablock;
ee000198:	c3d8                	sw	a4,4(a5)

ee00019a <.LBB190>:
                info.data16=(dat<<8) | dat;             /* fill the data with actual data and upper bits with rebuild value */
ee00019a:	00de6fb3          	or	t6,t3,a3

ee00019e <.LBB191>:
        to->data16=from->data16;
ee00019e:	01f71023          	sh	t6,0(a4)
        to->idx=from->idx;
ee0001a2:	00671123          	sh	t1,2(a4)

ee0001a6 <.LBE191>:
        return newitem;
ee0001a6:	86be                	mv	a3,a5
ee0001a8:	871e                	mv	a4,t2
ee0001aa:	8796                	mv	a5,t0

ee0001ac <.L89>:
        for (i=0; i<size; i++) {
ee0001ac:	0505                	addi	a0,a0,1

ee0001ae <.LVL33>:
ee0001ae:	12a80663          	beq	a6,a0,ee0002da <.L8>

ee0001b2 <.L13>:
        if ((*memblock+1) >= memblock_end)
ee0001b2:	00878293          	addi	t0,a5,8
ee0001b6:	12c2f263          	bgeu	t0,a2,ee0002da <.L8>
        if ((*datablock+1) >= datablock_end)
ee0001ba:	00470393          	addi	t2,a4,4
ee0001be:	0313fd63          	bgeu	t2,a7,ee0001f8 <.L10>
ee0001c2:	01051e13          	slli	t3,a0,0x10
ee0001c6:	010e5f93          	srli	t6,t3,0x10

ee0001ca <.LBE255>:
                ee_u16 datpat=((ee_u16)(seed^i) & 0xf);
ee0001ca:	01efce33          	xor	t3,t6,t5
                ee_u16 dat=(datpat<<3) | (i&0x7); /* alternate between algorithms */
ee0001ce:	0e0e                	slli	t3,t3,0x3
ee0001d0:	078e7e13          	andi	t3,t3,120
ee0001d4:	007fff93          	andi	t6,t6,7

ee0001d8 <.LBB256>:
        newitem->next=insert_point->next;
ee0001d8:	c394                	sw	a3,0(a5)

ee0001da <.LBE256>:
                ee_u16 dat=(datpat<<3) | (i&0x7); /* alternate between algorithms */
ee0001da:	01fe66b3          	or	a3,t3,t6

ee0001de <.LBB257>:
        insert_point->next=newitem;
ee0001de:	c19c                	sw	a5,0(a1)

ee0001e0 <.LBE257>:
                info.data16=(dat<<8) | dat;             /* fill the data with actual data and upper bits with rebuild value */
ee0001e0:	00869e13          	slli	t3,a3,0x8

ee0001e4 <.LBB258>:
        newitem->info=*datablock;
ee0001e4:	c3d8                	sw	a4,4(a5)

ee0001e6 <.LBB192>:
                info.data16=(dat<<8) | dat;             /* fill the data with actual data and upper bits with rebuild value */
ee0001e6:	00de6fb3          	or	t6,t3,a3

ee0001ea <.LBB193>:
        to->data16=from->data16;
ee0001ea:	01f71023          	sh	t6,0(a4)
        to->idx=from->idx;
ee0001ee:	00671123          	sh	t1,2(a4)

ee0001f2 <.LBE193>:
        return newitem;
ee0001f2:	86be                	mv	a3,a5
ee0001f4:	871e                	mv	a4,t2
ee0001f6:	8796                	mv	a5,t0

ee0001f8 <.L10>:
        if ((*memblock+1) >= memblock_end)
ee0001f8:	00878293          	addi	t0,a5,8

ee0001fc <.LBE260>:
        for (i=0; i<size; i++) {
ee0001fc:	0505                	addi	a0,a0,1

ee0001fe <.LBB261>:
        if ((*memblock+1) >= memblock_end)
ee0001fe:	0cc2fe63          	bgeu	t0,a2,ee0002da <.L8>
        if ((*datablock+1) >= datablock_end)
ee000202:	00470393          	addi	t2,a4,4
ee000206:	0313fd63          	bgeu	t2,a7,ee000240 <.L92>
ee00020a:	01051e13          	slli	t3,a0,0x10
ee00020e:	010e5f93          	srli	t6,t3,0x10

ee000212 <.LBE261>:
                ee_u16 datpat=((ee_u16)(seed^i) & 0xf);
ee000212:	01efce33          	xor	t3,t6,t5
                ee_u16 dat=(datpat<<3) | (i&0x7); /* alternate between algorithms */
ee000216:	0e0e                	slli	t3,t3,0x3
ee000218:	078e7e13          	andi	t3,t3,120
ee00021c:	007fff93          	andi	t6,t6,7

ee000220 <.LBB262>:
        newitem->next=insert_point->next;
ee000220:	c394                	sw	a3,0(a5)

ee000222 <.LBE262>:
                ee_u16 dat=(datpat<<3) | (i&0x7); /* alternate between algorithms */
ee000222:	01fe66b3          	or	a3,t3,t6

ee000226 <.LBB263>:
        insert_point->next=newitem;
ee000226:	c19c                	sw	a5,0(a1)

ee000228 <.LBE263>:
                info.data16=(dat<<8) | dat;             /* fill the data with actual data and upper bits with rebuild value */
ee000228:	00869e13          	slli	t3,a3,0x8

ee00022c <.LBB264>:
        newitem->info=*datablock;
ee00022c:	c3d8                	sw	a4,4(a5)

ee00022e <.LBB194>:
                info.data16=(dat<<8) | dat;             /* fill the data with actual data and upper bits with rebuild value */
ee00022e:	00de6fb3          	or	t6,t3,a3

ee000232 <.LBB195>:
        to->data16=from->data16;
ee000232:	01f71023          	sh	t6,0(a4)
        to->idx=from->idx;
ee000236:	00671123          	sh	t1,2(a4)

ee00023a <.LBE195>:
        return newitem;
ee00023a:	86be                	mv	a3,a5
ee00023c:	871e                	mv	a4,t2
ee00023e:	8796                	mv	a5,t0

ee000240 <.L92>:
        if ((*memblock+1) >= memblock_end)
ee000240:	00878293          	addi	t0,a5,8

ee000244 <.LBE266>:
        for (i=0; i<size; i++) {
ee000244:	00150e13          	addi	t3,a0,1

ee000248 <.LBB267>:
        if ((*memblock+1) >= memblock_end)
ee000248:	08c2f963          	bgeu	t0,a2,ee0002da <.L8>
        if ((*datablock+1) >= datablock_end)
ee00024c:	00470393          	addi	t2,a4,4
ee000250:	0313fd63          	bgeu	t2,a7,ee00028a <.L94>
ee000254:	010e1f93          	slli	t6,t3,0x10
ee000258:	010fdf93          	srli	t6,t6,0x10

ee00025c <.LBE267>:
                ee_u16 datpat=((ee_u16)(seed^i) & 0xf);
ee00025c:	01efce33          	xor	t3,t6,t5
                ee_u16 dat=(datpat<<3) | (i&0x7); /* alternate between algorithms */
ee000260:	0e0e                	slli	t3,t3,0x3
ee000262:	078e7e13          	andi	t3,t3,120
ee000266:	007fff93          	andi	t6,t6,7

ee00026a <.LBB268>:
        newitem->next=insert_point->next;
ee00026a:	c394                	sw	a3,0(a5)

ee00026c <.LBE268>:
                ee_u16 dat=(datpat<<3) | (i&0x7); /* alternate between algorithms */
ee00026c:	01fe66b3          	or	a3,t3,t6

ee000270 <.LBB269>:
        insert_point->next=newitem;
ee000270:	c19c                	sw	a5,0(a1)

ee000272 <.LBE269>:
                info.data16=(dat<<8) | dat;             /* fill the data with actual data and upper bits with rebuild value */
ee000272:	00869e13          	slli	t3,a3,0x8

ee000276 <.LBB270>:
        newitem->info=*datablock;
ee000276:	c3d8                	sw	a4,4(a5)

ee000278 <.LBB196>:
                info.data16=(dat<<8) | dat;             /* fill the data with actual data and upper bits with rebuild value */
ee000278:	00de6fb3          	or	t6,t3,a3

ee00027c <.LBB197>:
        to->data16=from->data16;
ee00027c:	01f71023          	sh	t6,0(a4)
        to->idx=from->idx;
ee000280:	00671123          	sh	t1,2(a4)

ee000284 <.LBE197>:
        return newitem;
ee000284:	86be                	mv	a3,a5
ee000286:	871e                	mv	a4,t2
ee000288:	8796                	mv	a5,t0

ee00028a <.L94>:
        if ((*memblock+1) >= memblock_end)
ee00028a:	00878293          	addi	t0,a5,8

ee00028e <.LBE272>:
        for (i=0; i<size; i++) {
ee00028e:	00250e13          	addi	t3,a0,2

ee000292 <.LBB273>:
        if ((*memblock+1) >= memblock_end)
ee000292:	04c2f463          	bgeu	t0,a2,ee0002da <.L8>
        if ((*datablock+1) >= datablock_end)
ee000296:	00470393          	addi	t2,a4,4
ee00029a:	0313fd63          	bgeu	t2,a7,ee0002d4 <.L96>
ee00029e:	010e1f93          	slli	t6,t3,0x10
ee0002a2:	010fdf93          	srli	t6,t6,0x10

ee0002a6 <.LBE273>:
                ee_u16 datpat=((ee_u16)(seed^i) & 0xf);
ee0002a6:	01efce33          	xor	t3,t6,t5
                ee_u16 dat=(datpat<<3) | (i&0x7); /* alternate between algorithms */
ee0002aa:	0e0e                	slli	t3,t3,0x3
ee0002ac:	078e7e13          	andi	t3,t3,120
ee0002b0:	007fff93          	andi	t6,t6,7

ee0002b4 <.LBB274>:
        newitem->next=insert_point->next;
ee0002b4:	c394                	sw	a3,0(a5)

ee0002b6 <.LBE274>:
                ee_u16 dat=(datpat<<3) | (i&0x7); /* alternate between algorithms */
ee0002b6:	01fe66b3          	or	a3,t3,t6

ee0002ba <.LBB275>:
        insert_point->next=newitem;
ee0002ba:	c19c                	sw	a5,0(a1)

ee0002bc <.LBE275>:
                info.data16=(dat<<8) | dat;             /* fill the data with actual data and upper bits with rebuild value */
ee0002bc:	00869e13          	slli	t3,a3,0x8

ee0002c0 <.LBB276>:
        newitem->info=*datablock;
ee0002c0:	c3d8                	sw	a4,4(a5)

ee0002c2 <.LBB198>:
                info.data16=(dat<<8) | dat;             /* fill the data with actual data and upper bits with rebuild value */
ee0002c2:	00de6fb3          	or	t6,t3,a3

ee0002c6 <.LBB199>:
        to->data16=from->data16;
ee0002c6:	01f71023          	sh	t6,0(a4)
        to->idx=from->idx;
ee0002ca:	00671123          	sh	t1,2(a4)

ee0002ce <.LBE199>:
        return newitem;
ee0002ce:	86be                	mv	a3,a5
ee0002d0:	871e                	mv	a4,t2
ee0002d2:	8796                	mv	a5,t0

ee0002d4 <.L96>:
        for (i=0; i<size; i++) {
ee0002d4:	050d                	addi	a0,a0,3

ee0002d6 <.LVL54>:
ee0002d6:	eca81ee3          	bne	a6,a0,ee0001b2 <.L13>

ee0002da <.L8>:
        while (finder->next!=NULL) {
ee0002da:	4290                	lw	a2,0(a3)

ee0002dc <.LVL56>:
ee0002dc:	ce39                	beqz	a2,ee00033a <.L18>
                if (i<size/5) /* first 20% of the list in order */
ee0002de:	4895                	li	a7,5

ee0002e0 <.LVL57>:
ee0002e0:	03185f33          	divu	t5,a6,a7

ee0002e4 <.LBB289>:
                        finder->info->idx=0x3fff & (((i & 0x07) << 8) | pat); /* make sure the mixed items end up after the ones in sequence */
ee0002e4:	6811                	lui	a6,0x4

ee0002e6 <.LBE289>:
                if (i<size/5) /* first 20% of the list in order */
ee0002e6:	20000793          	li	a5,512

ee0002ea <.LVL59>:
ee0002ea:	4705                	li	a4,1

ee0002ec <.LBB290>:
                        finder->info->idx=0x3fff & (((i & 0x07) << 8) | pat); /* make sure the mixed items end up after the ones in sequence */
ee0002ec:	fff80313          	addi	t1,a6,-1 # 3fff <.LLST122+0x1e>
ee0002f0:	a831                	j	ee00030c <.L19>

ee0002f2 <.L125>:
        while (finder->next!=NULL) {
ee0002f2:	4208                	lw	a0,0(a2)
ee0002f4:	10078813          	addi	a6,a5,256
                        finder->info->idx=i++;
ee0002f8:	00e29123          	sh	a4,2(t0)

ee0002fc <.LVL62>:
        while (finder->next!=NULL) {
ee0002fc:	01081293          	slli	t0,a6,0x10
ee000300:	0705                	addi	a4,a4,1

ee000302 <.LVL63>:
ee000302:	0102d793          	srli	a5,t0,0x10
ee000306:	c915                	beqz	a0,ee00033a <.L18>

ee000308 <.L17>:
                if (i<size/5) /* first 20% of the list in order */
ee000308:	86b2                	mv	a3,a2
ee00030a:	862a                	mv	a2,a0

ee00030c <.L19>:
                        finder->info->idx=i++;
ee00030c:	0046a283          	lw	t0,4(a3)
                if (i<size/5) /* first 20% of the list in order */
ee000310:	ffe761e3          	bltu	a4,t5,ee0002f2 <.L125>

ee000314 <.LBB291>:
                        finder->info->idx=0x3fff & (((i & 0x07) << 8) | pat); /* make sure the mixed items end up after the ones in sequence */
ee000314:	7007f393          	andi	t2,a5,1792
                        ee_u16 pat=(ee_u16)(i++ ^ seed); /* get a pseudo random number */
ee000318:	01d74e33          	xor	t3,a4,t4

ee00031c <.LBE291>:
        while (finder->next!=NULL) {
ee00031c:	4208                	lw	a0,0(a2)

ee00031e <.LBB292>:
                        finder->info->idx=0x3fff & (((i & 0x07) << 8) | pat); /* make sure the mixed items end up after the ones in sequence */
ee00031e:	01c3efb3          	or	t6,t2,t3

ee000322 <.LBE292>:
        while (finder->next!=NULL) {
ee000322:	10078793          	addi	a5,a5,256

ee000326 <.LBB293>:
                        finder->info->idx=0x3fff & (((i & 0x07) << 8) | pat); /* make sure the mixed items end up after the ones in sequence */
ee000326:	006ff6b3          	and	a3,t6,t1

ee00032a <.LBE293>:
        while (finder->next!=NULL) {
ee00032a:	01079893          	slli	a7,a5,0x10

ee00032e <.LBB294>:
                        finder->info->idx=0x3fff & (((i & 0x07) << 8) | pat); /* make sure the mixed items end up after the ones in sequence */
ee00032e:	00d29123          	sh	a3,2(t0)

ee000332 <.LBE294>:
        while (finder->next!=NULL) {
ee000332:	0705                	addi	a4,a4,1

ee000334 <.LVL67>:
ee000334:	0108d793          	srli	a5,a7,0x10
ee000338:	f961                	bnez	a0,ee000308 <.L17>

ee00033a <.L18>:
 */
list_head *core_list_mergesort(list_head *list, list_cmp cmp, core_results *res) {
    list_head *p, *q, *e, *tail;
    ee_s32 insize, nmerges, psize, qsize, i;

    insize = 1;
ee00033a:	4f85                	li	t6,1

    while (1) {
        p = list;
        list = NULL;
        tail = NULL;
ee00033c:	4801                	li	a6,0
        list = NULL;
ee00033e:	4501                	li	a0,0

        nmerges = 0;  /* count number of merges we do in this pass */
ee000340:	4281                	li	t0,0
        }

            tail->next = NULL;

        /* If we have done only one merge, we're finished. */
        if (nmerges <= 1)   /* allow for nmerges==0, the empty list case */
ee000342:	4385                	li	t2,1

ee000344 <.L15>:
            nmerges++;  /* there exists a merge to be done */
ee000344:	007ffe93          	andi	t4,t6,7
ee000348:	0285                	addi	t0,t0,1

ee00034a <.LVL70>:
ee00034a:	87ae                	mv	a5,a1
            psize = 0;
ee00034c:	4601                	li	a2,0
ee00034e:	040e8b63          	beqz	t4,ee0003a4 <.L22>
ee000352:	4f05                	li	t5,1
ee000354:	05ee8363          	beq	t4,t5,ee00039a <.L100>
ee000358:	4309                	li	t1,2
ee00035a:	026e8d63          	beq	t4,t1,ee000394 <.L101>
ee00035e:	4e0d                	li	t3,3
ee000360:	03ce8763          	beq	t4,t3,ee00038e <.L102>
ee000364:	4691                	li	a3,4
ee000366:	02de8163          	beq	t4,a3,ee000388 <.L103>
ee00036a:	4715                	li	a4,5
ee00036c:	00ee8b63          	beq	t4,a4,ee000382 <.L104>
ee000370:	4899                	li	a7,6
ee000372:	011e8563          	beq	t4,a7,ee00037c <.L105>

ee000376 <.LVL71>:
                            q = q->next;
ee000376:	419c                	lw	a5,0(a1)
                psize++;
ee000378:	4605                	li	a2,1

ee00037a <.LVL72>:
                if (!q) break;
ee00037a:	c7a5                	beqz	a5,ee0003e2 <.L23>

ee00037c <.L105>:
                            q = q->next;
ee00037c:	439c                	lw	a5,0(a5)

ee00037e <.LVL74>:
                psize++;
ee00037e:	0605                	addi	a2,a2,1

ee000380 <.LVL75>:
                if (!q) break;
ee000380:	c3ad                	beqz	a5,ee0003e2 <.L23>

ee000382 <.L104>:
                            q = q->next;
ee000382:	439c                	lw	a5,0(a5)

ee000384 <.LVL77>:
                psize++;
ee000384:	0605                	addi	a2,a2,1

ee000386 <.LVL78>:
                if (!q) break;
ee000386:	cfb1                	beqz	a5,ee0003e2 <.L23>

ee000388 <.L103>:
                            q = q->next;
ee000388:	439c                	lw	a5,0(a5)

ee00038a <.LVL80>:
                psize++;
ee00038a:	0605                	addi	a2,a2,1

ee00038c <.LVL81>:
                if (!q) break;
ee00038c:	cbb9                	beqz	a5,ee0003e2 <.L23>

ee00038e <.L102>:
                            q = q->next;
ee00038e:	439c                	lw	a5,0(a5)

ee000390 <.LVL83>:
                psize++;
ee000390:	0605                	addi	a2,a2,1

ee000392 <.LVL84>:
                if (!q) break;
ee000392:	cba1                	beqz	a5,ee0003e2 <.L23>

ee000394 <.L101>:
                            q = q->next;
ee000394:	439c                	lw	a5,0(a5)

ee000396 <.LVL86>:
                psize++;
ee000396:	0605                	addi	a2,a2,1

ee000398 <.LVL87>:
                if (!q) break;
ee000398:	c7a9                	beqz	a5,ee0003e2 <.L23>

ee00039a <.L100>:
                            q = q->next;
ee00039a:	439c                	lw	a5,0(a5)

ee00039c <.LVL89>:
                psize++;
ee00039c:	0605                	addi	a2,a2,1

ee00039e <.LVL90>:
                if (!q) break;
ee00039e:	c3b1                	beqz	a5,ee0003e2 <.L23>

ee0003a0 <.L123>:
            for (i = 0; i < insize; i++) {
ee0003a0:	05f60163          	beq	a2,t6,ee0003e2 <.L23>

ee0003a4 <.L22>:
                            q = q->next;
ee0003a4:	439c                	lw	a5,0(a5)

ee0003a6 <.LVL92>:
                psize++;
ee0003a6:	0605                	addi	a2,a2,1
ee0003a8:	8eb2                	mv	t4,a2

ee0003aa <.LVL93>:
                if (!q) break;
ee0003aa:	cf85                	beqz	a5,ee0003e2 <.L23>

ee0003ac <.LVL94>:
                            q = q->next;
ee0003ac:	439c                	lw	a5,0(a5)

ee0003ae <.LVL95>:
                psize++;
ee0003ae:	0605                	addi	a2,a2,1

ee0003b0 <.LVL96>:
                if (!q) break;
ee0003b0:	cb8d                	beqz	a5,ee0003e2 <.L23>

ee0003b2 <.LVL97>:
                            q = q->next;
ee0003b2:	439c                	lw	a5,0(a5)

ee0003b4 <.LVL98>:
                psize++;
ee0003b4:	002e8613          	addi	a2,t4,2

ee0003b8 <.LVL99>:
                if (!q) break;
ee0003b8:	c78d                	beqz	a5,ee0003e2 <.L23>

ee0003ba <.LVL100>:
                            q = q->next;
ee0003ba:	439c                	lw	a5,0(a5)

ee0003bc <.LVL101>:
                psize++;
ee0003bc:	003e8613          	addi	a2,t4,3

ee0003c0 <.LVL102>:
                if (!q) break;
ee0003c0:	c38d                	beqz	a5,ee0003e2 <.L23>

ee0003c2 <.LVL103>:
                            q = q->next;
ee0003c2:	439c                	lw	a5,0(a5)

ee0003c4 <.LVL104>:
                psize++;
ee0003c4:	004e8613          	addi	a2,t4,4

ee0003c8 <.LVL105>:
                if (!q) break;
ee0003c8:	cf89                	beqz	a5,ee0003e2 <.L23>

ee0003ca <.LVL106>:
                            q = q->next;
ee0003ca:	439c                	lw	a5,0(a5)

ee0003cc <.LVL107>:
                psize++;
ee0003cc:	005e8613          	addi	a2,t4,5

ee0003d0 <.LVL108>:
                if (!q) break;
ee0003d0:	cb89                	beqz	a5,ee0003e2 <.L23>

ee0003d2 <.LVL109>:
                            q = q->next;
ee0003d2:	439c                	lw	a5,0(a5)

ee0003d4 <.LVL110>:
                psize++;
ee0003d4:	006e8613          	addi	a2,t4,6

ee0003d8 <.LVL111>:
                if (!q) break;
ee0003d8:	c789                	beqz	a5,ee0003e2 <.L23>

ee0003da <.LVL112>:
                            q = q->next;
ee0003da:	439c                	lw	a5,0(a5)

ee0003dc <.LVL113>:
                psize++;
ee0003dc:	007e8613          	addi	a2,t4,7

ee0003e0 <.LVL114>:
                if (!q) break;
ee0003e0:	f3e1                	bnez	a5,ee0003a0 <.L123>

ee0003e2 <.L23>:
                                    list = e;
ee0003e2:	86fe                	mv	a3,t6

ee0003e4 <.LVL116>:
            while (psize > 0 || (qsize > 0 && q)) {
ee0003e4:	c625                	beqz	a2,ee00044c <.L126>

ee0003e6 <.L29>:
                                } else if (qsize == 0 || !q) {
ee0003e6:	cead                	beqz	a3,ee000460 <.L124>
ee0003e8:	cfa5                	beqz	a5,ee000460 <.L124>
                                } else if (cmp(p->info,q->info,res) <= 0) {
ee0003ea:	0045ae03          	lw	t3,4(a1)
ee0003ee:	0047a303          	lw	t1,4(a5)

ee0003f2 <.LBB297>:
                a->data16 = (a->data16 & 0xff00) | (0x00ff & (a->data16>>8));
ee0003f2:	000e1703          	lh	a4,0(t3)
        return a->idx - b->idx;
ee0003f6:	00231f03          	lh	t5,2(t1)
ee0003fa:	002e1883          	lh	a7,2(t3)
                a->data16 = (a->data16 & 0xff00) | (0x00ff & (a->data16>>8));
ee0003fe:	01071e93          	slli	t4,a4,0x10
ee000402:	010ede93          	srli	t4,t4,0x10
ee000406:	008ede93          	srli	t4,t4,0x8
ee00040a:	f0077713          	andi	a4,a4,-256
ee00040e:	01d76733          	or	a4,a4,t4
ee000412:	00ee1023          	sh	a4,0(t3)
                b->data16 = (b->data16 & 0xff00) | (0x00ff & (b->data16>>8));
ee000416:	00031e83          	lh	t4,0(t1)
        return a->idx - b->idx;
ee00041a:	41e888b3          	sub	a7,a7,t5
                b->data16 = (b->data16 & 0xff00) | (0x00ff & (b->data16>>8));
ee00041e:	010e9e13          	slli	t3,t4,0x10

ee000422 <.LVL118>:
ee000422:	010e5f13          	srli	t5,t3,0x10
ee000426:	f00ef713          	andi	a4,t4,-256
ee00042a:	008f5e93          	srli	t4,t5,0x8
ee00042e:	01d76e33          	or	t3,a4,t4
ee000432:	01c31023          	sh	t3,0(t1)

ee000436 <.LBE297>:
                                } else if (cmp(p->info,q->info,res) <= 0) {
ee000436:	03105563          	blez	a7,ee000460 <.L124>

ee00043a <.LVL120>:
                                    e = q; q = q->next; qsize--;
ee00043a:	833e                	mv	t1,a5
ee00043c:	439c                	lw	a5,0(a5)

ee00043e <.LVL121>:
ee00043e:	16fd                	addi	a3,a3,-1

ee000440 <.L24>:
                                if (tail) {
ee000440:	00080d63          	beqz	a6,ee00045a <.L39>

ee000444 <.L127>:
                                    tail->next = e;
ee000444:	00682023          	sw	t1,0(a6)
                                    list = e;
ee000448:	881a                	mv	a6,t1

ee00044a <.L128>:
            while (psize > 0 || (qsize > 0 && q)) {
ee00044a:	fe51                	bnez	a2,ee0003e6 <.L29>

ee00044c <.L126>:
ee00044c:	ce91                	beqz	a3,ee000468 <.L30>
ee00044e:	c385                	beqz	a5,ee00046e <.L32>

ee000450 <.LVL125>:
                                    e = q; q = q->next; qsize--;
ee000450:	833e                	mv	t1,a5
ee000452:	16fd                	addi	a3,a3,-1
ee000454:	439c                	lw	a5,0(a5)

ee000456 <.LVL127>:
                                if (tail) {
ee000456:	fe0817e3          	bnez	a6,ee000444 <.L127>

ee00045a <.L39>:
                                    list = e;
ee00045a:	851a                	mv	a0,t1
ee00045c:	881a                	mv	a6,t1

ee00045e <.LVL128>:
ee00045e:	b7f5                	j	ee00044a <.L128>

ee000460 <.L124>:
                                    e = p; p = p->next; psize--;
ee000460:	832e                	mv	t1,a1
ee000462:	167d                	addi	a2,a2,-1

ee000464 <.LVL130>:
ee000464:	418c                	lw	a1,0(a1)

ee000466 <.LVL131>:
ee000466:	bfe9                	j	ee000440 <.L24>

ee000468 <.L30>:
        while (p) {
ee000468:	c399                	beqz	a5,ee00046e <.L32>
        list = NULL;
ee00046a:	85be                	mv	a1,a5
ee00046c:	bde1                	j	ee000344 <.L15>

ee00046e <.L32>:
            tail->next = NULL;
ee00046e:	00082023          	sw	zero,0(a6)
        if (nmerges <= 1)   /* allow for nmerges==0, the empty list case */
ee000472:	00728a63          	beq	t0,t2,ee000486 <.L120>
            return list;

        /* Otherwise repeat, merging lists twice the size */
        insize *= 2;
ee000476:	0f86                	slli	t6,t6,0x1

ee000478 <.LVL134>:
        while (p) {
ee000478:	c901                	beqz	a0,ee000488 <.L129>
ee00047a:	87aa                	mv	a5,a0

ee00047c <.LVL135>:
        nmerges = 0;  /* count number of merges we do in this pass */
ee00047c:	4281                	li	t0,0
        tail = NULL;
ee00047e:	4801                	li	a6,0
        list = NULL;
ee000480:	4501                	li	a0,0

ee000482 <.LVL136>:
ee000482:	85be                	mv	a1,a5
ee000484:	b5c1                	j	ee000344 <.L15>

ee000486 <.L120>:
}
ee000486:	8082                	ret

ee000488 <.L129>:
            tail->next = NULL;
ee000488:	00002023          	sw	zero,0(zero) # 0 <_start>
ee00048c:	9002                	ebreak

ee00048e <.L38>:
        memblock++;
ee00048e:	87b6                	mv	a5,a3

ee000490 <.LVL140>:
        datablock++;
ee000490:	871a                	mv	a4,t1

ee000492 <.LBB301>:
ee000492:	4681                	li	a3,0
ee000494:	b135                	j	ee0000c0 <.L7>

ee000496 <core_list_insert_new>:
        if ((*memblock+1) >= memblock_end)
ee000496:	00062803          	lw	a6,0(a2)
ee00049a:	00880893          	addi	a7,a6,8
ee00049e:	04e8f163          	bgeu	a7,a4,ee0004e0 <.L133>
        if ((*datablock+1) >= datablock_end)
ee0004a2:	4298                	lw	a4,0(a3)

ee0004a4 <.LVL142>:
ee0004a4:	00470313          	addi	t1,a4,4
ee0004a8:	02f37c63          	bgeu	t1,a5,ee0004e0 <.L133>

ee0004ac <.LVL143>:
        (*memblock)++;
ee0004ac:	01162023          	sw	a7,0(a2)
        newitem->next=insert_point->next;
ee0004b0:	411c                	lw	a5,0(a0)

ee0004b2 <.LBB302>:
        to->data16=from->data16;
ee0004b2:	00059283          	lh	t0,0(a1)
        to->idx=from->idx;
ee0004b6:	00259603          	lh	a2,2(a1)

ee0004ba <.LBE302>:
        newitem->next=insert_point->next;
ee0004ba:	00f82023          	sw	a5,0(a6)
        insert_point->next=newitem;
ee0004be:	01052023          	sw	a6,0(a0)
        newitem->info=*datablock;
ee0004c2:	00e82223          	sw	a4,4(a6)
        (*datablock)++;
ee0004c6:	0006a383          	lw	t2,0(a3)
ee0004ca:	00438513          	addi	a0,t2,4

ee0004ce <.LVL146>:
ee0004ce:	c288                	sw	a0,0(a3)
        copy_info(newitem->info,info);
ee0004d0:	00482583          	lw	a1,4(a6)

ee0004d4 <.LBB306>:
}
ee0004d4:	8542                	mv	a0,a6

ee0004d6 <.LBB307>:
        to->data16=from->data16;
ee0004d6:	00559023          	sh	t0,0(a1)
        to->idx=from->idx;
ee0004da:	00c59123          	sh	a2,2(a1)

ee0004de <.LBE307>:
}
ee0004de:	8082                	ret

ee0004e0 <.L133>:
                return NULL;
ee0004e0:	4801                	li	a6,0
}
ee0004e2:	8542                	mv	a0,a6

ee0004e4 <.LVL150>:
ee0004e4:	8082                	ret

ee0004e6 <core_list_remove>:
list_head *core_list_remove(list_head *item) {
ee0004e6:	87aa                	mv	a5,a0
        list_head *ret=item->next;
ee0004e8:	4108                	lw	a0,0(a0)

ee0004ea <.LVL152>:
        tmp=item->info;
ee0004ea:	43d4                	lw	a3,4(a5)
        item->info=ret->info;
ee0004ec:	4150                	lw	a2,4(a0)
        item->next=item->next->next;
ee0004ee:	4118                	lw	a4,0(a0)
        item->info=ret->info;
ee0004f0:	c3d0                	sw	a2,4(a5)
        ret->info=tmp;
ee0004f2:	c154                	sw	a3,4(a0)
        item->next=item->next->next;
ee0004f4:	c398                	sw	a4,0(a5)
        ret->next=NULL;
ee0004f6:	00052023          	sw	zero,0(a0)
}
ee0004fa:	8082                	ret

ee0004fc <core_list_undo_remove>:
        item_removed->info=item_modified->info;
ee0004fc:	41d0                	lw	a2,4(a1)
        tmp=item_removed->info;
ee0004fe:	4154                	lw	a3,4(a0)
        item_removed->next=item_modified->next;
ee000500:	4198                	lw	a4,0(a1)
        item_removed->info=item_modified->info;
ee000502:	c150                	sw	a2,4(a0)
        item_modified->info=tmp;
ee000504:	c1d4                	sw	a3,4(a1)
        item_removed->next=item_modified->next;
ee000506:	c118                	sw	a4,0(a0)
        item_modified->next=item_removed;
ee000508:	c188                	sw	a0,0(a1)
}
ee00050a:	8082                	ret

ee00050c <core_list_find>:
        if (info->idx>=0) {
ee00050c:	00259603          	lh	a2,2(a1)
ee000510:	00064d63          	bltz	a2,ee00052a <.L149>
                while (list && (list->info->idx != info->idx))
ee000514:	e501                	bnez	a0,ee00051c <.L140>
ee000516:	a805                	j	ee000546 <.L150>

ee000518 <.L141>:
                        list=list->next;
ee000518:	4108                	lw	a0,0(a0)

ee00051a <.LVL157>:
                while (list && (list->info->idx != info->idx))
ee00051a:	c505                	beqz	a0,ee000542 <.L144>

ee00051c <.L140>:
ee00051c:	00452303          	lw	t1,4(a0)
ee000520:	00231383          	lh	t2,2(t1)
ee000524:	fec39ae3          	bne	t2,a2,ee000518 <.L141>
ee000528:	8082                	ret

ee00052a <.L149>:
                while (list && ((list->info->data16 & 0xff) != info->data16))
ee00052a:	cd01                	beqz	a0,ee000542 <.L144>
ee00052c:	00059703          	lh	a4,0(a1)
ee000530:	a019                	j	ee000536 <.L139>

ee000532 <.L142>:
                        list=list->next;
ee000532:	4108                	lw	a0,0(a0)
                while (list && ((list->info->data16 & 0xff) != info->data16))
ee000534:	c901                	beqz	a0,ee000544 <.L136>

ee000536 <.L139>:
ee000536:	415c                	lw	a5,4(a0)
ee000538:	0007c283          	lbu	t0,0(a5)
ee00053c:	fee29be3          	bne	t0,a4,ee000532 <.L142>
ee000540:	8082                	ret

ee000542 <.L144>:
ee000542:	4501                	li	a0,0

ee000544 <.L136>:
}
ee000544:	8082                	ret

ee000546 <.L150>:
ee000546:	8082                	ret

ee000548 <core_list_reverse>:
        while (list) {
ee000548:	c92d                	beqz	a0,ee0005ba <.L152>
                tmp=list->next;
ee00054a:	411c                	lw	a5,0(a0)
        list_head *next=NULL, *tmp;
ee00054c:	4881                	li	a7,0

ee00054e <.LVL165>:
                list->next=next;
ee00054e:	01152023          	sw	a7,0(a0)

ee000552 <.LVL166>:
        while (list) {
ee000552:	86aa                	mv	a3,a0
ee000554:	c3bd                	beqz	a5,ee0005ba <.L152>

ee000556 <.L154>:
                tmp=list->next;
ee000556:	4398                	lw	a4,0(a5)
                list->next=next;
ee000558:	c394                	sw	a3,0(a5)
ee00055a:	853e                	mv	a0,a5
        while (list) {
ee00055c:	c325                	beqz	a4,ee0005bc <.L165>

ee00055e <.LVL168>:
                tmp=list->next;
ee00055e:	00072283          	lw	t0,0(a4)
                list->next=next;
ee000562:	c31c                	sw	a5,0(a4)
ee000564:	853a                	mv	a0,a4

ee000566 <.LVL169>:
        while (list) {
ee000566:	04028a63          	beqz	t0,ee0005ba <.L152>
                tmp=list->next;
ee00056a:	0002a303          	lw	t1,0(t0)
                list->next=next;
ee00056e:	00e2a023          	sw	a4,0(t0)
ee000572:	8516                	mv	a0,t0

ee000574 <.LVL170>:
        while (list) {
ee000574:	04030363          	beqz	t1,ee0005ba <.L152>
                tmp=list->next;
ee000578:	00032383          	lw	t2,0(t1)
                list->next=next;
ee00057c:	00532023          	sw	t0,0(t1)
ee000580:	851a                	mv	a0,t1

ee000582 <.LVL171>:
        while (list) {
ee000582:	02038c63          	beqz	t2,ee0005ba <.L152>
                tmp=list->next;
ee000586:	0003a583          	lw	a1,0(t2)
                list->next=next;
ee00058a:	0063a023          	sw	t1,0(t2)
ee00058e:	851e                	mv	a0,t2

ee000590 <.LVL172>:
        while (list) {
ee000590:	c58d                	beqz	a1,ee0005ba <.L152>
                tmp=list->next;
ee000592:	0005a803          	lw	a6,0(a1)
                list->next=next;
ee000596:	0075a023          	sw	t2,0(a1)
ee00059a:	852e                	mv	a0,a1

ee00059c <.LVL173>:
        while (list) {
ee00059c:	00080f63          	beqz	a6,ee0005ba <.L152>
                tmp=list->next;
ee0005a0:	00082603          	lw	a2,0(a6)
                list->next=next;
ee0005a4:	00b82023          	sw	a1,0(a6)
ee0005a8:	8542                	mv	a0,a6
        while (list) {
ee0005aa:	88c2                	mv	a7,a6
ee0005ac:	c619                	beqz	a2,ee0005ba <.L152>
ee0005ae:	8532                	mv	a0,a2

ee0005b0 <.LVL175>:
                tmp=list->next;
ee0005b0:	411c                	lw	a5,0(a0)
                list->next=next;
ee0005b2:	01152023          	sw	a7,0(a0)

ee0005b6 <.LVL176>:
        while (list) {
ee0005b6:	86aa                	mv	a3,a0
ee0005b8:	ffd9                	bnez	a5,ee000556 <.L154>

ee0005ba <.L152>:
}
ee0005ba:	8082                	ret

ee0005bc <.L165>:
ee0005bc:	8082                	ret

ee0005be <core_list_mergesort>:
list_head *core_list_mergesort(list_head *list, list_cmp cmp, core_results *res) {
ee0005be:	7179                	addi	sp,sp,-48
ee0005c0:	d422                	sw	s0,40(sp)
ee0005c2:	c85a                	sw	s6,16(sp)
ee0005c4:	c65e                	sw	s7,12(sp)
ee0005c6:	c266                	sw	s9,4(sp)
ee0005c8:	c06a                	sw	s10,0(sp)
ee0005ca:	d606                	sw	ra,44(sp)
ee0005cc:	d226                	sw	s1,36(sp)
ee0005ce:	d04a                	sw	s2,32(sp)
ee0005d0:	ce4e                	sw	s3,28(sp)
ee0005d2:	cc52                	sw	s4,24(sp)
ee0005d4:	ca56                	sw	s5,20(sp)
ee0005d6:	c462                	sw	s8,8(sp)
ee0005d8:	842a                	mv	s0,a0
ee0005da:	8b2e                	mv	s6,a1
ee0005dc:	8d32                	mv	s10,a2
    insize = 1;
ee0005de:	4b85                	li	s7,1
        if (nmerges <= 1)   /* allow for nmerges==0, the empty list case */
ee0005e0:	4c85                	li	s9,1

ee0005e2 <.L183>:
        while (p) {
ee0005e2:	10040163          	beqz	s0,ee0006e4 <.L167>
        nmerges = 0;  /* count number of merges we do in this pass */
ee0005e6:	4c01                	li	s8,0
        tail = NULL;
ee0005e8:	4481                	li	s1,0
        list = NULL;
ee0005ea:	4a81                	li	s5,0

ee0005ec <.L181>:
            nmerges++;  /* there exists a merge to be done */
ee0005ec:	007bf713          	andi	a4,s7,7
ee0005f0:	0c05                	addi	s8,s8,1

ee0005f2 <.LVL182>:
ee0005f2:	87a2                	mv	a5,s0
            psize = 0;
ee0005f4:	4901                	li	s2,0
ee0005f6:	cb31                	beqz	a4,ee00064a <.L170>
ee0005f8:	4685                	li	a3,1
ee0005fa:	04d70363          	beq	a4,a3,ee000640 <.L224>
ee0005fe:	4089                	li	ra,2
ee000600:	02170d63          	beq	a4,ra,ee00063a <.L225>
ee000604:	428d                	li	t0,3
ee000606:	02570763          	beq	a4,t0,ee000634 <.L226>
ee00060a:	4311                	li	t1,4
ee00060c:	02670163          	beq	a4,t1,ee00062e <.L227>
ee000610:	4395                	li	t2,5
ee000612:	00770b63          	beq	a4,t2,ee000628 <.L228>
ee000616:	4519                	li	a0,6
ee000618:	00a70563          	beq	a4,a0,ee000622 <.L229>

ee00061c <.LVL183>:
                            q = q->next;
ee00061c:	401c                	lw	a5,0(s0)
                psize++;
ee00061e:	4905                	li	s2,1

ee000620 <.LVL184>:
                if (!q) break;
ee000620:	c7a5                	beqz	a5,ee000688 <.L171>

ee000622 <.L229>:
                            q = q->next;
ee000622:	439c                	lw	a5,0(a5)

ee000624 <.LVL186>:
                psize++;
ee000624:	0905                	addi	s2,s2,1

ee000626 <.LVL187>:
                if (!q) break;
ee000626:	c3ad                	beqz	a5,ee000688 <.L171>

ee000628 <.L228>:
                            q = q->next;
ee000628:	439c                	lw	a5,0(a5)

ee00062a <.LVL189>:
                psize++;
ee00062a:	0905                	addi	s2,s2,1

ee00062c <.LVL190>:
                if (!q) break;
ee00062c:	cfb1                	beqz	a5,ee000688 <.L171>

ee00062e <.L227>:
                            q = q->next;
ee00062e:	439c                	lw	a5,0(a5)

ee000630 <.LVL192>:
                psize++;
ee000630:	0905                	addi	s2,s2,1

ee000632 <.LVL193>:
                if (!q) break;
ee000632:	cbb9                	beqz	a5,ee000688 <.L171>

ee000634 <.L226>:
                            q = q->next;
ee000634:	439c                	lw	a5,0(a5)

ee000636 <.LVL195>:
                psize++;
ee000636:	0905                	addi	s2,s2,1

ee000638 <.LVL196>:
                if (!q) break;
ee000638:	cba1                	beqz	a5,ee000688 <.L171>

ee00063a <.L225>:
                            q = q->next;
ee00063a:	439c                	lw	a5,0(a5)

ee00063c <.LVL198>:
                psize++;
ee00063c:	0905                	addi	s2,s2,1

ee00063e <.LVL199>:
                if (!q) break;
ee00063e:	c7a9                	beqz	a5,ee000688 <.L171>

ee000640 <.L224>:
                            q = q->next;
ee000640:	439c                	lw	a5,0(a5)

ee000642 <.LVL201>:
                psize++;
ee000642:	0905                	addi	s2,s2,1

ee000644 <.LVL202>:
                if (!q) break;
ee000644:	c3b1                	beqz	a5,ee000688 <.L171>

ee000646 <.L242>:
            for (i = 0; i < insize; i++) {
ee000646:	052b8163          	beq	s7,s2,ee000688 <.L171>

ee00064a <.L170>:
                            q = q->next;
ee00064a:	439c                	lw	a5,0(a5)

ee00064c <.LVL204>:
                psize++;
ee00064c:	0905                	addi	s2,s2,1
ee00064e:	85ca                	mv	a1,s2

ee000650 <.LVL205>:
                if (!q) break;
ee000650:	cf85                	beqz	a5,ee000688 <.L171>

ee000652 <.LVL206>:
                            q = q->next;
ee000652:	439c                	lw	a5,0(a5)

ee000654 <.LVL207>:
                psize++;
ee000654:	0905                	addi	s2,s2,1

ee000656 <.LVL208>:
                if (!q) break;
ee000656:	cb8d                	beqz	a5,ee000688 <.L171>

ee000658 <.LVL209>:
                            q = q->next;
ee000658:	439c                	lw	a5,0(a5)

ee00065a <.LVL210>:
                psize++;
ee00065a:	00258913          	addi	s2,a1,2

ee00065e <.LVL211>:
                if (!q) break;
ee00065e:	c78d                	beqz	a5,ee000688 <.L171>

ee000660 <.LVL212>:
                            q = q->next;
ee000660:	439c                	lw	a5,0(a5)

ee000662 <.LVL213>:
                psize++;
ee000662:	00358913          	addi	s2,a1,3

ee000666 <.LVL214>:
                if (!q) break;
ee000666:	c38d                	beqz	a5,ee000688 <.L171>

ee000668 <.LVL215>:
                            q = q->next;
ee000668:	439c                	lw	a5,0(a5)

ee00066a <.LVL216>:
                psize++;
ee00066a:	00458913          	addi	s2,a1,4

ee00066e <.LVL217>:
                if (!q) break;
ee00066e:	cf89                	beqz	a5,ee000688 <.L171>

ee000670 <.LVL218>:
                            q = q->next;
ee000670:	439c                	lw	a5,0(a5)

ee000672 <.LVL219>:
                psize++;
ee000672:	00558913          	addi	s2,a1,5

ee000676 <.LVL220>:
                if (!q) break;
ee000676:	cb89                	beqz	a5,ee000688 <.L171>

ee000678 <.LVL221>:
                            q = q->next;
ee000678:	439c                	lw	a5,0(a5)

ee00067a <.LVL222>:
                psize++;
ee00067a:	00658913          	addi	s2,a1,6

ee00067e <.LVL223>:
                if (!q) break;
ee00067e:	c789                	beqz	a5,ee000688 <.L171>

ee000680 <.LVL224>:
                            q = q->next;
ee000680:	439c                	lw	a5,0(a5)

ee000682 <.LVL225>:
                psize++;
ee000682:	00758913          	addi	s2,a1,7

ee000686 <.LVL226>:
                if (!q) break;
ee000686:	f3e1                	bnez	a5,ee000646 <.L242>

ee000688 <.L171>:
                                    list = e;
ee000688:	8a22                	mv	s4,s0
ee00068a:	89de                	mv	s3,s7
ee00068c:	843e                	mv	s0,a5

ee00068e <.LVL228>:
            while (psize > 0 || (qsize > 0 && q)) {
ee00068e:	02090463          	beqz	s2,ee0006b6 <.L244>

ee000692 <.L177>:
                                } else if (qsize == 0 || !q) {
ee000692:	02098c63          	beqz	s3,ee0006ca <.L243>
ee000696:	c815                	beqz	s0,ee0006ca <.L243>
                                } else if (cmp(p->info,q->info,res) <= 0) {
ee000698:	404c                	lw	a1,4(s0)
ee00069a:	004a2503          	lw	a0,4(s4)
ee00069e:	866a                	mv	a2,s10
ee0006a0:	9b02                	jalr	s6

ee0006a2 <.LVL229>:
ee0006a2:	02a05463          	blez	a0,ee0006ca <.L243>

ee0006a6 <.LVL230>:
                                    e = q; q = q->next; qsize--;
ee0006a6:	8622                	mv	a2,s0
ee0006a8:	4000                	lw	s0,0(s0)

ee0006aa <.LVL231>:
ee0006aa:	19fd                	addi	s3,s3,-1

ee0006ac <.L172>:
                                if (tail) {
ee0006ac:	cc81                	beqz	s1,ee0006c4 <.L184>

ee0006ae <.L245>:
                                    tail->next = e;
ee0006ae:	c090                	sw	a2,0(s1)
                                    list = e;
ee0006b0:	84b2                	mv	s1,a2

ee0006b2 <.L246>:
            while (psize > 0 || (qsize > 0 && q)) {
ee0006b2:	fe0910e3          	bnez	s2,ee000692 <.L177>

ee0006b6 <.L244>:
ee0006b6:	00098f63          	beqz	s3,ee0006d4 <.L178>
ee0006ba:	cc11                	beqz	s0,ee0006d6 <.L180>

ee0006bc <.LVL235>:
                                    e = q; q = q->next; qsize--;
ee0006bc:	8622                	mv	a2,s0
ee0006be:	19fd                	addi	s3,s3,-1
ee0006c0:	4000                	lw	s0,0(s0)

ee0006c2 <.LVL237>:
                                if (tail) {
ee0006c2:	f4f5                	bnez	s1,ee0006ae <.L245>

ee0006c4 <.L184>:
                                    list = e;
ee0006c4:	8ab2                	mv	s5,a2
ee0006c6:	84b2                	mv	s1,a2

ee0006c8 <.LVL238>:
ee0006c8:	b7ed                	j	ee0006b2 <.L246>

ee0006ca <.L243>:
                                    e = p; p = p->next; psize--;
ee0006ca:	8652                	mv	a2,s4
ee0006cc:	197d                	addi	s2,s2,-1

ee0006ce <.LVL240>:
ee0006ce:	000a2a03          	lw	s4,0(s4)

ee0006d2 <.LVL241>:
ee0006d2:	bfe9                	j	ee0006ac <.L172>

ee0006d4 <.L178>:
        while (p) {
ee0006d4:	fc01                	bnez	s0,ee0005ec <.L181>

ee0006d6 <.L180>:
            tail->next = NULL;
ee0006d6:	0004a023          	sw	zero,0(s1)
        if (nmerges <= 1)   /* allow for nmerges==0, the empty list case */
ee0006da:	019c0863          	beq	s8,s9,ee0006ea <.L240>
        insize *= 2;
ee0006de:	0b86                	slli	s7,s7,0x1
        p = list;
ee0006e0:	8456                	mv	s0,s5

ee0006e2 <.LVL245>:
ee0006e2:	b701                	j	ee0005e2 <.L183>

ee0006e4 <.L167>:
            tail->next = NULL;
ee0006e4:	00002023          	sw	zero,0(zero) # 0 <_start>
ee0006e8:	9002                	ebreak

ee0006ea <.L240>:
    }
#if COMPILER_REQUIRES_SORT_RETURN
        return list;
#endif
}
ee0006ea:	50b2                	lw	ra,44(sp)
ee0006ec:	5422                	lw	s0,40(sp)

ee0006ee <.LVL248>:
ee0006ee:	5492                	lw	s1,36(sp)
ee0006f0:	5902                	lw	s2,32(sp)
ee0006f2:	49f2                	lw	s3,28(sp)

ee0006f4 <.LVL249>:
ee0006f4:	4a62                	lw	s4,24(sp)
ee0006f6:	4b42                	lw	s6,16(sp)

ee0006f8 <.LVL250>:
ee0006f8:	4bb2                	lw	s7,12(sp)

ee0006fa <.LVL251>:
ee0006fa:	4c22                	lw	s8,8(sp)
ee0006fc:	4c92                	lw	s9,4(sp)
ee0006fe:	4d02                	lw	s10,0(sp)

ee000700 <.LVL252>:
ee000700:	8556                	mv	a0,s5
ee000702:	4ad2                	lw	s5,20(sp)
ee000704:	6145                	addi	sp,sp,48
ee000706:	8082                	ret

ee000708 <matrix_test>:
        4 - Multiply a matrix by a matrix.
        5 - Add a constant value to all elements of a matrix.

        After the last step, matrix A is back to original contents.
*/
ee_s16 matrix_test(ee_u32 N, MATRES *C, MATDAT *A, MATDAT *B, MATDAT val) {
ee000708:	711d                	addi	sp,sp,-96
ee00070a:	caa6                	sw	s1,84(sp)
ee00070c:	c6ce                	sw	s3,76(sp)
ee00070e:	c4d2                	sw	s4,72(sp)
ee000710:	de5e                	sw	s7,60(sp)
        ee_u16 crc=0;
        MATDAT clipval=matrix_big(val);
ee000712:	74fd                	lui	s1,0xfffff
        crc=crc16(matrix_sum(N,C,clipval),crc);
#if CORE_DEBUG
        printmatC(C,N,"matrix_mul_matrix_bitextract");
#endif

        matrix_add_const(N,A,-val); /* return matrix to initial value */
ee000714:	01071a13          	slli	s4,a4,0x10
ee_s16 matrix_test(ee_u32 N, MATRES *C, MATDAT *A, MATDAT *B, MATDAT val) {
ee000718:	ce86                	sw	ra,92(sp)
ee00071a:	cca2                	sw	s0,88(sp)
ee00071c:	c8ca                	sw	s2,80(sp)
ee00071e:	c2d6                	sw	s5,68(sp)
ee000720:	c0da                	sw	s6,64(sp)
ee000722:	dc62                	sw	s8,56(sp)
ee000724:	da66                	sw	s9,52(sp)
ee000726:	d86a                	sw	s10,48(sp)
ee000728:	d66e                	sw	s11,44(sp)
ee00072a:	c22e                	sw	a1,4(sp)
ee00072c:	c632                	sw	a2,12(sp)
ee00072e:	89aa                	mv	s3,a0
ee000730:	8bb6                	mv	s7,a3

ee000732 <.LVL254>:
        MATDAT clipval=matrix_big(val);
ee000732:	8cd9                	or	s1,s1,a4

ee000734 <.LBB365>:
        matrix_add_const(N,A,-val); /* return matrix to initial value */
ee000734:	010a5a13          	srli	s4,s4,0x10

ee000738 <.LBB371>:
/* Function: matrix_add_const
        Add a constant value to all elements of a matrix.
*/
void matrix_add_const(ee_u32 N, MATDAT *A, MATDAT val) {
        ee_u32 i,j;
        for (i=0; i<N; i++) {
ee000738:	e119                	bnez	a0,ee00073e <.LBB371+0x6>
ee00073a:	28f0106f          	j	ee0021c8 <.L353>
ee00073e:	80b2                	mv	ra,a2
ee000740:	00151613          	slli	a2,a0,0x1

ee000744 <.LVL256>:
ee000744:	9606                	add	a2,a2,ra
ee000746:	40a00533          	neg	a0,a0

ee00074a <.LVL257>:
ee00074a:	00151893          	slli	a7,a0,0x1
ee00074e:	883a                	mv	a6,a4
ee000750:	86b2                	mv	a3,a2

ee000752 <.LVL258>:
ee000752:	4581                	li	a1,0

ee000754 <.LVL259>:
ee000754:	050a                	slli	a0,a0,0x2

ee000756 <.L249>:
                for (j=0; j<N; j++) {
ee000756:	01168333          	add	t1,a3,a7
ee00075a:	406682b3          	sub	t0,a3,t1
ee00075e:	ffe28393          	addi	t2,t0,-2
ee000762:	0013d413          	srli	s0,t2,0x1
ee000766:	00140913          	addi	s2,s0,1
ee00076a:	00797a93          	andi	s5,s2,7

ee00076e <.LBE371>:
ee_s16 matrix_test(ee_u32 N, MATRES *C, MATDAT *A, MATDAT *B, MATDAT val) {
ee00076e:	879a                	mv	a5,t1
ee000770:	080a8863          	beqz	s5,ee000800 <.L250>
ee000774:	4e05                	li	t3,1
ee000776:	07ca8c63          	beq	s5,t3,ee0007ee <.L678>
ee00077a:	4b09                	li	s6,2
ee00077c:	076a8263          	beq	s5,s6,ee0007e0 <.L679>
ee000780:	4c0d                	li	s8,3
ee000782:	058a8863          	beq	s5,s8,ee0007d2 <.L680>
ee000786:	4c91                	li	s9,4
ee000788:	039a8e63          	beq	s5,s9,ee0007c4 <.L681>
ee00078c:	4d15                	li	s10,5
ee00078e:	03aa8463          	beq	s5,s10,ee0007b6 <.L682>
ee000792:	4d99                	li	s11,6
ee000794:	01ba8a63          	beq	s5,s11,ee0007a8 <.L683>

ee000798 <.LBB372>:
                        A[i*N+j] += val;
ee000798:	00035e83          	lhu	t4,0(t1)
                for (j=0; j<N; j++) {
ee00079c:	00230793          	addi	a5,t1,2
                        A[i*N+j] += val;
ee0007a0:	01da0f33          	add	t5,s4,t4
ee0007a4:	01e31023          	sh	t5,0(t1)

ee0007a8 <.L683>:
ee0007a8:	0007df83          	lhu	t6,0(a5)
                for (j=0; j<N; j++) {
ee0007ac:	0789                	addi	a5,a5,2
                        A[i*N+j] += val;
ee0007ae:	01fa0733          	add	a4,s4,t6
ee0007b2:	fee79f23          	sh	a4,-2(a5)

ee0007b6 <.L682>:
ee0007b6:	0007d083          	lhu	ra,0(a5)
                for (j=0; j<N; j++) {
ee0007ba:	0789                	addi	a5,a5,2
                        A[i*N+j] += val;
ee0007bc:	001a02b3          	add	t0,s4,ra
ee0007c0:	fe579f23          	sh	t0,-2(a5)

ee0007c4 <.L681>:
ee0007c4:	0007d383          	lhu	t2,0(a5)
                for (j=0; j<N; j++) {
ee0007c8:	0789                	addi	a5,a5,2
                        A[i*N+j] += val;
ee0007ca:	007a0433          	add	s0,s4,t2
ee0007ce:	fe879f23          	sh	s0,-2(a5)

ee0007d2 <.L680>:
ee0007d2:	0007d903          	lhu	s2,0(a5)
                for (j=0; j<N; j++) {
ee0007d6:	0789                	addi	a5,a5,2
                        A[i*N+j] += val;
ee0007d8:	012a0ab3          	add	s5,s4,s2
ee0007dc:	ff579f23          	sh	s5,-2(a5)

ee0007e0 <.L679>:
ee0007e0:	0007de03          	lhu	t3,0(a5)
                for (j=0; j<N; j++) {
ee0007e4:	0789                	addi	a5,a5,2
                        A[i*N+j] += val;
ee0007e6:	01ca0b33          	add	s6,s4,t3
ee0007ea:	ff679f23          	sh	s6,-2(a5)

ee0007ee <.L678>:
ee0007ee:	0007dc03          	lhu	s8,0(a5)
                for (j=0; j<N; j++) {
ee0007f2:	0789                	addi	a5,a5,2
                        A[i*N+j] += val;
ee0007f4:	018a0cb3          	add	s9,s4,s8
ee0007f8:	ff979f23          	sh	s9,-2(a5)
                for (j=0; j<N; j++) {
ee0007fc:	06f68563          	beq	a3,a5,ee000866 <.L864>

ee000800 <.L250>:
                        A[i*N+j] += val;
ee000800:	0007dd03          	lhu	s10,0(a5)
ee000804:	0027dd83          	lhu	s11,2(a5)
ee000808:	0047d083          	lhu	ra,4(a5)
ee00080c:	0067df83          	lhu	t6,6(a5)
ee000810:	0087df03          	lhu	t5,8(a5)
ee000814:	00a7de83          	lhu	t4,10(a5)
ee000818:	00c7d903          	lhu	s2,12(a5)
ee00081c:	00e7d703          	lhu	a4,14(a5)
ee000820:	01aa0433          	add	s0,s4,s10
ee000824:	01ba03b3          	add	t2,s4,s11
ee000828:	001a02b3          	add	t0,s4,ra
ee00082c:	01fa0ab3          	add	s5,s4,t6
ee000830:	01ea0b33          	add	s6,s4,t5
ee000834:	01da0c33          	add	s8,s4,t4
ee000838:	012a0e33          	add	t3,s4,s2
ee00083c:	00ea0cb3          	add	s9,s4,a4
ee000840:	00879023          	sh	s0,0(a5)
ee000844:	00779123          	sh	t2,2(a5)
ee000848:	00579223          	sh	t0,4(a5)
ee00084c:	01579323          	sh	s5,6(a5)
ee000850:	01679423          	sh	s6,8(a5)
ee000854:	01879523          	sh	s8,10(a5)
ee000858:	01c79623          	sh	t3,12(a5)
ee00085c:	01979723          	sh	s9,14(a5)
                for (j=0; j<N; j++) {
ee000860:	07c1                	addi	a5,a5,16
ee000862:	f8f69fe3          	bne	a3,a5,ee000800 <.L250>

ee000866 <.L864>:
        for (i=0; i<N; i++) {
ee000866:	00158e13          	addi	t3,a1,1

ee00086a <.LVL262>:
ee00086a:	40a306b3          	sub	a3,t1,a0
ee00086e:	01c98463          	beq	s3,t3,ee000876 <.L251>
ee000872:	85f2                	mv	a1,t3
ee000874:	b5cd                	j	ee000756 <.L249>

ee000876 <.L251>:
ee000876:	4292                	lw	t0,4(sp)

ee000878 <.LBB373>:
                        C[i*N+j]=(MATRES)A[i*N+j] * (MATRES)val;
ee000878:	4f01                	li	t5,0
ee00087a:	4f81                	li	t6,0

ee00087c <.L253>:
                for (j=0; j<N; j++) {
ee00087c:	01160333          	add	t1,a2,a7
ee000880:	406607b3          	sub	a5,a2,t1
ee000884:	ffe78d13          	addi	s10,a5,-2
ee000888:	001d5d93          	srli	s11,s10,0x1
ee00088c:	001d8093          	addi	ra,s11,1
ee000890:	002f1e93          	slli	t4,t5,0x2
ee000894:	0070f913          	andi	s2,ra,7
ee000898:	005e87b3          	add	a5,t4,t0

ee00089c <.LBB376>:
ee00089c:	871a                	mv	a4,t1
ee00089e:	08090f63          	beqz	s2,ee00093c <.L252>
ee0008a2:	4405                	li	s0,1
ee0008a4:	08890263          	beq	s2,s0,ee000928 <.L684>
ee0008a8:	4389                	li	t2,2
ee0008aa:	06790763          	beq	s2,t2,ee000918 <.L685>
ee0008ae:	4a8d                	li	s5,3
ee0008b0:	05590c63          	beq	s2,s5,ee000908 <.L686>
ee0008b4:	4b11                	li	s6,4
ee0008b6:	05690163          	beq	s2,s6,ee0008f8 <.L687>
ee0008ba:	4c15                	li	s8,5
ee0008bc:	03890663          	beq	s2,s8,ee0008e8 <.L688>
ee0008c0:	4c99                	li	s9,6
ee0008c2:	01990b63          	beq	s2,s9,ee0008d8 <.L689>

ee0008c6 <.LBB377>:
                        C[i*N+j]=(MATRES)A[i*N+j] * (MATRES)val;
ee0008c6:	00031683          	lh	a3,0(t1)
                for (j=0; j<N; j++) {
ee0008ca:	00230713          	addi	a4,t1,2
ee0008ce:	0791                	addi	a5,a5,4
                        C[i*N+j]=(MATRES)A[i*N+j] * (MATRES)val;
ee0008d0:	03068d33          	mul	s10,a3,a6
ee0008d4:	ffa7ae23          	sw	s10,-4(a5)

ee0008d8 <.L689>:
ee0008d8:	00071d83          	lh	s11,0(a4)
                for (j=0; j<N; j++) {
ee0008dc:	0791                	addi	a5,a5,4
ee0008de:	0709                	addi	a4,a4,2
                        C[i*N+j]=(MATRES)A[i*N+j] * (MATRES)val;
ee0008e0:	030d80b3          	mul	ra,s11,a6
ee0008e4:	fe17ae23          	sw	ra,-4(a5)

ee0008e8 <.L688>:
ee0008e8:	00071e83          	lh	t4,0(a4)
                for (j=0; j<N; j++) {
ee0008ec:	0791                	addi	a5,a5,4
ee0008ee:	0709                	addi	a4,a4,2
                        C[i*N+j]=(MATRES)A[i*N+j] * (MATRES)val;
ee0008f0:	030e8933          	mul	s2,t4,a6
ee0008f4:	ff27ae23          	sw	s2,-4(a5)

ee0008f8 <.L687>:
ee0008f8:	00071403          	lh	s0,0(a4)
                for (j=0; j<N; j++) {
ee0008fc:	0791                	addi	a5,a5,4
ee0008fe:	0709                	addi	a4,a4,2
                        C[i*N+j]=(MATRES)A[i*N+j] * (MATRES)val;
ee000900:	030403b3          	mul	t2,s0,a6
ee000904:	fe77ae23          	sw	t2,-4(a5)

ee000908 <.L686>:
ee000908:	00071a83          	lh	s5,0(a4)
                for (j=0; j<N; j++) {
ee00090c:	0791                	addi	a5,a5,4
ee00090e:	0709                	addi	a4,a4,2
                        C[i*N+j]=(MATRES)A[i*N+j] * (MATRES)val;
ee000910:	030a8b33          	mul	s6,s5,a6
ee000914:	ff67ae23          	sw	s6,-4(a5)

ee000918 <.L685>:
ee000918:	00071c03          	lh	s8,0(a4)
                for (j=0; j<N; j++) {
ee00091c:	0791                	addi	a5,a5,4
ee00091e:	0709                	addi	a4,a4,2
                        C[i*N+j]=(MATRES)A[i*N+j] * (MATRES)val;
ee000920:	030c0cb3          	mul	s9,s8,a6
ee000924:	ff97ae23          	sw	s9,-4(a5)

ee000928 <.L684>:
ee000928:	00071683          	lh	a3,0(a4)
                for (j=0; j<N; j++) {
ee00092c:	0791                	addi	a5,a5,4
ee00092e:	0709                	addi	a4,a4,2
                        C[i*N+j]=(MATRES)A[i*N+j] * (MATRES)val;
ee000930:	03068d33          	mul	s10,a3,a6
ee000934:	ffa7ae23          	sw	s10,-4(a5)
                for (j=0; j<N; j++) {
ee000938:	06e60763          	beq	a2,a4,ee0009a6 <.L863>

ee00093c <.L252>:
                        C[i*N+j]=(MATRES)A[i*N+j] * (MATRES)val;
ee00093c:	00071d83          	lh	s11,0(a4)
ee000940:	00271083          	lh	ra,2(a4)
ee000944:	00471a83          	lh	s5,4(a4)
ee000948:	00671903          	lh	s2,6(a4)
ee00094c:	00871403          	lh	s0,8(a4)
ee000950:	00a71383          	lh	t2,10(a4)
ee000954:	00c71e83          	lh	t4,12(a4)
ee000958:	00e71c83          	lh	s9,14(a4)
ee00095c:	030d8c33          	mul	s8,s11,a6
                for (j=0; j<N; j++) {
ee000960:	0741                	addi	a4,a4,16
ee000962:	02078793          	addi	a5,a5,32
                        C[i*N+j]=(MATRES)A[i*N+j] * (MATRES)val;
ee000966:	03008b33          	mul	s6,ra,a6
ee00096a:	ff87a023          	sw	s8,-32(a5)
ee00096e:	030a86b3          	mul	a3,s5,a6
ee000972:	ff67a223          	sw	s6,-28(a5)
ee000976:	03090d33          	mul	s10,s2,a6
ee00097a:	fed7a423          	sw	a3,-24(a5)
ee00097e:	03040db3          	mul	s11,s0,a6
ee000982:	ffa7a623          	sw	s10,-20(a5)
ee000986:	030380b3          	mul	ra,t2,a6
ee00098a:	ffb7a823          	sw	s11,-16(a5)
ee00098e:	030e8ab3          	mul	s5,t4,a6
ee000992:	fe17aa23          	sw	ra,-12(a5)
ee000996:	030c8933          	mul	s2,s9,a6
ee00099a:	ff57ac23          	sw	s5,-8(a5)
ee00099e:	ff27ae23          	sw	s2,-4(a5)
                for (j=0; j<N; j++) {
ee0009a2:	f8e61de3          	bne	a2,a4,ee00093c <.L252>

ee0009a6 <.L863>:
        for (i=0; i<N; i++) {
ee0009a6:	001f8713          	addi	a4,t6,1 # ffff8001 <STACK+0xffafa51>

ee0009aa <.LVL265>:
ee0009aa:	9f72                	add	t5,t5,t3
ee0009ac:	40a30633          	sub	a2,t1,a0
ee0009b0:	01f58463          	beq	a1,t6,ee0009b8 <.L871>
ee0009b4:	8fba                	mv	t6,a4
ee0009b6:	b5d9                	j	ee00087c <.L253>

ee0009b8 <.L871>:
ee0009b8:	4792                	lw	a5,4(sp)
ee0009ba:	002e1f93          	slli	t6,t3,0x2
ee0009be:	41c00333          	neg	t1,t3
ee0009c2:	01f78733          	add	a4,a5,t6

ee0009c6 <.LBB378>:
                        if (tmp>clipval) {
ee0009c6:	4d81                	li	s11,0
ee0009c8:	4e01                	li	t3,0
ee0009ca:	4601                	li	a2,0
ee0009cc:	4801                	li	a6,0

ee0009ce <.LBB385>:
        for (i=0; i<N; i++) {
ee0009ce:	00331693          	slli	a3,t1,0x3

ee0009d2 <.L254>:
                for (j=0; j<N; j++) {
ee0009d2:	00a702b3          	add	t0,a4,a0
ee0009d6:	405708b3          	sub	a7,a4,t0
ee0009da:	ffc88413          	addi	s0,a7,-4
ee0009de:	00245393          	srli	t2,s0,0x2
ee0009e2:	00138e93          	addi	t4,t2,1
ee0009e6:	003efc93          	andi	s9,t4,3
        for (i=0; i<N; i++) {
ee0009ea:	8f16                	mv	t5,t0
ee0009ec:	100c8e63          	beqz	s9,ee000b08 <.L258>
ee0009f0:	4c05                	li	s8,1
ee0009f2:	058c8963          	beq	s9,s8,ee000a44 <.L690>
ee0009f6:	4b09                	li	s6,2
ee0009f8:	036c8463          	beq	s9,s6,ee000a20 <.L691>

ee0009fc <.LVL268>:
                        cur=C[i*N+j];
ee0009fc:	8d72                	mv	s10,t3

ee0009fe <.LVL269>:
ee0009fe:	0002ae03          	lw	t3,0(t0)

ee000a02 <.LVL270>:
                                ret+=10;
ee000a02:	0dc2                	slli	s11,s11,0x10
ee000a04:	010dd093          	srli	ra,s11,0x10
                        tmp+=cur;
ee000a08:	9672                	add	a2,a2,t3

ee000a0a <.LVL271>:
                        if (tmp>clipval) {
ee000a0a:	1cc4d163          	bge	s1,a2,ee000bcc <.L851>
                                ret+=10;
ee000a0e:	00a08f93          	addi	t6,ra,10

ee000a12 <.LVL272>:
ee000a12:	010f9313          	slli	t1,t6,0x10
ee000a16:	41035d93          	srai	s11,t1,0x10

ee000a1a <.LVL273>:
                                tmp=0;
ee000a1a:	4601                	li	a2,0

ee000a1c <.L852>:
                for (j=0; j<N; j++) {
ee000a1c:	00428f13          	addi	t5,t0,4

ee000a20 <.L691>:
                        cur=C[i*N+j];
ee000a20:	88f2                	mv	a7,t3

ee000a22 <.LVL276>:
ee000a22:	000f2e03          	lw	t3,0(t5)

ee000a26 <.LVL277>:
                                ret+=10;
ee000a26:	010d9793          	slli	a5,s11,0x10
ee000a2a:	0107d413          	srli	s0,a5,0x10
                        tmp+=cur;
ee000a2e:	9672                	add	a2,a2,t3

ee000a30 <.LVL278>:
                        if (tmp>clipval) {
ee000a30:	18c4d563          	bge	s1,a2,ee000bba <.L853>
                                ret+=10;
ee000a34:	00a40613          	addi	a2,s0,10

ee000a38 <.LVL279>:
ee000a38:	01061c13          	slli	s8,a2,0x10
ee000a3c:	410c5d93          	srai	s11,s8,0x10

ee000a40 <.LVL280>:
                                tmp=0;
ee000a40:	4601                	li	a2,0

ee000a42 <.L854>:
                for (j=0; j<N; j++) {
ee000a42:	0f11                	addi	t5,t5,4

ee000a44 <.L690>:
                        cur=C[i*N+j];
ee000a44:	8b72                	mv	s6,t3

ee000a46 <.LVL283>:
ee000a46:	000f2e03          	lw	t3,0(t5)

ee000a4a <.LVL284>:
                                ret+=10;
ee000a4a:	010d9d13          	slli	s10,s11,0x10
ee000a4e:	010d5d93          	srli	s11,s10,0x10
                        tmp+=cur;
ee000a52:	9672                	add	a2,a2,t3

ee000a54 <.LVL285>:
                        if (tmp>clipval) {
ee000a54:	14c4d663          	bge	s1,a2,ee000ba0 <.L855>
                                ret+=10;
ee000a58:	00ad8313          	addi	t1,s11,10
ee000a5c:	01031893          	slli	a7,t1,0x10
ee000a60:	01031793          	slli	a5,t1,0x10
ee000a64:	0108d393          	srli	t2,a7,0x10

ee000a68 <.LVL286>:
ee000a68:	4107dd93          	srai	s11,a5,0x10

ee000a6c <.LVL287>:
                                tmp=0;
ee000a6c:	4601                	li	a2,0

ee000a6e <.L856>:
                for (j=0; j<N; j++) {
ee000a6e:	0f11                	addi	t5,t5,4

ee000a70 <.LVL289>:
ee000a70:	09e71c63          	bne	a4,t5,ee000b08 <.L258>

ee000a74 <.L857>:
        for (i=0; i<N; i++) {
ee000a74:	00180d13          	addi	s10,a6,1

ee000a78 <.LVL290>:
ee000a78:	40d28733          	sub	a4,t0,a3
ee000a7c:	17058163          	beq	a1,a6,ee000bde <.L872>
ee000a80:	886a                	mv	a6,s10
ee000a82:	bf81                	j	ee0009d2 <.L254>

ee000a84 <.L874>:
                                ret += (cur>prev) ? 1 : 0;
ee000a84:	008e2e33          	slt	t3,t3,s0
                        cur=C[i*N+j];
ee000a88:	004f2083          	lw	ra,4(t5)
                                ret += (cur>prev) ? 1 : 0;
ee000a8c:	01ce8cb3          	add	s9,t4,t3
ee000a90:	010c9c13          	slli	s8,s9,0x10
ee000a94:	410c5d13          	srai	s10,s8,0x10
                                ret+=10;
ee000a98:	010d1a93          	slli	s5,s10,0x10
                        tmp+=cur;
ee000a9c:	001d8fb3          	add	t6,s11,ra
                for (j=0; j<N; j++) {
ee000aa0:	0f11                	addi	t5,t5,4
                                ret+=10;
ee000aa2:	010ad913          	srli	s2,s5,0x10
                        if (tmp>clipval) {
ee000aa6:	09f4dd63          	bge	s1,t6,ee000b40 <.L873>

ee000aaa <.L630>:
                        cur=C[i*N+j];
ee000aaa:	004f2c83          	lw	s9,4(t5)
                                ret+=10;
ee000aae:	00a90393          	addi	t2,s2,10
ee000ab2:	01039e93          	slli	t4,t2,0x10
ee000ab6:	410ed413          	srai	s0,t4,0x10

ee000aba <.LVL292>:
                                tmp=0;
ee000aba:	4f81                	li	t6,0

ee000abc <.LVL293>:
                                ret+=10;
ee000abc:	01041e13          	slli	t3,s0,0x10
                        tmp+=cur;
ee000ac0:	019f8633          	add	a2,t6,s9
                                ret+=10;
ee000ac4:	010e5c13          	srli	s8,t3,0x10
                        if (tmp>clipval) {
ee000ac8:	08c4de63          	bge	s1,a2,ee000b64 <.L859>

ee000acc <.L875>:
                        cur=C[i*N+j];
ee000acc:	008f2e03          	lw	t3,8(t5)
                                ret+=10;
ee000ad0:	00ac0a93          	addi	s5,s8,10
ee000ad4:	010a9913          	slli	s2,s5,0x10
ee000ad8:	41095093          	srai	ra,s2,0x10

ee000adc <.LVL294>:
                                tmp=0;
ee000adc:	4601                	li	a2,0

ee000ade <.LVL295>:
                                ret+=10;
ee000ade:	01009f93          	slli	t6,ra,0x10
                        tmp+=cur;
ee000ae2:	9672                	add	a2,a2,t3

ee000ae4 <.LVL296>:
                                ret+=10;
ee000ae4:	010fd313          	srli	t1,t6,0x10
                        if (tmp>clipval) {
ee000ae8:	08c4df63          	bge	s1,a2,ee000b86 <.L861>

ee000aec <.L876>:
                                ret+=10;
ee000aec:	00a30c93          	addi	s9,t1,10
ee000af0:	010c9c13          	slli	s8,s9,0x10
ee000af4:	010c9b13          	slli	s6,s9,0x10
ee000af8:	010c5393          	srli	t2,s8,0x10
ee000afc:	410b5d93          	srai	s11,s6,0x10

ee000b00 <.LVL298>:
                                tmp=0;
ee000b00:	4601                	li	a2,0

ee000b02 <.L862>:
                for (j=0; j<N; j++) {
ee000b02:	0f31                	addi	t5,t5,12
ee000b04:	f7e708e3          	beq	a4,t5,ee000a74 <.L857>

ee000b08 <.L258>:
                        cur=C[i*N+j];
ee000b08:	000f2403          	lw	s0,0(t5)
                                ret+=10;
ee000b0c:	010d9393          	slli	t2,s11,0x10
ee000b10:	0103de93          	srli	t4,t2,0x10
                        tmp+=cur;
ee000b14:	00860db3          	add	s11,a2,s0
                        if (tmp>clipval) {
ee000b18:	f7b4d6e3          	bge	s1,s11,ee000a84 <.L874>
                        cur=C[i*N+j];
ee000b1c:	004f2083          	lw	ra,4(t5)
                                ret+=10;
ee000b20:	00ae8613          	addi	a2,t4,10
ee000b24:	01061b13          	slli	s6,a2,0x10
ee000b28:	410b5d13          	srai	s10,s6,0x10

ee000b2c <.LVL301>:
                                tmp=0;
ee000b2c:	4d81                	li	s11,0

ee000b2e <.LVL302>:
                                ret+=10;
ee000b2e:	010d1a93          	slli	s5,s10,0x10
                        tmp+=cur;
ee000b32:	001d8fb3          	add	t6,s11,ra
                for (j=0; j<N; j++) {
ee000b36:	0f11                	addi	t5,t5,4
                                ret+=10;
ee000b38:	010ad913          	srli	s2,s5,0x10
                        if (tmp>clipval) {
ee000b3c:	f7f4c7e3          	blt	s1,t6,ee000aaa <.L630>

ee000b40 <.L873>:
                                ret += (cur>prev) ? 1 : 0;
ee000b40:	00142333          	slt	t1,s0,ra
                        cur=C[i*N+j];
ee000b44:	004f2c83          	lw	s9,4(t5)
                                ret += (cur>prev) ? 1 : 0;
ee000b48:	006908b3          	add	a7,s2,t1
ee000b4c:	01089793          	slli	a5,a7,0x10
ee000b50:	4107d413          	srai	s0,a5,0x10
                                ret+=10;
ee000b54:	01041e13          	slli	t3,s0,0x10
                        tmp+=cur;
ee000b58:	019f8633          	add	a2,t6,s9
                                ret+=10;
ee000b5c:	010e5c13          	srli	s8,t3,0x10
                        if (tmp>clipval) {
ee000b60:	f6c4c6e3          	blt	s1,a2,ee000acc <.L875>

ee000b64 <.L859>:
                                ret += (cur>prev) ? 1 : 0;
ee000b64:	0190ab33          	slt	s6,ra,s9
                        cur=C[i*N+j];
ee000b68:	008f2e03          	lw	t3,8(t5)
                                ret += (cur>prev) ? 1 : 0;
ee000b6c:	016c0d33          	add	s10,s8,s6
ee000b70:	010d1d93          	slli	s11,s10,0x10
ee000b74:	410dd093          	srai	ra,s11,0x10

ee000b78 <.LVL303>:
                                ret+=10;
ee000b78:	01009f93          	slli	t6,ra,0x10
                        tmp+=cur;
ee000b7c:	9672                	add	a2,a2,t3

ee000b7e <.LVL304>:
                                ret+=10;
ee000b7e:	010fd313          	srli	t1,t6,0x10
                        if (tmp>clipval) {
ee000b82:	f6c4c5e3          	blt	s1,a2,ee000aec <.L876>

ee000b86 <.L861>:
                                ret += (cur>prev) ? 1 : 0;
ee000b86:	01cca8b3          	slt	a7,s9,t3
ee000b8a:	011307b3          	add	a5,t1,a7
ee000b8e:	01079413          	slli	s0,a5,0x10
ee000b92:	01079e93          	slli	t4,a5,0x10
ee000b96:	01045393          	srli	t2,s0,0x10
ee000b9a:	410edd93          	srai	s11,t4,0x10
ee000b9e:	b795                	j	ee000b02 <.L862>

ee000ba0 <.L855>:
ee000ba0:	01cb20b3          	slt	ra,s6,t3
ee000ba4:	001d8ab3          	add	s5,s11,ra
ee000ba8:	010a9913          	slli	s2,s5,0x10
ee000bac:	010a9f93          	slli	t6,s5,0x10
ee000bb0:	01095393          	srli	t2,s2,0x10

ee000bb4 <.LVL305>:
ee000bb4:	410fdd93          	srai	s11,t6,0x10
ee000bb8:	bd5d                	j	ee000a6e <.L856>

ee000bba <.L853>:
ee000bba:	01c8a3b3          	slt	t2,a7,t3
ee000bbe:	00740eb3          	add	t4,s0,t2

ee000bc2 <.LVL307>:
ee000bc2:	010e9c93          	slli	s9,t4,0x10
ee000bc6:	410cdd93          	srai	s11,s9,0x10
ee000bca:	bda5                	j	ee000a42 <.L854>

ee000bcc <.L851>:
ee000bcc:	01cd2ab3          	slt	s5,s10,t3
ee000bd0:	01508933          	add	s2,ra,s5

ee000bd4 <.LVL309>:
ee000bd4:	01091f13          	slli	t5,s2,0x10
ee000bd8:	410f5d93          	srai	s11,t5,0x10
ee000bdc:	b581                	j	ee000a1c <.L852>

ee000bde <.L872>:
                   crc &= 0x7fff;
    }
        return crc;
}
ee_u16 crcu16(ee_u16 newval, ee_u16 crc) {
        crc=crcu8( (ee_u8) (newval)                             ,crc);
ee000bde:	0ffdf813          	andi	a6,s11,255

ee000be2 <.LBB391>:
                crc >>= 1;
ee000be2:	00187293          	andi	t0,a6,1
ee000be6:	6aa9                	lui	s5,0xa
ee000be8:	405000b3          	neg	ra,t0
ee000bec:	001a8913          	addi	s2,s5,1 # a001 <.LLST161+0x75>
ee000bf0:	00197e33          	and	t3,s2,ra

ee000bf4 <.LVL311>:
                data >>= 1;
ee000bf4:	00185f93          	srli	t6,a6,0x1
                x16 = (ee_u8)((data & 1) ^ ((ee_u8)crc & 1));
ee000bf8:	01cfc333          	xor	t1,t6,t3
                if (x16 == 1)
ee000bfc:	00137613          	andi	a2,t1,1

ee000c00 <.LBE391>:
        crc=crcu8( (ee_u8) ((newval)>>8)        ,crc);
ee000c00:	0083d713          	srli	a4,t2,0x8

ee000c04 <.LBB396>:
                data >>= 1;
ee000c04:	00285693          	srli	a3,a6,0x2

ee000c08 <.LVL313>:
                crc >>= 1;
ee000c08:	001e5793          	srli	a5,t3,0x1
                if (x16 == 1)
ee000c0c:	ca09                	beqz	a2,ee000c1e <.L248>

ee000c0e <.LVL314>:
                   crc |= 0x8000;
ee000c0e:	78e9                	lui	a7,0xffffa
ee000c10:	00188413          	addi	s0,a7,1 # ffffa001 <STACK+0xffb1a51>
ee000c14:	8fa1                	xor	a5,a5,s0
ee000c16:	01079393          	slli	t2,a5,0x10
ee000c1a:	0103d793          	srli	a5,t2,0x10

ee000c1e <.L248>:
                x16 = (ee_u8)((data & 1) ^ ((ee_u8)crc & 1));
ee000c1e:	00f6ceb3          	xor	t4,a3,a5
                if (x16 == 1)
ee000c22:	001efc93          	andi	s9,t4,1
                data >>= 1;
ee000c26:	0016dc13          	srli	s8,a3,0x1

ee000c2a <.LVL317>:
                crc >>= 1;
ee000c2a:	0017d593          	srli	a1,a5,0x1
                if (x16 == 1)
ee000c2e:	000c8b63          	beqz	s9,ee000c44 <.L260>

ee000c32 <.LVL318>:
                   crc |= 0x8000;
ee000c32:	7b69                	lui	s6,0xffffa
ee000c34:	001b0f13          	addi	t5,s6,1 # ffffa001 <STACK+0xffb1a51>
ee000c38:	01e5cdb3          	xor	s11,a1,t5

ee000c3c <.LVL319>:
ee000c3c:	010d9513          	slli	a0,s11,0x10
ee000c40:	01055593          	srli	a1,a0,0x10

ee000c44 <.L260>:
                x16 = (ee_u8)((data & 1) ^ ((ee_u8)crc & 1));
ee000c44:	00bc4d33          	xor	s10,s8,a1
                if (x16 == 1)
ee000c48:	001d7813          	andi	a6,s10,1
                data >>= 1;
ee000c4c:	0026d293          	srli	t0,a3,0x2

ee000c50 <.LVL321>:
                crc >>= 1;
ee000c50:	0015df93          	srli	t6,a1,0x1
                if (x16 == 1)
ee000c54:	00080b63          	beqz	a6,ee000c6a <.L261>

ee000c58 <.LVL322>:
                   crc |= 0x8000;
ee000c58:	70e9                	lui	ra,0xffffa
ee000c5a:	00108a93          	addi	s5,ra,1 # ffffa001 <STACK+0xffb1a51>
ee000c5e:	015fc933          	xor	s2,t6,s5

ee000c62 <.LVL323>:
ee000c62:	01091e13          	slli	t3,s2,0x10
ee000c66:	010e5f93          	srli	t6,t3,0x10

ee000c6a <.L261>:
                x16 = (ee_u8)((data & 1) ^ ((ee_u8)crc & 1));
ee000c6a:	005fc333          	xor	t1,t6,t0
                if (x16 == 1)
ee000c6e:	00137893          	andi	a7,t1,1
                data >>= 1;
ee000c72:	0036d613          	srli	a2,a3,0x3

ee000c76 <.LVL325>:
                crc >>= 1;
ee000c76:	001fdc93          	srli	s9,t6,0x1
                if (x16 == 1)
ee000c7a:	00088b63          	beqz	a7,ee000c90 <.L262>

ee000c7e <.LVL326>:
                   crc |= 0x8000;
ee000c7e:	7469                	lui	s0,0xffffa
ee000c80:	00140793          	addi	a5,s0,1 # ffffa001 <STACK+0xffb1a51>
ee000c84:	00fcc3b3          	xor	t2,s9,a5

ee000c88 <.LVL327>:
ee000c88:	01039e93          	slli	t4,t2,0x10
ee000c8c:	010edc93          	srli	s9,t4,0x10

ee000c90 <.L262>:
                x16 = (ee_u8)((data & 1) ^ ((ee_u8)crc & 1));
ee000c90:	01964c33          	xor	s8,a2,s9
                if (x16 == 1)
ee000c94:	001c7b13          	andi	s6,s8,1
                data >>= 1;
ee000c98:	0046df13          	srli	t5,a3,0x4

ee000c9c <.LVL329>:
                crc >>= 1;
ee000c9c:	001cd813          	srli	a6,s9,0x1
                if (x16 == 1)
ee000ca0:	000b0b63          	beqz	s6,ee000cb6 <.L263>

ee000ca4 <.LVL330>:
                   crc |= 0x8000;
ee000ca4:	7569                	lui	a0,0xffffa
ee000ca6:	00150593          	addi	a1,a0,1 # ffffa001 <STACK+0xffb1a51>
ee000caa:	00b84db3          	xor	s11,a6,a1

ee000cae <.LVL331>:
ee000cae:	010d9d13          	slli	s10,s11,0x10
ee000cb2:	010d5813          	srli	a6,s10,0x10

ee000cb6 <.L263>:
                x16 = (ee_u8)((data & 1) ^ ((ee_u8)crc & 1));
ee000cb6:	01e842b3          	xor	t0,a6,t5
                if (x16 == 1)
ee000cba:	0012f093          	andi	ra,t0,1
                data >>= 1;
ee000cbe:	8295                	srli	a3,a3,0x5

ee000cc0 <.LVL333>:
                crc >>= 1;
ee000cc0:	00185313          	srli	t1,a6,0x1
                if (x16 == 1)
ee000cc4:	00008b63          	beqz	ra,ee000cda <.L264>

ee000cc8 <.LVL334>:
                   crc |= 0x8000;
ee000cc8:	7ae9                	lui	s5,0xffffa
ee000cca:	001a8913          	addi	s2,s5,1 # ffffa001 <STACK+0xffb1a51>
ee000cce:	01234e33          	xor	t3,t1,s2

ee000cd2 <.LVL335>:
ee000cd2:	010e1f93          	slli	t6,t3,0x10
ee000cd6:	010fd313          	srli	t1,t6,0x10

ee000cda <.L264>:
                if (x16 == 1)
ee000cda:	00137893          	andi	a7,t1,1
                crc >>= 1;
ee000cde:	00135e93          	srli	t4,t1,0x1
                if (x16 == 1)
ee000ce2:	00d88b63          	beq	a7,a3,ee000cf8 <.L265>

ee000ce6 <.LVL337>:
                   crc |= 0x8000;
ee000ce6:	7669                	lui	a2,0xffffa
ee000ce8:	00160413          	addi	s0,a2,1 # ffffa001 <STACK+0xffb1a51>
ee000cec:	008ec7b3          	xor	a5,t4,s0

ee000cf0 <.LVL338>:
ee000cf0:	01079393          	slli	t2,a5,0x10
ee000cf4:	0103de93          	srli	t4,t2,0x10

ee000cf8 <.L265>:
                x16 = (ee_u8)((data & 1) ^ ((ee_u8)crc & 1));
ee000cf8:	01d74cb3          	xor	s9,a4,t4
                if (x16 == 1)
ee000cfc:	001cfc13          	andi	s8,s9,1
                data >>= 1;
ee000d00:	00175b13          	srli	s6,a4,0x1

ee000d04 <.LVL340>:
                if (x16 == 1)
ee000d04:	001edd13          	srli	s10,t4,0x1
ee000d08:	000c0b63          	beqz	s8,ee000d1e <.L266>

ee000d0c <.LVL341>:
                   crc |= 0x8000;
ee000d0c:	7f69                	lui	t5,0xffffa
ee000d0e:	001f0513          	addi	a0,t5,1 # ffffa001 <STACK+0xffb1a51>
ee000d12:	00ad45b3          	xor	a1,s10,a0

ee000d16 <.LVL342>:
ee000d16:	01059d93          	slli	s11,a1,0x10
ee000d1a:	010ddd13          	srli	s10,s11,0x10

ee000d1e <.L266>:
                x16 = (ee_u8)((data & 1) ^ ((ee_u8)crc & 1));
ee000d1e:	01ab4833          	xor	a6,s6,s10
                if (x16 == 1)
ee000d22:	00187293          	andi	t0,a6,1
                data >>= 1;
ee000d26:	00275093          	srli	ra,a4,0x2

ee000d2a <.LVL344>:
                if (x16 == 1)
ee000d2a:	001d5f93          	srli	t6,s10,0x1
ee000d2e:	00028b63          	beqz	t0,ee000d44 <.L267>

ee000d32 <.LVL345>:
                   crc |= 0x8000;
ee000d32:	76e9                	lui	a3,0xffffa
ee000d34:	00168a93          	addi	s5,a3,1 # ffffa001 <STACK+0xffb1a51>
ee000d38:	015fc933          	xor	s2,t6,s5

ee000d3c <.LVL346>:
ee000d3c:	01091e13          	slli	t3,s2,0x10
ee000d40:	010e5f93          	srli	t6,t3,0x10

ee000d44 <.L267>:
                x16 = (ee_u8)((data & 1) ^ ((ee_u8)crc & 1));
ee000d44:	001fc333          	xor	t1,t6,ra
                if (x16 == 1)
ee000d48:	00137893          	andi	a7,t1,1
                data >>= 1;
ee000d4c:	00375613          	srli	a2,a4,0x3

ee000d50 <.LVL348>:
                if (x16 == 1)
ee000d50:	001fdc93          	srli	s9,t6,0x1
ee000d54:	00088b63          	beqz	a7,ee000d6a <.L268>

ee000d58 <.LVL349>:
                   crc |= 0x8000;
ee000d58:	7469                	lui	s0,0xffffa
ee000d5a:	00140793          	addi	a5,s0,1 # ffffa001 <STACK+0xffb1a51>
ee000d5e:	00fcc3b3          	xor	t2,s9,a5

ee000d62 <.LVL350>:
ee000d62:	01039e93          	slli	t4,t2,0x10
ee000d66:	010edc93          	srli	s9,t4,0x10

ee000d6a <.L268>:
                x16 = (ee_u8)((data & 1) ^ ((ee_u8)crc & 1));
ee000d6a:	00cccc33          	xor	s8,s9,a2
                if (x16 == 1)
ee000d6e:	001c7b13          	andi	s6,s8,1
                data >>= 1;
ee000d72:	00475f13          	srli	t5,a4,0x4

ee000d76 <.LVL352>:
                if (x16 == 1)
ee000d76:	001cd813          	srli	a6,s9,0x1
ee000d7a:	000b0b63          	beqz	s6,ee000d90 <.L269>

ee000d7e <.LVL353>:
                   crc |= 0x8000;
ee000d7e:	7569                	lui	a0,0xffffa
ee000d80:	00150593          	addi	a1,a0,1 # ffffa001 <STACK+0xffb1a51>
ee000d84:	00b84db3          	xor	s11,a6,a1

ee000d88 <.LVL354>:
ee000d88:	010d9d13          	slli	s10,s11,0x10
ee000d8c:	010d5813          	srli	a6,s10,0x10

ee000d90 <.L269>:
                x16 = (ee_u8)((data & 1) ^ ((ee_u8)crc & 1));
ee000d90:	010f42b3          	xor	t0,t5,a6
                if (x16 == 1)
ee000d94:	0012f093          	andi	ra,t0,1
                data >>= 1;
ee000d98:	00575693          	srli	a3,a4,0x5

ee000d9c <.LVL356>:
                if (x16 == 1)
ee000d9c:	00185313          	srli	t1,a6,0x1
ee000da0:	00008b63          	beqz	ra,ee000db6 <.L270>

ee000da4 <.LVL357>:
                   crc |= 0x8000;
ee000da4:	7ae9                	lui	s5,0xffffa
ee000da6:	001a8913          	addi	s2,s5,1 # ffffa001 <STACK+0xffb1a51>
ee000daa:	01234e33          	xor	t3,t1,s2

ee000dae <.LVL358>:
ee000dae:	010e1f93          	slli	t6,t3,0x10
ee000db2:	010fd313          	srli	t1,t6,0x10

ee000db6 <.L270>:
                x16 = (ee_u8)((data & 1) ^ ((ee_u8)crc & 1));
ee000db6:	00d348b3          	xor	a7,t1,a3
                if (x16 == 1)
ee000dba:	0018f613          	andi	a2,a7,1
                data >>= 1;
ee000dbe:	00675413          	srli	s0,a4,0x6

ee000dc2 <.LVL360>:
                if (x16 == 1)
ee000dc2:	00135c13          	srli	s8,t1,0x1
ee000dc6:	ca11                	beqz	a2,ee000dda <.L271>

ee000dc8 <.LVL361>:
                   crc |= 0x8000;
ee000dc8:	77e9                	lui	a5,0xffffa
ee000dca:	00178393          	addi	t2,a5,1 # ffffa001 <STACK+0xffb1a51>
ee000dce:	007c4eb3          	xor	t4,s8,t2

ee000dd2 <.LVL362>:
ee000dd2:	010e9c93          	slli	s9,t4,0x10
ee000dd6:	010cdc13          	srli	s8,s9,0x10

ee000dda <.L271>:
                x16 = (ee_u8)((data & 1) ^ ((ee_u8)crc & 1));
ee000dda:	01844b33          	xor	s6,s0,s8
                if (x16 == 1)
ee000dde:	001b7f13          	andi	t5,s6,1
                data >>= 1;
ee000de2:	831d                	srli	a4,a4,0x7

ee000de4 <.LVL364>:
                if (x16 == 1)
ee000de4:	001c5813          	srli	a6,s8,0x1
ee000de8:	000f0b63          	beqz	t5,ee000dfe <.L272>

ee000dec <.LVL365>:
                   crc |= 0x8000;
ee000dec:	7569                	lui	a0,0xffffa
ee000dee:	00150593          	addi	a1,a0,1 # ffffa001 <STACK+0xffb1a51>
ee000df2:	00b84db3          	xor	s11,a6,a1

ee000df6 <.LVL366>:
ee000df6:	010d9d13          	slli	s10,s11,0x10
ee000dfa:	010d5813          	srli	a6,s10,0x10

ee000dfe <.L272>:
                if (x16 == 1)
ee000dfe:	00187293          	andi	t0,a6,1
ee000e02:	00185d93          	srli	s11,a6,0x1
ee000e06:	00e28b63          	beq	t0,a4,ee000e1c <.L273>

ee000e0a <.LVL368>:
                   crc |= 0x8000;
ee000e0a:	70e9                	lui	ra,0xffffa
ee000e0c:	00108693          	addi	a3,ra,1 # ffffa001 <STACK+0xffb1a51>
ee000e10:	00ddcab3          	xor	s5,s11,a3

ee000e14 <.LVL369>:
ee000e14:	010a9913          	slli	s2,s5,0x10
ee000e18:	01095d93          	srli	s11,s2,0x10

ee000e1c <.L273>:
        for (i=0; i<N; i++) {
ee000e1c:	00099463          	bnez	s3,ee000e24 <.L273+0x8>
ee000e20:	3b20106f          	j	ee0021d2 <.L357>
                C[i]=0;
ee000e24:	4c92                	lw	s9,4(sp)
ee000e26:	00299413          	slli	s0,s3,0x2
ee000e2a:	4581                	li	a1,0
ee000e2c:	8622                	mv	a2,s0
ee000e2e:	8566                	mv	a0,s9
ee000e30:	75c060ef          	jal	ra,ee00758c <memset>

ee000e34 <.LVL371>:
ee000e34:	4d32                	lw	s10,12(sp)
ee000e36:	00199313          	slli	t1,s3,0x1
ee000e3a:	8566                	mv	a0,s9
ee000e3c:	019405b3          	add	a1,s0,s9
ee000e40:	017302b3          	add	t0,t1,s7
ee000e44:	4381                	li	t2,0
ee000e46:	c426                	sw	s1,8(sp)

ee000e48 <.L276>:
                for (j=0; j<N; j++) {
ee000e48:	417284b3          	sub	s1,t0,s7
ee000e4c:	ffe48613          	addi	a2,s1,-2 # ffffeffe <STACK+0xffb6a4e>
ee000e50:	00165793          	srli	a5,a2,0x1
ee000e54:	00178e93          	addi	t4,a5,1
ee000e58:	00139c13          	slli	s8,t2,0x1
ee000e5c:	007efb13          	andi	s6,t4,7
ee000e60:	018d06b3          	add	a3,s10,s8
                C[i]=0;
ee000e64:	865e                	mv	a2,s7
ee000e66:	4781                	li	a5,0
ee000e68:	0a0b0563          	beqz	s6,ee000f12 <.L275>

ee000e6c <.LVL373>:
ee000e6c:	4f05                	li	t5,1
ee000e6e:	09eb0763          	beq	s6,t5,ee000efc <.L692>
ee000e72:	4709                	li	a4,2
ee000e74:	06eb0b63          	beq	s6,a4,ee000eea <.L693>
ee000e78:	480d                	li	a6,3
ee000e7a:	050b0f63          	beq	s6,a6,ee000ed8 <.L694>
ee000e7e:	4091                	li	ra,4
ee000e80:	041b0363          	beq	s6,ra,ee000ec6 <.L695>
ee000e84:	4a95                	li	s5,5
ee000e86:	035b0763          	beq	s6,s5,ee000eb4 <.L696>
ee000e8a:	4919                	li	s2,6
ee000e8c:	012b0b63          	beq	s6,s2,ee000ea2 <.L697>

ee000e90 <.LVL374>:
                        C[i]+=(MATRES)A[i*N+j] * (MATRES)B[j];
ee000e90:	00069e03          	lh	t3,0(a3)
ee000e94:	000b9f83          	lh	t6,0(s7)
                for (j=0; j<N; j++) {
ee000e98:	0689                	addi	a3,a3,2
ee000e9a:	002b8613          	addi	a2,s7,2

ee000e9e <.LVL375>:
                        C[i]+=(MATRES)A[i*N+j] * (MATRES)B[j];
ee000e9e:	03fe07b3          	mul	a5,t3,t6

ee000ea2 <.L697>:
ee000ea2:	00069403          	lh	s0,0(a3)
ee000ea6:	00061c83          	lh	s9,0(a2)
                for (j=0; j<N; j++) {
ee000eaa:	0689                	addi	a3,a3,2
ee000eac:	0609                	addi	a2,a2,2
                        C[i]+=(MATRES)A[i*N+j] * (MATRES)B[j];
ee000eae:	03940333          	mul	t1,s0,s9
ee000eb2:	979a                	add	a5,a5,t1

ee000eb4 <.L696>:
ee000eb4:	00069883          	lh	a7,0(a3)
ee000eb8:	00061483          	lh	s1,0(a2)
                for (j=0; j<N; j++) {
ee000ebc:	0689                	addi	a3,a3,2
ee000ebe:	0609                	addi	a2,a2,2
                        C[i]+=(MATRES)A[i*N+j] * (MATRES)B[j];
ee000ec0:	02988eb3          	mul	t4,a7,s1
ee000ec4:	97f6                	add	a5,a5,t4

ee000ec6 <.L695>:
ee000ec6:	00069c03          	lh	s8,0(a3)
ee000eca:	00061b03          	lh	s6,0(a2)
                for (j=0; j<N; j++) {
ee000ece:	0689                	addi	a3,a3,2
ee000ed0:	0609                	addi	a2,a2,2
                        C[i]+=(MATRES)A[i*N+j] * (MATRES)B[j];
ee000ed2:	036c0f33          	mul	t5,s8,s6
ee000ed6:	97fa                	add	a5,a5,t5

ee000ed8 <.L694>:
ee000ed8:	00069703          	lh	a4,0(a3)
ee000edc:	00061803          	lh	a6,0(a2)
                for (j=0; j<N; j++) {
ee000ee0:	0689                	addi	a3,a3,2
ee000ee2:	0609                	addi	a2,a2,2
                        C[i]+=(MATRES)A[i*N+j] * (MATRES)B[j];
ee000ee4:	030700b3          	mul	ra,a4,a6
ee000ee8:	9786                	add	a5,a5,ra

ee000eea <.L693>:
ee000eea:	00069a83          	lh	s5,0(a3)
ee000eee:	00061903          	lh	s2,0(a2)
                for (j=0; j<N; j++) {
ee000ef2:	0689                	addi	a3,a3,2
ee000ef4:	0609                	addi	a2,a2,2
                        C[i]+=(MATRES)A[i*N+j] * (MATRES)B[j];
ee000ef6:	032a8e33          	mul	t3,s5,s2
ee000efa:	97f2                	add	a5,a5,t3

ee000efc <.L692>:
ee000efc:	00069f83          	lh	t6,0(a3)
ee000f00:	00061403          	lh	s0,0(a2)
                for (j=0; j<N; j++) {
ee000f04:	0609                	addi	a2,a2,2
ee000f06:	0689                	addi	a3,a3,2
                        C[i]+=(MATRES)A[i*N+j] * (MATRES)B[j];
ee000f08:	028f8cb3          	mul	s9,t6,s0
ee000f0c:	97e6                	add	a5,a5,s9
                for (j=0; j<N; j++) {
ee000f0e:	08560563          	beq	a2,t0,ee000f98 <.L850>

ee000f12 <.L275>:
                        C[i]+=(MATRES)A[i*N+j] * (MATRES)B[j];
ee000f12:	00069303          	lh	t1,0(a3)
ee000f16:	00061883          	lh	a7,0(a2)
ee000f1a:	00269083          	lh	ra,2(a3)
ee000f1e:	00261a83          	lh	s5,2(a2)
ee000f22:	03130733          	mul	a4,t1,a7
ee000f26:	00469403          	lh	s0,4(a3)
ee000f2a:	00461c03          	lh	s8,4(a2)
ee000f2e:	00669f03          	lh	t5,6(a3)
ee000f32:	00661b03          	lh	s6,6(a2)
ee000f36:	00869e03          	lh	t3,8(a3)
ee000f3a:	00861903          	lh	s2,8(a2)
ee000f3e:	00a69c83          	lh	s9,10(a3)
ee000f42:	00a61483          	lh	s1,10(a2)
ee000f46:	00c69303          	lh	t1,12(a3)
ee000f4a:	035088b3          	mul	a7,ra,s5
ee000f4e:	00c61f83          	lh	t6,12(a2)
ee000f52:	00e69803          	lh	a6,14(a3)
ee000f56:	00e61e83          	lh	t4,14(a2)
ee000f5a:	97ba                	add	a5,a5,a4
                for (j=0; j<N; j++) {
ee000f5c:	0641                	addi	a2,a2,16
ee000f5e:	06c1                	addi	a3,a3,16
                        C[i]+=(MATRES)A[i*N+j] * (MATRES)B[j];
ee000f60:	038400b3          	mul	ra,s0,s8
ee000f64:	01178ab3          	add	s5,a5,a7
ee000f68:	036f0433          	mul	s0,t5,s6
ee000f6c:	001a8c33          	add	s8,s5,ra
ee000f70:	032e0f33          	mul	t5,t3,s2
ee000f74:	008c0b33          	add	s6,s8,s0
ee000f78:	029c8733          	mul	a4,s9,s1
ee000f7c:	01eb0e33          	add	t3,s6,t5
ee000f80:	03f30933          	mul	s2,t1,t6
ee000f84:	00ee0cb3          	add	s9,t3,a4
ee000f88:	03d804b3          	mul	s1,a6,t4
ee000f8c:	012c8333          	add	t1,s9,s2
ee000f90:	009307b3          	add	a5,t1,s1
                for (j=0; j<N; j++) {
ee000f94:	f6561fe3          	bne	a2,t0,ee000f12 <.L275>

ee000f98 <.L850>:
ee000f98:	c11c                	sw	a5,0(a0)
        for (i=0; i<N; i++) {
ee000f9a:	0511                	addi	a0,a0,4
ee000f9c:	93ce                	add	t2,t2,s3
ee000f9e:	eaa595e3          	bne	a1,a0,ee000e48 <.L276>
ee000fa2:	44a2                	lw	s1,8(sp)
ee000fa4:	413002b3          	neg	t0,s3
ee000fa8:	00229513          	slli	a0,t0,0x2

ee000fac <.LBB412>:
                        if (tmp>clipval) {
ee000fac:	4781                	li	a5,0
ee000fae:	4301                	li	t1,0
ee000fb0:	4801                	li	a6,0
ee000fb2:	4681                	li	a3,0

ee000fb4 <.LBB413>:
        for (i=0; i<N; i++) {
ee000fb4:	00329613          	slli	a2,t0,0x3

ee000fb8 <.L277>:
                for (j=0; j<N; j++) {
ee000fb8:	00b50d33          	add	s10,a0,a1
ee000fbc:	41a58fb3          	sub	t6,a1,s10
ee000fc0:	ffcf8e93          	addi	t4,t6,-4
ee000fc4:	002ed893          	srli	a7,t4,0x2
ee000fc8:	00188093          	addi	ra,a7,1
ee000fcc:	0030fa93          	andi	s5,ra,3

ee000fd0 <.LBB419>:
                        if (tmp>clipval) {
ee000fd0:	88ea                	mv	a7,s10
ee000fd2:	520a8263          	beqz	s5,ee0014f6 <.L280>
ee000fd6:	4405                	li	s0,1
ee000fd8:	048a8963          	beq	s5,s0,ee00102a <.L698>
ee000fdc:	4c09                	li	s8,2
ee000fde:	038a8463          	beq	s5,s8,ee001006 <.L699>

ee000fe2 <.LBB420>:
                        cur=C[i*N+j];
ee000fe2:	8f1a                	mv	t5,t1

ee000fe4 <.LVL378>:
ee000fe4:	000d2303          	lw	t1,0(s10)

ee000fe8 <.LVL379>:
                                ret+=10;
ee000fe8:	07c2                	slli	a5,a5,0x10
ee000fea:	0107db13          	srli	s6,a5,0x10
                        tmp+=cur;
ee000fee:	981a                	add	a6,a6,t1

ee000ff0 <.LVL380>:
                        if (tmp>clipval) {
ee000ff0:	5d04df63          	bge	s1,a6,ee0015ce <.L838>
                                ret+=10;
ee000ff4:	00ab0813          	addi	a6,s6,10

ee000ff8 <.LVL381>:
ee000ff8:	01081c93          	slli	s9,a6,0x10
ee000ffc:	410cd793          	srai	a5,s9,0x10

ee001000 <.LVL382>:
                                tmp=0;
ee001000:	4801                	li	a6,0

ee001002 <.L839>:
                for (j=0; j<N; j++) {
ee001002:	004d0893          	addi	a7,s10,4

ee001006 <.L699>:
                        cur=C[i*N+j];
ee001006:	839a                	mv	t2,t1

ee001008 <.LVL385>:
ee001008:	0008a303          	lw	t1,0(a7)

ee00100c <.LVL386>:
                                ret+=10;
ee00100c:	01079293          	slli	t0,a5,0x10
ee001010:	0102df93          	srli	t6,t0,0x10
                        tmp+=cur;
ee001014:	981a                	add	a6,a6,t1

ee001016 <.LVL387>:
                        if (tmp>clipval) {
ee001016:	5b04d363          	bge	s1,a6,ee0015bc <.L840>
                                ret+=10;
ee00101a:	00af8413          	addi	s0,t6,10

ee00101e <.LVL388>:
ee00101e:	01041c13          	slli	s8,s0,0x10
ee001022:	410c5793          	srai	a5,s8,0x10

ee001026 <.LVL389>:
                                tmp=0;
ee001026:	4801                	li	a6,0

ee001028 <.L841>:
                for (j=0; j<N; j++) {
ee001028:	0891                	addi	a7,a7,4

ee00102a <.L698>:
                        cur=C[i*N+j];
ee00102a:	8f1a                	mv	t5,t1

ee00102c <.LVL392>:
ee00102c:	0008a303          	lw	t1,0(a7)

ee001030 <.LVL393>:
                                ret+=10;
ee001030:	07c2                	slli	a5,a5,0x10
ee001032:	0107db13          	srli	s6,a5,0x10
                        tmp+=cur;
ee001036:	981a                	add	a6,a6,t1

ee001038 <.LVL394>:
                        if (tmp>clipval) {
ee001038:	5704d563          	bge	s1,a6,ee0015a2 <.L842>
                                ret+=10;
ee00103c:	00ab0813          	addi	a6,s6,10
ee001040:	01081393          	slli	t2,a6,0x10
ee001044:	01081293          	slli	t0,a6,0x10
ee001048:	0103de93          	srli	t4,t2,0x10

ee00104c <.LVL395>:
ee00104c:	4102d793          	srai	a5,t0,0x10

ee001050 <.LVL396>:
                                tmp=0;
ee001050:	4801                	li	a6,0

ee001052 <.L843>:
                for (j=0; j<N; j++) {
ee001052:	0891                	addi	a7,a7,4

ee001054 <.LVL398>:
ee001054:	4b159163          	bne	a1,a7,ee0014f6 <.L280>

ee001058 <.L844>:
        for (i=0; i<N; i++) {
ee001058:	0685                	addi	a3,a3,1

ee00105a <.LVL399>:
ee00105a:	40cd05b3          	sub	a1,s10,a2
ee00105e:	f4d99de3          	bne	s3,a3,ee000fb8 <.L277>

ee001062 <.LBB421>:
        crc=crcu8( (ee_u8) (newval)                             ,crc);
ee001062:	0ff7ff93          	andi	t6,a5,255
        crc=crcu8( (ee_u8) ((newval)>>8)        ,crc);
ee001066:	008ede13          	srli	t3,t4,0x8

ee00106a <.L274>:
                x16 = (ee_u8)((data & 1) ^ ((ee_u8)crc & 1));
ee00106a:	01bfcd33          	xor	s10,t6,s11
                if (x16 == 1)
ee00106e:	001d7f13          	andi	t5,s10,1
                data >>= 1;
ee001072:	001fdb13          	srli	s6,t6,0x1

ee001076 <.LVL401>:
                if (x16 == 1)
ee001076:	001dd393          	srli	t2,s11,0x1
ee00107a:	000f0b63          	beqz	t5,ee001090 <.L282>

ee00107e <.LVL402>:
                   crc |= 0x8000;
ee00107e:	7769                	lui	a4,0xffffa
ee001080:	00170913          	addi	s2,a4,1 # ffffa001 <STACK+0xffb1a51>
ee001084:	0123ccb3          	xor	s9,t2,s2

ee001088 <.LVL403>:
ee001088:	010c9313          	slli	t1,s9,0x10
ee00108c:	01035393          	srli	t2,t1,0x10

ee001090 <.L282>:
                x16 = (ee_u8)((data & 1) ^ ((ee_u8)crc & 1));
ee001090:	007b4833          	xor	a6,s6,t2
                if (x16 == 1)
ee001094:	00187293          	andi	t0,a6,1
                data >>= 1;
ee001098:	002fde93          	srli	t4,t6,0x2

ee00109c <.LVL405>:
                if (x16 == 1)
ee00109c:	0013dc13          	srli	s8,t2,0x1
ee0010a0:	00028b63          	beqz	t0,ee0010b6 <.L283>

ee0010a4 <.LVL406>:
                   crc |= 0x8000;
ee0010a4:	70e9                	lui	ra,0xffffa
ee0010a6:	00108a93          	addi	s5,ra,1 # ffffa001 <STACK+0xffb1a51>
ee0010aa:	015c47b3          	xor	a5,s8,s5

ee0010ae <.LVL407>:
ee0010ae:	01079413          	slli	s0,a5,0x10
ee0010b2:	01045c13          	srli	s8,s0,0x10

ee0010b6 <.L283>:
                x16 = (ee_u8)((data & 1) ^ ((ee_u8)crc & 1));
ee0010b6:	018ec8b3          	xor	a7,t4,s8
                if (x16 == 1)
ee0010ba:	0018f513          	andi	a0,a7,1
                data >>= 1;
ee0010be:	003fdd93          	srli	s11,t6,0x3

ee0010c2 <.LVL409>:
                if (x16 == 1)
ee0010c2:	001c5f13          	srli	t5,s8,0x1
ee0010c6:	c911                	beqz	a0,ee0010da <.L284>

ee0010c8 <.LVL410>:
                   crc |= 0x8000;
ee0010c8:	7669                	lui	a2,0xffffa
ee0010ca:	00160693          	addi	a3,a2,1 # ffffa001 <STACK+0xffb1a51>
ee0010ce:	00df45b3          	xor	a1,t5,a3

ee0010d2 <.LVL411>:
ee0010d2:	01059d13          	slli	s10,a1,0x10
ee0010d6:	010d5f13          	srli	t5,s10,0x10

ee0010da <.L284>:
                x16 = (ee_u8)((data & 1) ^ ((ee_u8)crc & 1));
ee0010da:	01edcb33          	xor	s6,s11,t5
                if (x16 == 1)
ee0010de:	001b7713          	andi	a4,s6,1
                data >>= 1;
ee0010e2:	004fd913          	srli	s2,t6,0x4

ee0010e6 <.LVL413>:
                if (x16 == 1)
ee0010e6:	001f5293          	srli	t0,t5,0x1
ee0010ea:	cb11                	beqz	a4,ee0010fe <.L285>

ee0010ec <.LVL414>:
                   crc |= 0x8000;
ee0010ec:	7ce9                	lui	s9,0xffffa
ee0010ee:	001c8313          	addi	t1,s9,1 # ffffa001 <STACK+0xffb1a51>
ee0010f2:	0062c3b3          	xor	t2,t0,t1

ee0010f6 <.LVL415>:
ee0010f6:	01039813          	slli	a6,t2,0x10
ee0010fa:	01085293          	srli	t0,a6,0x10

ee0010fe <.L285>:
                x16 = (ee_u8)((data & 1) ^ ((ee_u8)crc & 1));
ee0010fe:	00594eb3          	xor	t4,s2,t0
                if (x16 == 1)
ee001102:	001ef093          	andi	ra,t4,1
                data >>= 1;
ee001106:	005fda93          	srli	s5,t6,0x5

ee00110a <.LVL417>:
                if (x16 == 1)
ee00110a:	0012d513          	srli	a0,t0,0x1
ee00110e:	00008b63          	beqz	ra,ee001124 <.L286>

ee001112 <.LVL418>:
                   crc |= 0x8000;
ee001112:	7469                	lui	s0,0xffffa
ee001114:	00140c13          	addi	s8,s0,1 # ffffa001 <STACK+0xffb1a51>
ee001118:	018547b3          	xor	a5,a0,s8

ee00111c <.LVL419>:
ee00111c:	01079893          	slli	a7,a5,0x10
ee001120:	0108d513          	srli	a0,a7,0x10

ee001124 <.L286>:
                x16 = (ee_u8)((data & 1) ^ ((ee_u8)crc & 1));
ee001124:	00aacdb3          	xor	s11,s5,a0
                if (x16 == 1)
ee001128:	001df693          	andi	a3,s11,1
                data >>= 1;
ee00112c:	006fd613          	srli	a2,t6,0x6

ee001130 <.LVL421>:
                if (x16 == 1)
ee001130:	00155713          	srli	a4,a0,0x1
ee001134:	ca91                	beqz	a3,ee001148 <.L287>

ee001136 <.LVL422>:
                   crc |= 0x8000;
ee001136:	75e9                	lui	a1,0xffffa
ee001138:	00158d13          	addi	s10,a1,1 # ffffa001 <STACK+0xffb1a51>
ee00113c:	01a74f33          	xor	t5,a4,s10

ee001140 <.LVL423>:
ee001140:	010f1b13          	slli	s6,t5,0x10
ee001144:	010b5713          	srli	a4,s6,0x10

ee001148 <.L287>:
                x16 = (ee_u8)((data & 1) ^ ((ee_u8)crc & 1));
ee001148:	00e64933          	xor	s2,a2,a4
                if (x16 == 1)
ee00114c:	00197c93          	andi	s9,s2,1
                data >>= 1;
ee001150:	007fdf93          	srli	t6,t6,0x7

ee001154 <.LVL425>:
                if (x16 == 1)
ee001154:	00175e93          	srli	t4,a4,0x1
ee001158:	000c8b63          	beqz	s9,ee00116e <.L288>

ee00115c <.LVL426>:
                   crc |= 0x8000;
ee00115c:	7369                	lui	t1,0xffffa
ee00115e:	00130393          	addi	t2,t1,1 # ffffa001 <STACK+0xffb1a51>
ee001162:	007ec833          	xor	a6,t4,t2

ee001166 <.LVL427>:
ee001166:	01081293          	slli	t0,a6,0x10
ee00116a:	0102de93          	srli	t4,t0,0x10

ee00116e <.L288>:
                if (x16 == 1)
ee00116e:	001ef093          	andi	ra,t4,1
ee001172:	001ed893          	srli	a7,t4,0x1
ee001176:	01f08b63          	beq	ra,t6,ee00118c <.L289>

ee00117a <.LVL429>:
                   crc |= 0x8000;
ee00117a:	7ae9                	lui	s5,0xffffa
ee00117c:	001a8413          	addi	s0,s5,1 # ffffa001 <STACK+0xffb1a51>
ee001180:	0088cc33          	xor	s8,a7,s0

ee001184 <.LVL430>:
ee001184:	010c1793          	slli	a5,s8,0x10
ee001188:	0107d893          	srli	a7,a5,0x10

ee00118c <.L289>:
                x16 = (ee_u8)((data & 1) ^ ((ee_u8)crc & 1));
ee00118c:	01c8c533          	xor	a0,a7,t3
                if (x16 == 1)
ee001190:	00157d93          	andi	s11,a0,1
                data >>= 1;
ee001194:	001e5613          	srli	a2,t3,0x1

ee001198 <.LVL432>:
                if (x16 == 1)
ee001198:	0018db13          	srli	s6,a7,0x1
ee00119c:	000d8b63          	beqz	s11,ee0011b2 <.L290>

ee0011a0 <.LVL433>:
                   crc |= 0x8000;
ee0011a0:	76e9                	lui	a3,0xffffa
ee0011a2:	00168593          	addi	a1,a3,1 # ffffa001 <STACK+0xffb1a51>
ee0011a6:	00bb4d33          	xor	s10,s6,a1

ee0011aa <.LVL434>:
ee0011aa:	010d1f13          	slli	t5,s10,0x10
ee0011ae:	010f5b13          	srli	s6,t5,0x10

ee0011b2 <.L290>:
                x16 = (ee_u8)((data & 1) ^ ((ee_u8)crc & 1));
ee0011b2:	00cb4733          	xor	a4,s6,a2
                if (x16 == 1)
ee0011b6:	00177913          	andi	s2,a4,1
                data >>= 1;
ee0011ba:	002e5c93          	srli	s9,t3,0x2

ee0011be <.LVL436>:
                if (x16 == 1)
ee0011be:	001b5293          	srli	t0,s6,0x1
ee0011c2:	00090b63          	beqz	s2,ee0011d8 <.L291>

ee0011c6 <.LVL437>:
                   crc |= 0x8000;
ee0011c6:	7fe9                	lui	t6,0xffffa
ee0011c8:	001f8313          	addi	t1,t6,1 # ffffa001 <STACK+0xffb1a51>
ee0011cc:	0062c3b3          	xor	t2,t0,t1

ee0011d0 <.LVL438>:
ee0011d0:	01039813          	slli	a6,t2,0x10
ee0011d4:	01085293          	srli	t0,a6,0x10

ee0011d8 <.L291>:
                x16 = (ee_u8)((data & 1) ^ ((ee_u8)crc & 1));
ee0011d8:	0192ceb3          	xor	t4,t0,s9
                if (x16 == 1)
ee0011dc:	001ef093          	andi	ra,t4,1
                data >>= 1;
ee0011e0:	003e5a93          	srli	s5,t3,0x3

ee0011e4 <.LVL440>:
                if (x16 == 1)
ee0011e4:	0012d513          	srli	a0,t0,0x1
ee0011e8:	00008b63          	beqz	ra,ee0011fe <.L292>

ee0011ec <.LVL441>:
                   crc |= 0x8000;
ee0011ec:	7469                	lui	s0,0xffffa
ee0011ee:	00140c13          	addi	s8,s0,1 # ffffa001 <STACK+0xffb1a51>
ee0011f2:	018547b3          	xor	a5,a0,s8

ee0011f6 <.LVL442>:
ee0011f6:	01079893          	slli	a7,a5,0x10
ee0011fa:	0108d513          	srli	a0,a7,0x10

ee0011fe <.L292>:
                x16 = (ee_u8)((data & 1) ^ ((ee_u8)crc & 1));
ee0011fe:	01554db3          	xor	s11,a0,s5
                if (x16 == 1)
ee001202:	001df613          	andi	a2,s11,1
                data >>= 1;
ee001206:	004e5693          	srli	a3,t3,0x4

ee00120a <.LVL444>:
                if (x16 == 1)
ee00120a:	00155713          	srli	a4,a0,0x1
ee00120e:	ca11                	beqz	a2,ee001222 <.L293>

ee001210 <.LVL445>:
                   crc |= 0x8000;
ee001210:	75e9                	lui	a1,0xffffa
ee001212:	00158d13          	addi	s10,a1,1 # ffffa001 <STACK+0xffb1a51>
ee001216:	01a74f33          	xor	t5,a4,s10

ee00121a <.LVL446>:
ee00121a:	010f1b13          	slli	s6,t5,0x10
ee00121e:	010b5713          	srli	a4,s6,0x10

ee001222 <.L293>:
                x16 = (ee_u8)((data & 1) ^ ((ee_u8)crc & 1));
ee001222:	00d74933          	xor	s2,a4,a3
                if (x16 == 1)
ee001226:	00197c93          	andi	s9,s2,1
                data >>= 1;
ee00122a:	005e5f93          	srli	t6,t3,0x5

ee00122e <.LVL448>:
                if (x16 == 1)
ee00122e:	00175e93          	srli	t4,a4,0x1
ee001232:	000c8b63          	beqz	s9,ee001248 <.L294>

ee001236 <.LVL449>:
                   crc |= 0x8000;
ee001236:	7369                	lui	t1,0xffffa
ee001238:	00130393          	addi	t2,t1,1 # ffffa001 <STACK+0xffb1a51>
ee00123c:	007ec833          	xor	a6,t4,t2

ee001240 <.LVL450>:
ee001240:	01081293          	slli	t0,a6,0x10
ee001244:	0102de93          	srli	t4,t0,0x10

ee001248 <.L294>:
                x16 = (ee_u8)((data & 1) ^ ((ee_u8)crc & 1));
ee001248:	01dfc0b3          	xor	ra,t6,t4
                if (x16 == 1)
ee00124c:	0010fa93          	andi	s5,ra,1
                data >>= 1;
ee001250:	006e5413          	srli	s0,t3,0x6

ee001254 <.LVL452>:
                if (x16 == 1)
ee001254:	001edd93          	srli	s11,t4,0x1
ee001258:	000a8b63          	beqz	s5,ee00126e <.L295>

ee00125c <.LVL453>:
                   crc |= 0x8000;
ee00125c:	7c69                	lui	s8,0xffffa
ee00125e:	001c0893          	addi	a7,s8,1 # ffffa001 <STACK+0xffb1a51>
ee001262:	011dc7b3          	xor	a5,s11,a7

ee001266 <.LVL454>:
ee001266:	01079513          	slli	a0,a5,0x10
ee00126a:	01055d93          	srli	s11,a0,0x10

ee00126e <.L295>:
                x16 = (ee_u8)((data & 1) ^ ((ee_u8)crc & 1));
ee00126e:	01b44633          	xor	a2,s0,s11
                if (x16 == 1)
ee001272:	00167693          	andi	a3,a2,1
                data >>= 1;
ee001276:	007e5e13          	srli	t3,t3,0x7

ee00127a <.LVL456>:
                if (x16 == 1)
ee00127a:	001dd713          	srli	a4,s11,0x1
ee00127e:	ca91                	beqz	a3,ee001292 <.L296>

ee001280 <.LVL457>:
                   crc |= 0x8000;
ee001280:	75e9                	lui	a1,0xffffa
ee001282:	00158d13          	addi	s10,a1,1 # ffffa001 <STACK+0xffb1a51>
ee001286:	01a74f33          	xor	t5,a4,s10

ee00128a <.LVL458>:
ee00128a:	010f1b13          	slli	s6,t5,0x10
ee00128e:	010b5713          	srli	a4,s6,0x10

ee001292 <.L296>:
                if (x16 == 1)
ee001292:	00175c93          	srli	s9,a4,0x1
ee001296:	00177913          	andi	s2,a4,1
ee00129a:	c866                	sw	s9,16(sp)
ee00129c:	01c90c63          	beq	s2,t3,ee0012b4 <.L297>

ee0012a0 <.LVL460>:
                   crc |= 0x8000;
ee0012a0:	7fe9                	lui	t6,0xffffa
ee0012a2:	001f8313          	addi	t1,t6,1 # ffffa001 <STACK+0xffb1a51>
ee0012a6:	006cc3b3          	xor	t2,s9,t1

ee0012aa <.LVL461>:
ee0012aa:	01039813          	slli	a6,t2,0x10
ee0012ae:	01085293          	srli	t0,a6,0x10
ee0012b2:	c816                	sw	t0,16(sp)

ee0012b4 <.L297>:
        for (i=0; i<N; i++) {
ee0012b4:	4f01                	li	t5,0
ee0012b6:	4381                	li	t2,0
ee0012b8:	32098863          	beqz	s3,ee0015e8 <.L299>
ee0012bc:	4eb2                	lw	t4,12(sp)
                        C[i*N+j]=0;
ee0012be:	00299093          	slli	ra,s3,0x2
ee0012c2:	00199413          	slli	s0,s3,0x1
ee0012c6:	4c01                	li	s8,0
ee0012c8:	ce52                	sw	s4,28(sp)
ee0012ca:	c45e                	sw	s7,8(sp)
ee0012cc:	8af6                	mv	s5,t4
ee0012ce:	01d40933          	add	s2,s0,t4
ee0012d2:	ca06                	sw	ra,20(sp)
        for (i=0; i<N; i++) {
ee0012d4:	4b01                	li	s6,0
ee0012d6:	cc26                	sw	s1,24(sp)
ee0012d8:	8a62                	mv	s4,s8
ee0012da:	8b86                	mv	s7,ra

ee0012dc <.L302>:
                for (j=0; j<N; j++) {
ee0012dc:	4892                	lw	a7,4(sp)
ee0012de:	002a1493          	slli	s1,s4,0x2
                        C[i*N+j]=0;
ee0012e2:	865e                	mv	a2,s7
ee0012e4:	01148533          	add	a0,s1,a7
ee0012e8:	4581                	li	a1,0
ee0012ea:	2a2060ef          	jal	ra,ee00758c <memset>

ee0012ee <.LVL464>:
ee0012ee:	4ea2                	lw	t4,8(sp)
ee0012f0:	8f2a                	mv	t5,a0
                for (j=0; j<N; j++) {
ee0012f2:	4f81                	li	t6,0

ee0012f4 <.L301>:
                        for(k=0;k<N;k++)
ee0012f4:	415907b3          	sub	a5,s2,s5
ee0012f8:	ffe78d93          	addi	s11,a5,-2
ee0012fc:	001dd613          	srli	a2,s11,0x1
ee001300:	00160693          	addi	a3,a2,1
ee001304:	0076fe13          	andi	t3,a3,7
ee001308:	8676                	mv	a2,t4
ee00130a:	86d6                	mv	a3,s5
ee00130c:	4781                	li	a5,0
ee00130e:	0a0e0663          	beqz	t3,ee0013ba <.L300>
ee001312:	4585                	li	a1,1
ee001314:	08be0863          	beq	t3,a1,ee0013a4 <.L700>
ee001318:	4d09                	li	s10,2
ee00131a:	07ae0c63          	beq	t3,s10,ee001392 <.L701>
ee00131e:	470d                	li	a4,3
ee001320:	06ee0063          	beq	t3,a4,ee001380 <.L702>
ee001324:	4c91                	li	s9,4
ee001326:	059e0463          	beq	t3,s9,ee00136e <.L703>
ee00132a:	4315                	li	t1,5
ee00132c:	026e0863          	beq	t3,t1,ee00135c <.L704>
ee001330:	4399                	li	t2,6
ee001332:	007e0c63          	beq	t3,t2,ee00134a <.L705>

ee001336 <.LVL466>:
                                C[i*N+j]+=(MATRES)A[i*N+k] * (MATRES)B[k*N+j];
ee001336:	000a9803          	lh	a6,0(s5)
ee00133a:	000e9283          	lh	t0,0(t4)
                        for(k=0;k<N;k++)
ee00133e:	002a8693          	addi	a3,s5,2
ee001342:	008e8633          	add	a2,t4,s0
                                C[i*N+j]+=(MATRES)A[i*N+k] * (MATRES)B[k*N+j];
ee001346:	025807b3          	mul	a5,a6,t0

ee00134a <.L705>:
ee00134a:	00069083          	lh	ra,0(a3)
ee00134e:	00061c03          	lh	s8,0(a2)
                        for(k=0;k<N;k++)
ee001352:	0689                	addi	a3,a3,2
ee001354:	9622                	add	a2,a2,s0
                                C[i*N+j]+=(MATRES)A[i*N+k] * (MATRES)B[k*N+j];
ee001356:	038084b3          	mul	s1,ra,s8
ee00135a:	97a6                	add	a5,a5,s1

ee00135c <.L704>:
ee00135c:	00069883          	lh	a7,0(a3)
ee001360:	00061503          	lh	a0,0(a2)
                        for(k=0;k<N;k++)
ee001364:	0689                	addi	a3,a3,2
ee001366:	9622                	add	a2,a2,s0
                                C[i*N+j]+=(MATRES)A[i*N+k] * (MATRES)B[k*N+j];
ee001368:	02a88db3          	mul	s11,a7,a0
ee00136c:	97ee                	add	a5,a5,s11

ee00136e <.L703>:
ee00136e:	00069e03          	lh	t3,0(a3)
ee001372:	00061583          	lh	a1,0(a2)
                        for(k=0;k<N;k++)
ee001376:	0689                	addi	a3,a3,2
ee001378:	9622                	add	a2,a2,s0
                                C[i*N+j]+=(MATRES)A[i*N+k] * (MATRES)B[k*N+j];
ee00137a:	02be0d33          	mul	s10,t3,a1
ee00137e:	97ea                	add	a5,a5,s10

ee001380 <.L702>:
ee001380:	00069703          	lh	a4,0(a3)
ee001384:	00061c83          	lh	s9,0(a2)
                        for(k=0;k<N;k++)
ee001388:	0689                	addi	a3,a3,2
ee00138a:	9622                	add	a2,a2,s0
                                C[i*N+j]+=(MATRES)A[i*N+k] * (MATRES)B[k*N+j];
ee00138c:	03970333          	mul	t1,a4,s9
ee001390:	979a                	add	a5,a5,t1

ee001392 <.L701>:
ee001392:	00069383          	lh	t2,0(a3)
ee001396:	00061803          	lh	a6,0(a2)
                        for(k=0;k<N;k++)
ee00139a:	0689                	addi	a3,a3,2
ee00139c:	9622                	add	a2,a2,s0
                                C[i*N+j]+=(MATRES)A[i*N+k] * (MATRES)B[k*N+j];
ee00139e:	030382b3          	mul	t0,t2,a6
ee0013a2:	9796                	add	a5,a5,t0

ee0013a4 <.L700>:
ee0013a4:	00069083          	lh	ra,0(a3)
ee0013a8:	00061c03          	lh	s8,0(a2)
                        for(k=0;k<N;k++)
ee0013ac:	0689                	addi	a3,a3,2
ee0013ae:	9622                	add	a2,a2,s0
                                C[i*N+j]+=(MATRES)A[i*N+k] * (MATRES)B[k*N+j];
ee0013b0:	038084b3          	mul	s1,ra,s8
ee0013b4:	97a6                	add	a5,a5,s1
                        for(k=0;k<N;k++)
ee0013b6:	0ad90363          	beq	s2,a3,ee00145c <.L837>

ee0013ba <.L300>:
ee0013ba:	008608b3          	add	a7,a2,s0
                                C[i*N+j]+=(MATRES)A[i*N+k] * (MATRES)B[k*N+j];
ee0013be:	00069503          	lh	a0,0(a3)
ee0013c2:	00061e03          	lh	t3,0(a2)
                        for(k=0;k<N;k++)
ee0013c6:	00888db3          	add	s11,a7,s0
                                C[i*N+j]+=(MATRES)A[i*N+k] * (MATRES)B[k*N+j];
ee0013ca:	00089303          	lh	t1,0(a7)
ee0013ce:	00269d03          	lh	s10,2(a3)
ee0013d2:	000d9483          	lh	s1,0(s11)
                        for(k=0;k<N;k++)
ee0013d6:	008d8cb3          	add	s9,s11,s0
                                C[i*N+j]+=(MATRES)A[i*N+k] * (MATRES)B[k*N+j];
ee0013da:	00469083          	lh	ra,4(a3)
ee0013de:	03c50733          	mul	a4,a0,t3
                        for(k=0;k<N;k++)
ee0013e2:	008c85b3          	add	a1,s9,s0
                                C[i*N+j]+=(MATRES)A[i*N+k] * (MATRES)B[k*N+j];
ee0013e6:	000c9d83          	lh	s11,0(s9)
ee0013ea:	00669283          	lh	t0,6(a3)
                        for(k=0;k<N;k++)
ee0013ee:	008583b3          	add	t2,a1,s0
                                C[i*N+j]+=(MATRES)A[i*N+k] * (MATRES)B[k*N+j];
ee0013f2:	00869883          	lh	a7,8(a3)
ee0013f6:	00059c03          	lh	s8,0(a1)
ee0013fa:	00a69803          	lh	a6,10(a3)
ee0013fe:	00039c83          	lh	s9,0(t2)
                        for(k=0;k<N;k++)
ee001402:	00838e33          	add	t3,t2,s0
                                C[i*N+j]+=(MATRES)A[i*N+k] * (MATRES)B[k*N+j];
ee001406:	026d0d33          	mul	s10,s10,t1
ee00140a:	00c69503          	lh	a0,12(a3)
                        for(k=0;k<N;k++)
ee00140e:	008e0633          	add	a2,t3,s0
                                C[i*N+j]+=(MATRES)A[i*N+k] * (MATRES)B[k*N+j];
ee001412:	000e1383          	lh	t2,0(t3)
ee001416:	00e69583          	lh	a1,14(a3)
ee00141a:	00061303          	lh	t1,0(a2)
ee00141e:	97ba                	add	a5,a5,a4
                        for(k=0;k<N;k++)
ee001420:	06c1                	addi	a3,a3,16
ee001422:	9622                	add	a2,a2,s0
                                C[i*N+j]+=(MATRES)A[i*N+k] * (MATRES)B[k*N+j];
ee001424:	029080b3          	mul	ra,ra,s1
ee001428:	01a784b3          	add	s1,a5,s10
ee00142c:	03b282b3          	mul	t0,t0,s11
ee001430:	00148733          	add	a4,s1,ra
ee001434:	03888db3          	mul	s11,a7,s8
ee001438:	005708b3          	add	a7,a4,t0
ee00143c:	03980c33          	mul	s8,a6,s9
ee001440:	01b88833          	add	a6,a7,s11
ee001444:	02750e33          	mul	t3,a0,t2
ee001448:	01880cb3          	add	s9,a6,s8
ee00144c:	02658533          	mul	a0,a1,t1
ee001450:	01cc8d33          	add	s10,s9,t3
ee001454:	00ad07b3          	add	a5,s10,a0
                        for(k=0;k<N;k++)
ee001458:	f6d911e3          	bne	s2,a3,ee0013ba <.L300>

ee00145c <.L837>:
ee00145c:	00ff2023          	sw	a5,0(t5)
                for (j=0; j<N; j++) {
ee001460:	001f8693          	addi	a3,t6,1

ee001464 <.LVL467>:
ee001464:	0f11                	addi	t5,t5,4
ee001466:	0e89                	addi	t4,t4,2
ee001468:	12d98463          	beq	s3,a3,ee001590 <.L877>
ee00146c:	8fb6                	mv	t6,a3
ee00146e:	b559                	j	ee0012f4 <.L301>

ee001470 <.L879>:
                                ret += (cur>prev) ? 1 : 0;
ee001470:	01f32333          	slt	t1,t1,t6
                        cur=C[i*N+j];
ee001474:	0048a703          	lw	a4,4(a7)
                                ret += (cur>prev) ? 1 : 0;
ee001478:	00608ab3          	add	s5,ra,t1
ee00147c:	010a9413          	slli	s0,s5,0x10
ee001480:	41045793          	srai	a5,s0,0x10
                                ret+=10;
ee001484:	01079913          	slli	s2,a5,0x10
                        tmp+=cur;
ee001488:	00eb0833          	add	a6,s6,a4
                for (j=0; j<N; j++) {
ee00148c:	0891                	addi	a7,a7,4
                                ret+=10;
ee00148e:	01095c93          	srli	s9,s2,0x10
                        if (tmp>clipval) {
ee001492:	0904de63          	bge	s1,a6,ee00152e <.L878>

ee001496 <.L594>:
                        cur=C[i*N+j];
ee001496:	0048aa83          	lw	s5,4(a7)
                                ret+=10;
ee00149a:	00ac8e93          	addi	t4,s9,10
ee00149e:	010e9093          	slli	ra,t4,0x10
ee0014a2:	4100df93          	srai	t6,ra,0x10

ee0014a6 <.LVL469>:
                                tmp=0;
ee0014a6:	4801                	li	a6,0

ee0014a8 <.LVL470>:
                                ret+=10;
ee0014a8:	010f9313          	slli	t1,t6,0x10
                        tmp+=cur;
ee0014ac:	01580c33          	add	s8,a6,s5
                                ret+=10;
ee0014b0:	01035413          	srli	s0,t1,0x10
                        if (tmp>clipval) {
ee0014b4:	0984df63          	bge	s1,s8,ee001552 <.L846>

ee0014b8 <.L880>:
                                ret+=10;
ee0014b8:	00a40913          	addi	s2,s0,10
                        cur=C[i*N+j];
ee0014bc:	0088a303          	lw	t1,8(a7)
                                ret+=10;
ee0014c0:	01091c93          	slli	s9,s2,0x10
ee0014c4:	410cd713          	srai	a4,s9,0x10

ee0014c8 <.LVL471>:
ee0014c8:	01071813          	slli	a6,a4,0x10
                                tmp=0;
ee0014cc:	4c01                	li	s8,0

ee0014ce <.LVL472>:
                                ret+=10;
ee0014ce:	01085393          	srli	t2,a6,0x10
                        tmp+=cur;
ee0014d2:	006c0833          	add	a6,s8,t1
                        if (tmp>clipval) {
ee0014d6:	0b04d063          	bge	s1,a6,ee001576 <.L848>

ee0014da <.L881>:
                                ret+=10;
ee0014da:	00a38a93          	addi	s5,t2,10
ee0014de:	010a9413          	slli	s0,s5,0x10
ee0014e2:	010a9c13          	slli	s8,s5,0x10
ee0014e6:	01045e93          	srli	t4,s0,0x10
ee0014ea:	410c5793          	srai	a5,s8,0x10

ee0014ee <.LVL474>:
                                tmp=0;
ee0014ee:	4801                	li	a6,0

ee0014f0 <.L849>:
                for (j=0; j<N; j++) {
ee0014f0:	08b1                	addi	a7,a7,12
ee0014f2:	b71583e3          	beq	a1,a7,ee001058 <.L844>

ee0014f6 <.L280>:
                        cur=C[i*N+j];
ee0014f6:	0008af83          	lw	t6,0(a7)
                                ret+=10;
ee0014fa:	01079e93          	slli	t4,a5,0x10
ee0014fe:	010ed093          	srli	ra,t4,0x10
                        tmp+=cur;
ee001502:	01f80b33          	add	s6,a6,t6
                        if (tmp>clipval) {
ee001506:	f764d5e3          	bge	s1,s6,ee001470 <.L879>
                        cur=C[i*N+j];
ee00150a:	0048a703          	lw	a4,4(a7)
                                ret+=10;
ee00150e:	00a08c13          	addi	s8,ra,10
ee001512:	010c1f13          	slli	t5,s8,0x10
ee001516:	410f5793          	srai	a5,t5,0x10

ee00151a <.LVL477>:
                                tmp=0;
ee00151a:	4b01                	li	s6,0

ee00151c <.LVL478>:
                                ret+=10;
ee00151c:	01079913          	slli	s2,a5,0x10
                        tmp+=cur;
ee001520:	00eb0833          	add	a6,s6,a4
                for (j=0; j<N; j++) {
ee001524:	0891                	addi	a7,a7,4
                                ret+=10;
ee001526:	01095c93          	srli	s9,s2,0x10
                        if (tmp>clipval) {
ee00152a:	f704c6e3          	blt	s1,a6,ee001496 <.L594>

ee00152e <.L878>:
                                ret += (cur>prev) ? 1 : 0;
ee00152e:	00efae33          	slt	t3,t6,a4
                        cur=C[i*N+j];
ee001532:	0048aa83          	lw	s5,4(a7)
                                ret += (cur>prev) ? 1 : 0;
ee001536:	01cc83b3          	add	t2,s9,t3
ee00153a:	01039293          	slli	t0,t2,0x10
ee00153e:	4102df93          	srai	t6,t0,0x10
                                ret+=10;
ee001542:	010f9313          	slli	t1,t6,0x10
                        tmp+=cur;
ee001546:	01580c33          	add	s8,a6,s5
                                ret+=10;
ee00154a:	01035413          	srli	s0,t1,0x10
                        if (tmp>clipval) {
ee00154e:	f784c5e3          	blt	s1,s8,ee0014b8 <.L880>

ee001552 <.L846>:
                                ret += (cur>prev) ? 1 : 0;
ee001552:	01572f33          	slt	t5,a4,s5
ee001556:	01e407b3          	add	a5,s0,t5
                        cur=C[i*N+j];
ee00155a:	0088a303          	lw	t1,8(a7)
                                ret += (cur>prev) ? 1 : 0;
ee00155e:	01079b13          	slli	s6,a5,0x10
ee001562:	410b5713          	srai	a4,s6,0x10

ee001566 <.LVL479>:
                                ret+=10;
ee001566:	01071813          	slli	a6,a4,0x10
ee00156a:	01085393          	srli	t2,a6,0x10
                        tmp+=cur;
ee00156e:	006c0833          	add	a6,s8,t1
                        if (tmp>clipval) {
ee001572:	f704c4e3          	blt	s1,a6,ee0014da <.L881>

ee001576 <.L848>:
                                ret += (cur>prev) ? 1 : 0;
ee001576:	006aae33          	slt	t3,s5,t1
ee00157a:	01c382b3          	add	t0,t2,t3
ee00157e:	01029f93          	slli	t6,t0,0x10
ee001582:	01029093          	slli	ra,t0,0x10
ee001586:	010fde93          	srli	t4,t6,0x10
ee00158a:	4100d793          	srai	a5,ra,0x10
ee00158e:	b78d                	j	ee0014f0 <.L849>

ee001590 <.L877>:
        for (i=0; i<N; i++) {
ee001590:	001b0f13          	addi	t5,s6,1

ee001594 <.LVL482>:
ee001594:	9aa2                	add	s5,s5,s0
ee001596:	9a4e                	add	s4,s4,s3
ee001598:	9922                	add	s2,s2,s0
ee00159a:	7f6f8063          	beq	t6,s6,ee001d7a <.L882>
ee00159e:	8b7a                	mv	s6,t5
ee0015a0:	bb35                	j	ee0012dc <.L302>

ee0015a2 <.L842>:
                                ret += (cur>prev) ? 1 : 0;
ee0015a2:	006f2733          	slt	a4,t5,t1
ee0015a6:	00eb0933          	add	s2,s6,a4
ee0015aa:	01091e13          	slli	t3,s2,0x10
ee0015ae:	01091c93          	slli	s9,s2,0x10
ee0015b2:	010e5e93          	srli	t4,t3,0x10

ee0015b6 <.LVL484>:
ee0015b6:	410cd793          	srai	a5,s9,0x10
ee0015ba:	bc61                	j	ee001052 <.L843>

ee0015bc <.L840>:
ee0015bc:	0063aeb3          	slt	t4,t2,t1
ee0015c0:	01df80b3          	add	ra,t6,t4

ee0015c4 <.LVL486>:
ee0015c4:	01009a93          	slli	s5,ra,0x10
ee0015c8:	410ad793          	srai	a5,s5,0x10
ee0015cc:	bcb1                	j	ee001028 <.L841>

ee0015ce <.L838>:
ee0015ce:	006f2733          	slt	a4,t5,t1
ee0015d2:	00eb0e33          	add	t3,s6,a4

ee0015d6 <.LVL488>:
ee0015d6:	010e1913          	slli	s2,t3,0x10
ee0015da:	41095793          	srai	a5,s2,0x10
ee0015de:	b415                	j	ee001002 <.L839>

ee0015e0 <.L885>:
        crc=crcu8( (ee_u8) (newval)                             ,crc);
ee0015e0:	0ff7f393          	andi	t2,a5,255
        crc=crcu8( (ee_u8) ((newval)>>8)        ,crc);
ee0015e4:	0088df13          	srli	t5,a7,0x8

ee0015e8 <.L299>:
                x16 = (ee_u8)((data & 1) ^ ((ee_u8)crc & 1));
ee0015e8:	4ac2                	lw	s5,16(sp)
                data >>= 1;
ee0015ea:	0013d093          	srli	ra,t2,0x1

ee0015ee <.LVL491>:
                x16 = (ee_u8)((data & 1) ^ ((ee_u8)crc & 1));
ee0015ee:	007ac933          	xor	s2,s5,t2
                if (x16 == 1)
ee0015f2:	00197313          	andi	t1,s2,1
ee0015f6:	001adc13          	srli	s8,s5,0x1
ee0015fa:	00030b63          	beqz	t1,ee001610 <.L308>

ee0015fe <.LVL492>:
                   crc |= 0x8000;
ee0015fe:	76e9                	lui	a3,0xffffa
ee001600:	00168293          	addi	t0,a3,1 # ffffa001 <STACK+0xffb1a51>
ee001604:	005c4db3          	xor	s11,s8,t0

ee001608 <.LVL493>:
ee001608:	010d9893          	slli	a7,s11,0x10
ee00160c:	0108dc13          	srli	s8,a7,0x10

ee001610 <.L308>:
                x16 = (ee_u8)((data & 1) ^ ((ee_u8)crc & 1));
ee001610:	001c47b3          	xor	a5,s8,ra
                if (x16 == 1)
ee001614:	0017fc93          	andi	s9,a5,1
                data >>= 1;
ee001618:	0023de13          	srli	t3,t2,0x2

ee00161c <.LVL495>:
                if (x16 == 1)
ee00161c:	001c5f93          	srli	t6,s8,0x1
ee001620:	000c8b63          	beqz	s9,ee001636 <.L309>

ee001624 <.LVL496>:
                   crc |= 0x8000;
ee001624:	7869                	lui	a6,0xffffa
ee001626:	00180e93          	addi	t4,a6,1 # ffffa001 <STACK+0xffb1a51>
ee00162a:	01dfc533          	xor	a0,t6,t4

ee00162e <.LVL497>:
ee00162e:	01051593          	slli	a1,a0,0x10
ee001632:	0105df93          	srli	t6,a1,0x10

ee001636 <.L309>:
                x16 = (ee_u8)((data & 1) ^ ((ee_u8)crc & 1));
ee001636:	01fe4d33          	xor	s10,t3,t6
                if (x16 == 1)
ee00163a:	001d7713          	andi	a4,s10,1
                data >>= 1;
ee00163e:	0033d613          	srli	a2,t2,0x3

ee001642 <.LVL499>:
                if (x16 == 1)
ee001642:	001fd313          	srli	t1,t6,0x1
ee001646:	cb11                	beqz	a4,ee00165a <.L310>

ee001648 <.LVL500>:
                   crc |= 0x8000;
ee001648:	7b69                	lui	s6,0xffffa
ee00164a:	001b0a93          	addi	s5,s6,1 # ffffa001 <STACK+0xffb1a51>
ee00164e:	01534433          	xor	s0,t1,s5

ee001652 <.LVL501>:
ee001652:	01041913          	slli	s2,s0,0x10
ee001656:	01095313          	srli	t1,s2,0x10

ee00165a <.L310>:
                x16 = (ee_u8)((data & 1) ^ ((ee_u8)crc & 1));
ee00165a:	00c340b3          	xor	ra,t1,a2
                if (x16 == 1)
ee00165e:	0010f293          	andi	t0,ra,1
                data >>= 1;
ee001662:	0043d693          	srli	a3,t2,0x4

ee001666 <.LVL503>:
                if (x16 == 1)
ee001666:	00135c93          	srli	s9,t1,0x1
ee00166a:	00028b63          	beqz	t0,ee001680 <.L311>

ee00166e <.LVL504>:
                   crc |= 0x8000;
ee00166e:	7de9                	lui	s11,0xffffa
ee001670:	001d8893          	addi	a7,s11,1 # ffffa001 <STACK+0xffb1a51>
ee001674:	011ccc33          	xor	s8,s9,a7

ee001678 <.LVL505>:
ee001678:	010c1793          	slli	a5,s8,0x10
ee00167c:	0107dc93          	srli	s9,a5,0x10

ee001680 <.L311>:
                x16 = (ee_u8)((data & 1) ^ ((ee_u8)crc & 1));
ee001680:	00dcce33          	xor	t3,s9,a3
                if (x16 == 1)
ee001684:	001e7813          	andi	a6,t3,1
                data >>= 1;
ee001688:	0053de93          	srli	t4,t2,0x5

ee00168c <.LVL507>:
                if (x16 == 1)
ee00168c:	001cd713          	srli	a4,s9,0x1
ee001690:	00080b63          	beqz	a6,ee0016a6 <.L312>

ee001694 <.LVL508>:
                   crc |= 0x8000;
ee001694:	7569                	lui	a0,0xffffa
ee001696:	00150593          	addi	a1,a0,1 # ffffa001 <STACK+0xffb1a51>
ee00169a:	00b74fb3          	xor	t6,a4,a1

ee00169e <.LVL509>:
ee00169e:	010f9d13          	slli	s10,t6,0x10
ee0016a2:	010d5713          	srli	a4,s10,0x10

ee0016a6 <.L312>:
                x16 = (ee_u8)((data & 1) ^ ((ee_u8)crc & 1));
ee0016a6:	00eec633          	xor	a2,t4,a4
                if (x16 == 1)
ee0016aa:	00167b13          	andi	s6,a2,1
                data >>= 1;
ee0016ae:	0063da93          	srli	s5,t2,0x6

ee0016b2 <.LVL511>:
                if (x16 == 1)
ee0016b2:	00175293          	srli	t0,a4,0x1
ee0016b6:	000b0b63          	beqz	s6,ee0016cc <.L313>

ee0016ba <.LVL512>:
                   crc |= 0x8000;
ee0016ba:	7969                	lui	s2,0xffffa
ee0016bc:	00190313          	addi	t1,s2,1 # ffffa001 <STACK+0xffb1a51>
ee0016c0:	0062c433          	xor	s0,t0,t1

ee0016c4 <.LVL513>:
ee0016c4:	01041093          	slli	ra,s0,0x10
ee0016c8:	0100d293          	srli	t0,ra,0x10

ee0016cc <.L313>:
                x16 = (ee_u8)((data & 1) ^ ((ee_u8)crc & 1));
ee0016cc:	0152c6b3          	xor	a3,t0,s5
                if (x16 == 1)
ee0016d0:	0016fd93          	andi	s11,a3,1
                data >>= 1;
ee0016d4:	0073d393          	srli	t2,t2,0x7

ee0016d8 <.LVL515>:
                if (x16 == 1)
ee0016d8:	0012de13          	srli	t3,t0,0x1
ee0016dc:	000d8b63          	beqz	s11,ee0016f2 <.L314>

ee0016e0 <.LVL516>:
                   crc |= 0x8000;
ee0016e0:	78e9                	lui	a7,0xffffa
ee0016e2:	00188c13          	addi	s8,a7,1 # ffffa001 <STACK+0xffb1a51>
ee0016e6:	018e47b3          	xor	a5,t3,s8

ee0016ea <.LVL517>:
ee0016ea:	01079c93          	slli	s9,a5,0x10
ee0016ee:	010cde13          	srli	t3,s9,0x10

ee0016f2 <.L314>:
                if (x16 == 1)
ee0016f2:	001e7813          	andi	a6,t3,1
ee0016f6:	001e5d13          	srli	s10,t3,0x1
ee0016fa:	00780b63          	beq	a6,t2,ee001710 <.L315>

ee0016fe <.LVL519>:
                   crc |= 0x8000;
ee0016fe:	7ee9                	lui	t4,0xffffa
ee001700:	001e8513          	addi	a0,t4,1 # ffffa001 <STACK+0xffb1a51>
ee001704:	00ad45b3          	xor	a1,s10,a0

ee001708 <.LVL520>:
ee001708:	01059f93          	slli	t6,a1,0x10
ee00170c:	010fdd13          	srli	s10,t6,0x10

ee001710 <.L315>:
                x16 = (ee_u8)((data & 1) ^ ((ee_u8)crc & 1));
ee001710:	01ed4733          	xor	a4,s10,t5
                if (x16 == 1)
ee001714:	00177613          	andi	a2,a4,1
                data >>= 1;
ee001718:	001f5b13          	srli	s6,t5,0x1

ee00171c <.LVL522>:
                if (x16 == 1)
ee00171c:	001d5093          	srli	ra,s10,0x1
ee001720:	ca11                	beqz	a2,ee001734 <.L316>

ee001722 <.LVL523>:
                   crc |= 0x8000;
ee001722:	7ae9                	lui	s5,0xffffa
ee001724:	001a8913          	addi	s2,s5,1 # ffffa001 <STACK+0xffb1a51>
ee001728:	0120c333          	xor	t1,ra,s2

ee00172c <.LVL524>:
ee00172c:	01031413          	slli	s0,t1,0x10
ee001730:	01045093          	srli	ra,s0,0x10

ee001734 <.L316>:
                x16 = (ee_u8)((data & 1) ^ ((ee_u8)crc & 1));
ee001734:	0160c2b3          	xor	t0,ra,s6
                if (x16 == 1)
ee001738:	0012f693          	andi	a3,t0,1
                data >>= 1;
ee00173c:	002f5d93          	srli	s11,t5,0x2

ee001740 <.LVL526>:
                if (x16 == 1)
ee001740:	0010dc93          	srli	s9,ra,0x1
ee001744:	ca91                	beqz	a3,ee001758 <.L317>

ee001746 <.LVL527>:
                   crc |= 0x8000;
ee001746:	73e9                	lui	t2,0xffffa
ee001748:	00138893          	addi	a7,t2,1 # ffffa001 <STACK+0xffb1a51>
ee00174c:	011ccc33          	xor	s8,s9,a7

ee001750 <.LVL528>:
ee001750:	010c1793          	slli	a5,s8,0x10
ee001754:	0107dc93          	srli	s9,a5,0x10

ee001758 <.L317>:
                x16 = (ee_u8)((data & 1) ^ ((ee_u8)crc & 1));
ee001758:	01bcce33          	xor	t3,s9,s11
                if (x16 == 1)
ee00175c:	001e7813          	andi	a6,t3,1
                data >>= 1;
ee001760:	003f5e93          	srli	t4,t5,0x3

ee001764 <.LVL530>:
                if (x16 == 1)
ee001764:	001cd613          	srli	a2,s9,0x1
ee001768:	00080b63          	beqz	a6,ee00177e <.L318>

ee00176c <.LVL531>:
                   crc |= 0x8000;
ee00176c:	7569                	lui	a0,0xffffa
ee00176e:	00150593          	addi	a1,a0,1 # ffffa001 <STACK+0xffb1a51>
ee001772:	00b64fb3          	xor	t6,a2,a1

ee001776 <.LVL532>:
ee001776:	010f9d13          	slli	s10,t6,0x10
ee00177a:	010d5613          	srli	a2,s10,0x10

ee00177e <.L318>:
                x16 = (ee_u8)((data & 1) ^ ((ee_u8)crc & 1));
ee00177e:	01d64733          	xor	a4,a2,t4
                if (x16 == 1)
ee001782:	00177b13          	andi	s6,a4,1
                data >>= 1;
ee001786:	004f5a93          	srli	s5,t5,0x4

ee00178a <.LVL534>:
                if (x16 == 1)
ee00178a:	00165293          	srli	t0,a2,0x1
ee00178e:	000b0b63          	beqz	s6,ee0017a4 <.L319>

ee001792 <.LVL535>:
                   crc |= 0x8000;
ee001792:	7969                	lui	s2,0xffffa
ee001794:	00190313          	addi	t1,s2,1 # ffffa001 <STACK+0xffb1a51>
ee001798:	0062c433          	xor	s0,t0,t1

ee00179c <.LVL536>:
ee00179c:	01041093          	slli	ra,s0,0x10
ee0017a0:	0100d293          	srli	t0,ra,0x10

ee0017a4 <.L319>:
                x16 = (ee_u8)((data & 1) ^ ((ee_u8)crc & 1));
ee0017a4:	0152c6b3          	xor	a3,t0,s5
                if (x16 == 1)
ee0017a8:	0016fd93          	andi	s11,a3,1
                data >>= 1;
ee0017ac:	005f5393          	srli	t2,t5,0x5

ee0017b0 <.LVL538>:
                if (x16 == 1)
ee0017b0:	0012de13          	srli	t3,t0,0x1
ee0017b4:	000d8b63          	beqz	s11,ee0017ca <.L320>

ee0017b8 <.LVL539>:
                   crc |= 0x8000;
ee0017b8:	78e9                	lui	a7,0xffffa
ee0017ba:	00188c13          	addi	s8,a7,1 # ffffa001 <STACK+0xffb1a51>
ee0017be:	018e47b3          	xor	a5,t3,s8

ee0017c2 <.LVL540>:
ee0017c2:	01079c93          	slli	s9,a5,0x10
ee0017c6:	010cde13          	srli	t3,s9,0x10

ee0017ca <.L320>:
                x16 = (ee_u8)((data & 1) ^ ((ee_u8)crc & 1));
ee0017ca:	01c3c833          	xor	a6,t2,t3
                if (x16 == 1)
ee0017ce:	00187e93          	andi	t4,a6,1
                data >>= 1;
ee0017d2:	006f5513          	srli	a0,t5,0x6

ee0017d6 <.LVL542>:
                if (x16 == 1)
ee0017d6:	001e5b13          	srli	s6,t3,0x1
ee0017da:	000e8b63          	beqz	t4,ee0017f0 <.L321>

ee0017de <.LVL543>:
                   crc |= 0x8000;
ee0017de:	75e9                	lui	a1,0xffffa
ee0017e0:	00158f93          	addi	t6,a1,1 # ffffa001 <STACK+0xffb1a51>
ee0017e4:	01fb4d33          	xor	s10,s6,t6

ee0017e8 <.LVL544>:
ee0017e8:	010d1613          	slli	a2,s10,0x10
ee0017ec:	01065b13          	srli	s6,a2,0x10

ee0017f0 <.L321>:
                x16 = (ee_u8)((data & 1) ^ ((ee_u8)crc & 1));
ee0017f0:	00ab4733          	xor	a4,s6,a0
                if (x16 == 1)
ee0017f4:	00177a93          	andi	s5,a4,1
                data >>= 1;
ee0017f8:	007f5f13          	srli	t5,t5,0x7

ee0017fc <.LVL546>:
                if (x16 == 1)
ee0017fc:	001b5293          	srli	t0,s6,0x1
ee001800:	000a8b63          	beqz	s5,ee001816 <.L322>

ee001804 <.LVL547>:
                   crc |= 0x8000;
ee001804:	7969                	lui	s2,0xffffa
ee001806:	00190313          	addi	t1,s2,1 # ffffa001 <STACK+0xffb1a51>
ee00180a:	0062c433          	xor	s0,t0,t1

ee00180e <.LVL548>:
ee00180e:	01041093          	slli	ra,s0,0x10
ee001812:	0100d293          	srli	t0,ra,0x10

ee001816 <.L322>:
                if (x16 == 1)
ee001816:	0012f693          	andi	a3,t0,1
ee00181a:	0012d413          	srli	s0,t0,0x1
ee00181e:	01e68b63          	beq	a3,t5,ee001834 <.L323>

ee001822 <.LVL550>:
                   crc |= 0x8000;
ee001822:	7de9                	lui	s11,0xffffa
ee001824:	001d8393          	addi	t2,s11,1 # ffffa001 <STACK+0xffb1a51>
ee001828:	007448b3          	xor	a7,s0,t2

ee00182c <.LVL551>:
ee00182c:	01089c13          	slli	s8,a7,0x10
ee001830:	010c5413          	srli	s0,s8,0x10

ee001834 <.L323>:
        for (i=0; i<N; i++) {
ee001834:	4a81                	li	s5,0
ee001836:	4681                	li	a3,0
ee001838:	1a098063          	beqz	s3,ee0019d8 <.L325>
ee00183c:	47b2                	lw	a5,12(sp)
ee00183e:	4d92                	lw	s11,4(sp)
ee001840:	00199a93          	slli	s5,s3,0x1
ee001844:	8c3e                	mv	s8,a5
ee001846:	00fa8b33          	add	s6,s5,a5
                        C[i*N+j]=0;
ee00184a:	00299913          	slli	s2,s3,0x2
ee00184e:	4c81                	li	s9,0
        for (i=0; i<N; i++) {
ee001850:	4d01                	li	s10,0

ee001852 <.L328>:
                for (j=0; j<N; j++) {
ee001852:	002c9e13          	slli	t3,s9,0x2
ee001856:	01be0533          	add	a0,t3,s11
                        C[i*N+j]=0;
ee00185a:	864a                	mv	a2,s2
ee00185c:	4581                	li	a1,0
ee00185e:	52f050ef          	jal	ra,ee00758c <memset>

ee001862 <.LVL554>:
ee001862:	882a                	mv	a6,a0
ee001864:	88de                	mv	a7,s7
                for (j=0; j<N; j++) {
ee001866:	4e01                	li	t3,0

ee001868 <.L327>:
                        for(k=0;k<N;k++)
ee001868:	418b0eb3          	sub	t4,s6,s8
ee00186c:	ffee8593          	addi	a1,t4,-2
ee001870:	0015df93          	srli	t6,a1,0x1
ee001874:	001f8613          	addi	a2,t6,1
ee001878:	00367713          	andi	a4,a2,3
ee00187c:	8546                	mv	a0,a7
ee00187e:	85e2                	mv	a1,s8
ee001880:	4e81                	li	t4,0
ee001882:	c359                	beqz	a4,ee001908 <.L326>
ee001884:	4f05                	li	t5,1
ee001886:	05e70c63          	beq	a4,t5,ee0018de <.L708>
ee00188a:	4309                	li	t1,2
ee00188c:	02670663          	beq	a4,t1,ee0018b8 <.L709>

ee001890 <.LBB453>:
                                MATRES tmp=(MATRES)A[i*N+k] * (MATRES)B[k*N+j];
ee001890:	000c1083          	lh	ra,0(s8)
ee001894:	00089283          	lh	t0,0(a7)

ee001898 <.LBE453>:
                        for(k=0;k<N;k++)
ee001898:	002c0593          	addi	a1,s8,2
ee00189c:	01588533          	add	a0,a7,s5

ee0018a0 <.LBB454>:
                                MATRES tmp=(MATRES)A[i*N+k] * (MATRES)B[k*N+j];
ee0018a0:	025086b3          	mul	a3,ra,t0
                                C[i*N+j]+=bit_extract(tmp,2,4)*bit_extract(tmp,5,7);
ee0018a4:	4056de93          	srai	t4,a3,0x5
ee0018a8:	4026d393          	srai	t2,a3,0x2
ee0018ac:	00f3f793          	andi	a5,t2,15
ee0018b0:	07feff93          	andi	t6,t4,127
ee0018b4:	03f78eb3          	mul	t4,a5,t6

ee0018b8 <.L709>:
                                MATRES tmp=(MATRES)A[i*N+k] * (MATRES)B[k*N+j];
ee0018b8:	00059603          	lh	a2,0(a1)
ee0018bc:	00051703          	lh	a4,0(a0)

ee0018c0 <.LBE455>:
                        for(k=0;k<N;k++)
ee0018c0:	0589                	addi	a1,a1,2
ee0018c2:	9556                	add	a0,a0,s5

ee0018c4 <.LBB456>:
                                MATRES tmp=(MATRES)A[i*N+k] * (MATRES)B[k*N+j];
ee0018c4:	02e60f33          	mul	t5,a2,a4
                                C[i*N+j]+=bit_extract(tmp,2,4)*bit_extract(tmp,5,7);
ee0018c8:	402f5313          	srai	t1,t5,0x2
ee0018cc:	405f5093          	srai	ra,t5,0x5
ee0018d0:	00f37293          	andi	t0,t1,15
ee0018d4:	07f0f693          	andi	a3,ra,127
ee0018d8:	02d283b3          	mul	t2,t0,a3
ee0018dc:	9e9e                	add	t4,t4,t2

ee0018de <.L708>:
                                MATRES tmp=(MATRES)A[i*N+k] * (MATRES)B[k*N+j];
ee0018de:	00059783          	lh	a5,0(a1)
ee0018e2:	00051f83          	lh	t6,0(a0)

ee0018e6 <.LBE457>:
                        for(k=0;k<N;k++)
ee0018e6:	0589                	addi	a1,a1,2
ee0018e8:	9556                	add	a0,a0,s5

ee0018ea <.LBB458>:
                                MATRES tmp=(MATRES)A[i*N+k] * (MATRES)B[k*N+j];
ee0018ea:	03f78633          	mul	a2,a5,t6
                                C[i*N+j]+=bit_extract(tmp,2,4)*bit_extract(tmp,5,7);
ee0018ee:	40265713          	srai	a4,a2,0x2
ee0018f2:	40565f13          	srai	t5,a2,0x5
ee0018f6:	00f77313          	andi	t1,a4,15
ee0018fa:	07ff7093          	andi	ra,t5,127
ee0018fe:	021302b3          	mul	t0,t1,ra
ee001902:	9e96                	add	t4,t4,t0

ee001904 <.LBE458>:
                        for(k=0;k<N;k++)
ee001904:	0abb0363          	beq	s6,a1,ee0019aa <.L824>

ee001908 <.L326>:
ee001908:	015503b3          	add	t2,a0,s5

ee00190c <.LBB460>:
                                MATRES tmp=(MATRES)A[i*N+k] * (MATRES)B[k*N+j];
ee00190c:	00059f83          	lh	t6,0(a1)
ee001910:	00051603          	lh	a2,0(a0)

ee001914 <.LBE460>:
                        for(k=0;k<N;k++)
ee001914:	015387b3          	add	a5,t2,s5

ee001918 <.LBB461>:
                                MATRES tmp=(MATRES)A[i*N+k] * (MATRES)B[k*N+j];
ee001918:	00039703          	lh	a4,0(t2)
ee00191c:	00259683          	lh	a3,2(a1)
ee001920:	00079303          	lh	t1,0(a5)

ee001924 <.LBE461>:
                        for(k=0;k<N;k++)
ee001924:	01578533          	add	a0,a5,s5

ee001928 <.LBB462>:
                                MATRES tmp=(MATRES)A[i*N+k] * (MATRES)B[k*N+j];
ee001928:	00459083          	lh	ra,4(a1)
ee00192c:	02cf82b3          	mul	t0,t6,a2

ee001930 <.LVL558>:
ee001930:	00659383          	lh	t2,6(a1)
ee001934:	00051f83          	lh	t6,0(a0)

ee001938 <.LBE462>:
                        for(k=0;k<N;k++)
ee001938:	05a1                	addi	a1,a1,8
ee00193a:	9556                	add	a0,a0,s5

ee00193c <.LBB463>:
                                MATRES tmp=(MATRES)A[i*N+k] * (MATRES)B[k*N+j];
ee00193c:	02e686b3          	mul	a3,a3,a4
                                C[i*N+j]+=bit_extract(tmp,2,4)*bit_extract(tmp,5,7);
ee001940:	4052d613          	srai	a2,t0,0x5
ee001944:	4022df13          	srai	t5,t0,0x2
ee001948:	00ff7f13          	andi	t5,t5,15
ee00194c:	07f67713          	andi	a4,a2,127
                                MATRES tmp=(MATRES)A[i*N+k] * (MATRES)B[k*N+j];
ee001950:	026080b3          	mul	ra,ra,t1
                                C[i*N+j]+=bit_extract(tmp,2,4)*bit_extract(tmp,5,7);
ee001954:	4026d793          	srai	a5,a3,0x2
ee001958:	4056d313          	srai	t1,a3,0x5
ee00195c:	00f7f293          	andi	t0,a5,15

ee001960 <.LVL559>:
ee001960:	07f37313          	andi	t1,t1,127
                                MATRES tmp=(MATRES)A[i*N+k] * (MATRES)B[k*N+j];
ee001964:	03f383b3          	mul	t2,t2,t6
                                C[i*N+j]+=bit_extract(tmp,2,4)*bit_extract(tmp,5,7);
ee001968:	4050d693          	srai	a3,ra,0x5
ee00196c:	4020df93          	srai	t6,ra,0x2
ee001970:	00fff093          	andi	ra,t6,15
ee001974:	07f6f613          	andi	a2,a3,127
ee001978:	02ef0733          	mul	a4,t5,a4
ee00197c:	4053d793          	srai	a5,t2,0x5
ee001980:	4023df13          	srai	t5,t2,0x2
ee001984:	00ff7393          	andi	t2,t5,15
ee001988:	07f7ff93          	andi	t6,a5,127
ee00198c:	026282b3          	mul	t0,t0,t1
ee001990:	9eba                	add	t4,t4,a4

ee001992 <.LBB464>:
ee001992:	02c08333          	mul	t1,ra,a2
ee001996:	005e80b3          	add	ra,t4,t0

ee00199a <.LBB465>:
ee00199a:	03f386b3          	mul	a3,t2,t6
ee00199e:	00608633          	add	a2,ra,t1

ee0019a2 <.LBB466>:
ee0019a2:	00d60eb3          	add	t4,a2,a3

ee0019a6 <.LBE466>:
                        for(k=0;k<N;k++)
ee0019a6:	f6bb11e3          	bne	s6,a1,ee001908 <.L326>

ee0019aa <.L824>:
ee0019aa:	01d82023          	sw	t4,0(a6)
                for (j=0; j<N; j++) {
ee0019ae:	001e0593          	addi	a1,t3,1

ee0019b2 <.LVL560>:
ee0019b2:	0811                	addi	a6,a6,4
ee0019b4:	0889                	addi	a7,a7,2
ee0019b6:	00b98463          	beq	s3,a1,ee0019be <.L883>
ee0019ba:	8e2e                	mv	t3,a1
ee0019bc:	b575                	j	ee001868 <.L327>

ee0019be <.L883>:
        for (i=0; i<N; i++) {
ee0019be:	001d0813          	addi	a6,s10,1

ee0019c2 <.LVL561>:
ee0019c2:	9c56                	add	s8,s8,s5
ee0019c4:	9cce                	add	s9,s9,s3
ee0019c6:	9b56                	add	s6,s6,s5
ee0019c8:	5dcd0f63          	beq	s10,t3,ee001fa6 <.L884>
ee0019cc:	8d42                	mv	s10,a6
ee0019ce:	b551                	j	ee001852 <.L328>

ee0019d0 <.L890>:
        crc=crcu8( (ee_u8) (newval)                             ,crc);
ee0019d0:	0ff7f693          	andi	a3,a5,255
        crc=crcu8( (ee_u8) ((newval)>>8)        ,crc);
ee0019d4:	0083da93          	srli	s5,t2,0x8

ee0019d8 <.L325>:
                x16 = (ee_u8)((data & 1) ^ ((ee_u8)crc & 1));
ee0019d8:	00d44833          	xor	a6,s0,a3
                if (x16 == 1)
ee0019dc:	00187c13          	andi	s8,a6,1
                data >>= 1;
ee0019e0:	0016dc93          	srli	s9,a3,0x1

ee0019e4 <.LVL564>:
                if (x16 == 1)
ee0019e4:	00145393          	srli	t2,s0,0x1
ee0019e8:	000c0b63          	beqz	s8,ee0019fe <.L334>

ee0019ec <.LVL565>:
                   crc |= 0x8000;
ee0019ec:	78e9                	lui	a7,0xffffa
ee0019ee:	00188b13          	addi	s6,a7,1 # ffffa001 <STACK+0xffb1a51>
ee0019f2:	0163c733          	xor	a4,t2,s6

ee0019f6 <.LVL566>:
ee0019f6:	01071f13          	slli	t5,a4,0x10
ee0019fa:	010f5393          	srli	t2,t5,0x10

ee0019fe <.L334>:
                x16 = (ee_u8)((data & 1) ^ ((ee_u8)crc & 1));
ee0019fe:	007cc533          	xor	a0,s9,t2
                if (x16 == 1)
ee001a02:	00157f93          	andi	t6,a0,1
                data >>= 1;
ee001a06:	0026d293          	srli	t0,a3,0x2

ee001a0a <.LVL568>:
                if (x16 == 1)
ee001a0a:	0013d493          	srli	s1,t2,0x1
ee001a0e:	000f8b63          	beqz	t6,ee001a24 <.L335>

ee001a12 <.LVL569>:
                   crc |= 0x8000;
ee001a12:	7369                	lui	t1,0xffffa
ee001a14:	00130e93          	addi	t4,t1,1 # ffffa001 <STACK+0xffb1a51>
ee001a18:	01d4c7b3          	xor	a5,s1,t4

ee001a1c <.LVL570>:
ee001a1c:	01079413          	slli	s0,a5,0x10
ee001a20:	01045493          	srli	s1,s0,0x10

ee001a24 <.L335>:
                x16 = (ee_u8)((data & 1) ^ ((ee_u8)crc & 1));
ee001a24:	0054c5b3          	xor	a1,s1,t0
                if (x16 == 1)
ee001a28:	0015f613          	andi	a2,a1,1
                data >>= 1;
ee001a2c:	0036de13          	srli	t3,a3,0x3

ee001a30 <.LVL572>:
                if (x16 == 1)
ee001a30:	0014dd93          	srli	s11,s1,0x1
ee001a34:	ca11                	beqz	a2,ee001a48 <.L336>

ee001a36 <.LVL573>:
                   crc |= 0x8000;
ee001a36:	70e9                	lui	ra,0xffffa
ee001a38:	00108d13          	addi	s10,ra,1 # ffffa001 <STACK+0xffb1a51>
ee001a3c:	01adc933          	xor	s2,s11,s10

ee001a40 <.LVL574>:
ee001a40:	01091b93          	slli	s7,s2,0x10
ee001a44:	010bdd93          	srli	s11,s7,0x10

ee001a48 <.L336>:
                x16 = (ee_u8)((data & 1) ^ ((ee_u8)crc & 1));
ee001a48:	01cdc833          	xor	a6,s11,t3
                if (x16 == 1)
ee001a4c:	00187c13          	andi	s8,a6,1
                data >>= 1;
ee001a50:	0046dc93          	srli	s9,a3,0x4

ee001a54 <.LVL576>:
                if (x16 == 1)
ee001a54:	001dd393          	srli	t2,s11,0x1
ee001a58:	000c0b63          	beqz	s8,ee001a6e <.L337>

ee001a5c <.LVL577>:
                   crc |= 0x8000;
ee001a5c:	78e9                	lui	a7,0xffffa
ee001a5e:	00188b13          	addi	s6,a7,1 # ffffa001 <STACK+0xffb1a51>
ee001a62:	0163c733          	xor	a4,t2,s6

ee001a66 <.LVL578>:
ee001a66:	01071f13          	slli	t5,a4,0x10
ee001a6a:	010f5393          	srli	t2,t5,0x10

ee001a6e <.L337>:
                x16 = (ee_u8)((data & 1) ^ ((ee_u8)crc & 1));
ee001a6e:	0193c533          	xor	a0,t2,s9
                if (x16 == 1)
ee001a72:	00157f93          	andi	t6,a0,1
                data >>= 1;
ee001a76:	0056d293          	srli	t0,a3,0x5

ee001a7a <.LVL580>:
                if (x16 == 1)
ee001a7a:	0013d493          	srli	s1,t2,0x1
ee001a7e:	000f8b63          	beqz	t6,ee001a94 <.L338>

ee001a82 <.LVL581>:
                   crc |= 0x8000;
ee001a82:	7369                	lui	t1,0xffffa
ee001a84:	00130e93          	addi	t4,t1,1 # ffffa001 <STACK+0xffb1a51>
ee001a88:	01d4c7b3          	xor	a5,s1,t4

ee001a8c <.LVL582>:
ee001a8c:	01079413          	slli	s0,a5,0x10
ee001a90:	01045493          	srli	s1,s0,0x10

ee001a94 <.L338>:
                x16 = (ee_u8)((data & 1) ^ ((ee_u8)crc & 1));
ee001a94:	0054c5b3          	xor	a1,s1,t0
                if (x16 == 1)
ee001a98:	0015fe13          	andi	t3,a1,1
                data >>= 1;
ee001a9c:	0066d613          	srli	a2,a3,0x6

ee001aa0 <.LVL584>:
                if (x16 == 1)
ee001aa0:	0014dd93          	srli	s11,s1,0x1
ee001aa4:	000e0b63          	beqz	t3,ee001aba <.L339>

ee001aa8 <.LVL585>:
                   crc |= 0x8000;
ee001aa8:	70e9                	lui	ra,0xffffa
ee001aaa:	00108d13          	addi	s10,ra,1 # ffffa001 <STACK+0xffb1a51>
ee001aae:	01adc933          	xor	s2,s11,s10

ee001ab2 <.LVL586>:
ee001ab2:	01091b93          	slli	s7,s2,0x10
ee001ab6:	010bdd93          	srli	s11,s7,0x10

ee001aba <.L339>:
                x16 = (ee_u8)((data & 1) ^ ((ee_u8)crc & 1));
ee001aba:	01b64833          	xor	a6,a2,s11
                if (x16 == 1)
ee001abe:	00187c13          	andi	s8,a6,1
                data >>= 1;
ee001ac2:	829d                	srli	a3,a3,0x7

ee001ac4 <.LVL588>:
                if (x16 == 1)
ee001ac4:	001ddf13          	srli	t5,s11,0x1
ee001ac8:	000c0b63          	beqz	s8,ee001ade <.L340>

ee001acc <.LVL589>:
                   crc |= 0x8000;
ee001acc:	7ce9                	lui	s9,0xffffa
ee001ace:	001c8893          	addi	a7,s9,1 # ffffa001 <STACK+0xffb1a51>
ee001ad2:	011f4b33          	xor	s6,t5,a7

ee001ad6 <.LVL590>:
ee001ad6:	010b1713          	slli	a4,s6,0x10
ee001ada:	01075f13          	srli	t5,a4,0x10

ee001ade <.L340>:
                if (x16 == 1)
ee001ade:	001f7393          	andi	t2,t5,1
ee001ae2:	001f5e93          	srli	t4,t5,0x1
ee001ae6:	00d38b63          	beq	t2,a3,ee001afc <.L341>

ee001aea <.LVL592>:
                   crc |= 0x8000;
ee001aea:	7569                	lui	a0,0xffffa
ee001aec:	00150f93          	addi	t6,a0,1 # ffffa001 <STACK+0xffb1a51>
ee001af0:	01fec2b3          	xor	t0,t4,t6

ee001af4 <.LVL593>:
ee001af4:	01029313          	slli	t1,t0,0x10
ee001af8:	01035e93          	srli	t4,t1,0x10

ee001afc <.L341>:
                x16 = (ee_u8)((data & 1) ^ ((ee_u8)crc & 1));
ee001afc:	01dac7b3          	xor	a5,s5,t4
                if (x16 == 1)
ee001b00:	0017f413          	andi	s0,a5,1
                data >>= 1;
ee001b04:	001ad493          	srli	s1,s5,0x1

ee001b08 <.LVL595>:
                if (x16 == 1)
ee001b08:	001edd13          	srli	s10,t4,0x1
ee001b0c:	c811                	beqz	s0,ee001b20 <.L342>

ee001b0e <.LVL596>:
                   crc |= 0x8000;
ee001b0e:	75e9                	lui	a1,0xffffa
ee001b10:	00158e13          	addi	t3,a1,1 # ffffa001 <STACK+0xffb1a51>
ee001b14:	01cd4633          	xor	a2,s10,t3

ee001b18 <.LVL597>:
ee001b18:	01061093          	slli	ra,a2,0x10
ee001b1c:	0100dd13          	srli	s10,ra,0x10

ee001b20 <.L342>:
                x16 = (ee_u8)((data & 1) ^ ((ee_u8)crc & 1));
ee001b20:	01a4c933          	xor	s2,s1,s10
                if (x16 == 1)
ee001b24:	00197b93          	andi	s7,s2,1
                data >>= 1;
ee001b28:	002add93          	srli	s11,s5,0x2

ee001b2c <.LVL599>:
                if (x16 == 1)
ee001b2c:	001d5893          	srli	a7,s10,0x1
ee001b30:	000b8b63          	beqz	s7,ee001b46 <.L343>

ee001b34 <.LVL600>:
                   crc |= 0x8000;
ee001b34:	7869                	lui	a6,0xffffa
ee001b36:	00180c13          	addi	s8,a6,1 # ffffa001 <STACK+0xffb1a51>
ee001b3a:	0188c6b3          	xor	a3,a7,s8

ee001b3e <.LVL601>:
ee001b3e:	01069c93          	slli	s9,a3,0x10
ee001b42:	010cd893          	srli	a7,s9,0x10

ee001b46 <.L343>:
                x16 = (ee_u8)((data & 1) ^ ((ee_u8)crc & 1));
ee001b46:	011dcb33          	xor	s6,s11,a7
                if (x16 == 1)
ee001b4a:	001b7713          	andi	a4,s6,1
                data >>= 1;
ee001b4e:	003adf13          	srli	t5,s5,0x3

ee001b52 <.LVL603>:
                if (x16 == 1)
ee001b52:	0018d313          	srli	t1,a7,0x1
ee001b56:	cb11                	beqz	a4,ee001b6a <.L344>

ee001b58 <.LVL604>:
                   crc |= 0x8000;
ee001b58:	73e9                	lui	t2,0xffffa
ee001b5a:	00138513          	addi	a0,t2,1 # ffffa001 <STACK+0xffb1a51>
ee001b5e:	00a34fb3          	xor	t6,t1,a0

ee001b62 <.LVL605>:
ee001b62:	010f9293          	slli	t0,t6,0x10
ee001b66:	0102d313          	srli	t1,t0,0x10

ee001b6a <.L344>:
                x16 = (ee_u8)((data & 1) ^ ((ee_u8)crc & 1));
ee001b6a:	006f4eb3          	xor	t4,t5,t1
                if (x16 == 1)
ee001b6e:	001ef413          	andi	s0,t4,1
                data >>= 1;
ee001b72:	004ad493          	srli	s1,s5,0x4

ee001b76 <.LVL607>:
                if (x16 == 1)
ee001b76:	00135093          	srli	ra,t1,0x1
ee001b7a:	c811                	beqz	s0,ee001b8e <.L345>

ee001b7c <.LVL608>:
                   crc |= 0x8000;
ee001b7c:	75e9                	lui	a1,0xffffa
ee001b7e:	00158e13          	addi	t3,a1,1 # ffffa001 <STACK+0xffb1a51>
ee001b82:	01c0c7b3          	xor	a5,ra,t3

ee001b86 <.LVL609>:
ee001b86:	01079613          	slli	a2,a5,0x10
ee001b8a:	01065093          	srli	ra,a2,0x10

ee001b8e <.L345>:
                x16 = (ee_u8)((data & 1) ^ ((ee_u8)crc & 1));
ee001b8e:	0014cd33          	xor	s10,s1,ra
                if (x16 == 1)
ee001b92:	001d7913          	andi	s2,s10,1
                data >>= 1;
ee001b96:	005adb93          	srli	s7,s5,0x5

ee001b9a <.LVL611>:
                if (x16 == 1)
ee001b9a:	0010dc93          	srli	s9,ra,0x1
ee001b9e:	00090b63          	beqz	s2,ee001bb4 <.L346>

ee001ba2 <.LVL612>:
                   crc |= 0x8000;
ee001ba2:	7de9                	lui	s11,0xffffa
ee001ba4:	001d8813          	addi	a6,s11,1 # ffffa001 <STACK+0xffb1a51>
ee001ba8:	010ccc33          	xor	s8,s9,a6

ee001bac <.LVL613>:
ee001bac:	010c1693          	slli	a3,s8,0x10
ee001bb0:	0106dc93          	srli	s9,a3,0x10

ee001bb4 <.L346>:
                x16 = (ee_u8)((data & 1) ^ ((ee_u8)crc & 1));
ee001bb4:	019bc8b3          	xor	a7,s7,s9
                if (x16 == 1)
ee001bb8:	0018fb13          	andi	s6,a7,1
                data >>= 1;
ee001bbc:	006ad713          	srli	a4,s5,0x6

ee001bc0 <.LVL615>:
                if (x16 == 1)
ee001bc0:	001cd293          	srli	t0,s9,0x1
ee001bc4:	000b0b63          	beqz	s6,ee001bda <.L347>

ee001bc8 <.LVL616>:
                   crc |= 0x8000;
ee001bc8:	7f69                	lui	t5,0xffffa
ee001bca:	001f0393          	addi	t2,t5,1 # ffffa001 <STACK+0xffb1a51>
ee001bce:	0072c533          	xor	a0,t0,t2

ee001bd2 <.LVL617>:
ee001bd2:	01051f93          	slli	t6,a0,0x10
ee001bd6:	010fd293          	srli	t0,t6,0x10

ee001bda <.L347>:
                x16 = (ee_u8)((data & 1) ^ ((ee_u8)crc & 1));
ee001bda:	00574333          	xor	t1,a4,t0
                if (x16 == 1)
ee001bde:	00137e93          	andi	t4,t1,1
                data >>= 1;
ee001be2:	007ada93          	srli	s5,s5,0x7

ee001be6 <.LVL619>:
                if (x16 == 1)
ee001be6:	0012d793          	srli	a5,t0,0x1
ee001bea:	000e8b63          	beqz	t4,ee001c00 <.L348>

ee001bee <.LVL620>:
                   crc |= 0x8000;
ee001bee:	7469                	lui	s0,0xffffa
ee001bf0:	00140493          	addi	s1,s0,1 # ffffa001 <STACK+0xffb1a51>
ee001bf4:	0097c5b3          	xor	a1,a5,s1

ee001bf8 <.LVL621>:
ee001bf8:	01059e13          	slli	t3,a1,0x10
ee001bfc:	010e5793          	srli	a5,t3,0x10

ee001c00 <.L348>:
                if (x16 == 1)
ee001c00:	0017f613          	andi	a2,a5,1
ee001c04:	0017d513          	srli	a0,a5,0x1
ee001c08:	01560b63          	beq	a2,s5,ee001c1e <.L349>

ee001c0c <.LVL623>:
                   crc |= 0x8000;
ee001c0c:	70e9                	lui	ra,0xffffa
ee001c0e:	00108d13          	addi	s10,ra,1 # ffffa001 <STACK+0xffb1a51>
ee001c12:	01a54933          	xor	s2,a0,s10
ee001c16:	01091b93          	slli	s7,s2,0x10
ee001c1a:	010bd513          	srli	a0,s7,0x10

ee001c1e <.L349>:
        for (i=0; i<N; i++) {
ee001c1e:	12098b63          	beqz	s3,ee001d54 <.L350>
ee001c22:	4c32                	lw	s8,12(sp)
ee001c24:	41300db3          	neg	s11,s3
ee001c28:	00199813          	slli	a6,s3,0x1
ee001c2c:	010c06b3          	add	a3,s8,a6
ee001c30:	001d9293          	slli	t0,s11,0x1
ee001c34:	4f01                	li	t5,0
ee001c36:	002d9f93          	slli	t6,s11,0x2

ee001c3a <.L351>:
                for (j=0; j<N; j++) {
ee001c3a:	00568cb3          	add	s9,a3,t0
ee001c3e:	419688b3          	sub	a7,a3,s9
ee001c42:	ffe88b13          	addi	s6,a7,-2
ee001c46:	001b5713          	srli	a4,s6,0x1
ee001c4a:	00170393          	addi	t2,a4,1
ee001c4e:	0073f313          	andi	t1,t2,7

ee001c52 <.LBB482>:
        for (i=0; i<N; i++) {
ee001c52:	87e6                	mv	a5,s9
ee001c54:	08030863          	beqz	t1,ee001ce4 <.L352>
ee001c58:	4e85                	li	t4,1
ee001c5a:	07d30c63          	beq	t1,t4,ee001cd2 <.L712>
ee001c5e:	4a89                	li	s5,2
ee001c60:	07530263          	beq	t1,s5,ee001cc4 <.L713>
ee001c64:	440d                	li	s0,3
ee001c66:	04830863          	beq	t1,s0,ee001cb6 <.L714>
ee001c6a:	4491                	li	s1,4
ee001c6c:	02930e63          	beq	t1,s1,ee001ca8 <.L715>
ee001c70:	4595                	li	a1,5
ee001c72:	02b30463          	beq	t1,a1,ee001c9a <.L716>
ee001c76:	4e19                	li	t3,6
ee001c78:	01c30a63          	beq	t1,t3,ee001c8c <.L717>

ee001c7c <.LBB483>:
                        A[i*N+j] += val;
ee001c7c:	000cd603          	lhu	a2,0(s9)
                for (j=0; j<N; j++) {
ee001c80:	002c8793          	addi	a5,s9,2
                        A[i*N+j] += val;
ee001c84:	414600b3          	sub	ra,a2,s4
ee001c88:	001c9023          	sh	ra,0(s9)

ee001c8c <.L717>:
ee001c8c:	0007dd03          	lhu	s10,0(a5)
                for (j=0; j<N; j++) {
ee001c90:	0789                	addi	a5,a5,2
                        A[i*N+j] += val;
ee001c92:	414d0933          	sub	s2,s10,s4
ee001c96:	ff279f23          	sh	s2,-2(a5)

ee001c9a <.L716>:
ee001c9a:	0007db83          	lhu	s7,0(a5)
                for (j=0; j<N; j++) {
ee001c9e:	0789                	addi	a5,a5,2
                        A[i*N+j] += val;
ee001ca0:	414b8db3          	sub	s11,s7,s4
ee001ca4:	ffb79f23          	sh	s11,-2(a5)

ee001ca8 <.L715>:
ee001ca8:	0007d803          	lhu	a6,0(a5)
                for (j=0; j<N; j++) {
ee001cac:	0789                	addi	a5,a5,2
                        A[i*N+j] += val;
ee001cae:	41480c33          	sub	s8,a6,s4
ee001cb2:	ff879f23          	sh	s8,-2(a5)

ee001cb6 <.L714>:
ee001cb6:	0007d883          	lhu	a7,0(a5)
                for (j=0; j<N; j++) {
ee001cba:	0789                	addi	a5,a5,2
                        A[i*N+j] += val;
ee001cbc:	41488b33          	sub	s6,a7,s4
ee001cc0:	ff679f23          	sh	s6,-2(a5)

ee001cc4 <.L713>:
ee001cc4:	0007d703          	lhu	a4,0(a5)
                for (j=0; j<N; j++) {
ee001cc8:	0789                	addi	a5,a5,2
                        A[i*N+j] += val;
ee001cca:	414703b3          	sub	t2,a4,s4
ee001cce:	fe779f23          	sh	t2,-2(a5)

ee001cd2 <.L712>:
ee001cd2:	0007d303          	lhu	t1,0(a5)
                for (j=0; j<N; j++) {
ee001cd6:	0789                	addi	a5,a5,2
                        A[i*N+j] += val;
ee001cd8:	41430eb3          	sub	t4,t1,s4
ee001cdc:	ffd79f23          	sh	t4,-2(a5)
                for (j=0; j<N; j++) {
ee001ce0:	06d78563          	beq	a5,a3,ee001d4a <.L811>

ee001ce4 <.L352>:
                        A[i*N+j] += val;
ee001ce4:	0007da83          	lhu	s5,0(a5)
ee001ce8:	0027d403          	lhu	s0,2(a5)
ee001cec:	0047d483          	lhu	s1,4(a5)
ee001cf0:	0067d603          	lhu	a2,6(a5)
ee001cf4:	0087d083          	lhu	ra,8(a5)
ee001cf8:	00a7dd03          	lhu	s10,10(a5)
ee001cfc:	00c7d583          	lhu	a1,12(a5)
ee001d00:	00e7d903          	lhu	s2,14(a5)
ee001d04:	414a8bb3          	sub	s7,s5,s4
ee001d08:	41440db3          	sub	s11,s0,s4
ee001d0c:	41448e33          	sub	t3,s1,s4
ee001d10:	41460c33          	sub	s8,a2,s4
ee001d14:	414088b3          	sub	a7,ra,s4
ee001d18:	414d0833          	sub	a6,s10,s4
ee001d1c:	41458b33          	sub	s6,a1,s4
ee001d20:	41490733          	sub	a4,s2,s4
ee001d24:	01779023          	sh	s7,0(a5)
ee001d28:	01b79123          	sh	s11,2(a5)
ee001d2c:	01c79223          	sh	t3,4(a5)
ee001d30:	01879323          	sh	s8,6(a5)
ee001d34:	01179423          	sh	a7,8(a5)
ee001d38:	01079523          	sh	a6,10(a5)
ee001d3c:	01679623          	sh	s6,12(a5)
ee001d40:	00e79723          	sh	a4,14(a5)
                for (j=0; j<N; j++) {
ee001d44:	07c1                	addi	a5,a5,16
ee001d46:	f8d79fe3          	bne	a5,a3,ee001ce4 <.L352>

ee001d4a <.L811>:
        for (i=0; i<N; i++) {
ee001d4a:	0f05                	addi	t5,t5,1
ee001d4c:	41fc86b3          	sub	a3,s9,t6
ee001d50:	efe995e3          	bne	s3,t5,ee001c3a <.L351>

ee001d54 <.L350>:
}
ee001d54:	40f6                	lw	ra,92(sp)
ee001d56:	4466                	lw	s0,88(sp)
ee001d58:	01051c93          	slli	s9,a0,0x10
ee001d5c:	44d6                	lw	s1,84(sp)
ee001d5e:	4946                	lw	s2,80(sp)
ee001d60:	49b6                	lw	s3,76(sp)

ee001d62 <.LVL629>:
ee001d62:	4a26                	lw	s4,72(sp)
ee001d64:	4a96                	lw	s5,68(sp)
ee001d66:	4b06                	lw	s6,64(sp)
ee001d68:	5bf2                	lw	s7,60(sp)
ee001d6a:	5c62                	lw	s8,56(sp)
ee001d6c:	5d42                	lw	s10,48(sp)
ee001d6e:	5db2                	lw	s11,44(sp)
ee001d70:	410cd513          	srai	a0,s9,0x10

ee001d74 <.LVL630>:
ee001d74:	5cd2                	lw	s9,52(sp)
ee001d76:	6125                	addi	sp,sp,96

ee001d78 <.LVL631>:
ee001d78:	8082                	ret

ee001d7a <.L882>:
ee001d7a:	4b12                	lw	s6,4(sp)
ee001d7c:	4ed2                	lw	t4,20(sp)
ee001d7e:	44e2                	lw	s1,24(sp)
ee001d80:	4a72                	lw	s4,28(sp)
ee001d82:	4ba2                	lw	s7,8(sp)
ee001d84:	41300433          	neg	s0,s3
ee001d88:	01db0733          	add	a4,s6,t4
ee001d8c:	00241513          	slli	a0,s0,0x2

ee001d90 <.LBB484>:
                        if (tmp>clipval) {
ee001d90:	4781                	li	a5,0
ee001d92:	4301                	li	t1,0
ee001d94:	4681                	li	a3,0

ee001d96 <.LVL633>:
ee001d96:	4601                	li	a2,0

ee001d98 <.LBB485>:
        for (i=0; i<N; i++) {
ee001d98:	00341593          	slli	a1,s0,0x3

ee001d9c <.L303>:
                for (j=0; j<N; j++) {
ee001d9c:	00e503b3          	add	t2,a0,a4
ee001da0:	407700b3          	sub	ra,a4,t2
ee001da4:	ffc08293          	addi	t0,ra,-4
ee001da8:	0022dd93          	srli	s11,t0,0x2
ee001dac:	001d8893          	addi	a7,s11,1
ee001db0:	0038fc13          	andi	s8,a7,3
        for (i=0; i<N; i++) {
ee001db4:	8e9e                	mv	t4,t2
ee001db6:	100c0d63          	beqz	s8,ee001ed0 <.L306>
ee001dba:	4805                	li	a6,1
ee001dbc:	050c0963          	beq	s8,a6,ee001e0e <.L706>
ee001dc0:	4e09                	li	t3,2
ee001dc2:	03cc0463          	beq	s8,t3,ee001dea <.L707>

ee001dc6 <.LVL635>:
                        cur=C[i*N+j];
ee001dc6:	8c9a                	mv	s9,t1

ee001dc8 <.LVL636>:
ee001dc8:	0003a303          	lw	t1,0(t2)

ee001dcc <.LVL637>:
                                ret+=10;
ee001dcc:	07c2                	slli	a5,a5,0x10
ee001dce:	0107dd13          	srli	s10,a5,0x10
                        tmp+=cur;
ee001dd2:	969a                	add	a3,a3,t1

ee001dd4 <.LVL638>:
                        if (tmp>clipval) {
ee001dd4:	1cd4d063          	bge	s1,a3,ee001f94 <.L825>
                                ret+=10;
ee001dd8:	00ad0413          	addi	s0,s10,10

ee001ddc <.LVL639>:
ee001ddc:	01041b13          	slli	s6,s0,0x10
ee001de0:	410b5793          	srai	a5,s6,0x10

ee001de4 <.LVL640>:
                                tmp=0;
ee001de4:	4681                	li	a3,0

ee001de6 <.L826>:
                for (j=0; j<N; j++) {
ee001de6:	00438e93          	addi	t4,t2,4

ee001dea <.L707>:
                        cur=C[i*N+j];
ee001dea:	809a                	mv	ra,t1

ee001dec <.LVL643>:
ee001dec:	000ea303          	lw	t1,0(t4)

ee001df0 <.LVL644>:
                                ret+=10;
ee001df0:	01079293          	slli	t0,a5,0x10
ee001df4:	0102dd93          	srli	s11,t0,0x10
                        tmp+=cur;
ee001df8:	969a                	add	a3,a3,t1

ee001dfa <.LVL645>:
                        if (tmp>clipval) {
ee001dfa:	18d4d463          	bge	s1,a3,ee001f82 <.L827>
                                ret+=10;
ee001dfe:	00ad8693          	addi	a3,s11,10

ee001e02 <.LVL646>:
ee001e02:	01069e13          	slli	t3,a3,0x10
ee001e06:	410e5793          	srai	a5,t3,0x10

ee001e0a <.LVL647>:
                                tmp=0;
ee001e0a:	4681                	li	a3,0

ee001e0c <.L828>:
                for (j=0; j<N; j++) {
ee001e0c:	0e91                	addi	t4,t4,4

ee001e0e <.L706>:
                        cur=C[i*N+j];
ee001e0e:	8c9a                	mv	s9,t1

ee001e10 <.LVL650>:
ee001e10:	000ea303          	lw	t1,0(t4)

ee001e14 <.LVL651>:
                                ret+=10;
ee001e14:	07c2                	slli	a5,a5,0x10
ee001e16:	0107dd13          	srli	s10,a5,0x10
                        tmp+=cur;
ee001e1a:	969a                	add	a3,a3,t1

ee001e1c <.LVL652>:
                        if (tmp>clipval) {
ee001e1c:	14d4d663          	bge	s1,a3,ee001f68 <.L829>
                                ret+=10;
ee001e20:	00ad0b13          	addi	s6,s10,10
ee001e24:	010b1093          	slli	ra,s6,0x10
ee001e28:	010b1293          	slli	t0,s6,0x10
ee001e2c:	0100d893          	srli	a7,ra,0x10

ee001e30 <.LVL653>:
ee001e30:	4102d793          	srai	a5,t0,0x10

ee001e34 <.LVL654>:
                                tmp=0;
ee001e34:	4681                	li	a3,0

ee001e36 <.L830>:
                for (j=0; j<N; j++) {
ee001e36:	0e91                	addi	t4,t4,4

ee001e38 <.LVL656>:
ee001e38:	09d71c63          	bne	a4,t4,ee001ed0 <.L306>

ee001e3c <.L831>:
        for (i=0; i<N; i++) {
ee001e3c:	00160d13          	addi	s10,a2,1

ee001e40 <.LVL657>:
ee001e40:	40b38733          	sub	a4,t2,a1
ee001e44:	f8cf8e63          	beq	t6,a2,ee0015e0 <.L885>
ee001e48:	866a                	mv	a2,s10
ee001e4a:	bf89                	j	ee001d9c <.L303>

ee001e4c <.L887>:
                                ret += (cur>prev) ? 1 : 0;
ee001e4c:	01b32333          	slt	t1,t1,s11
                        cur=C[i*N+j];
ee001e50:	004eaf03          	lw	t5,4(t4)
                                ret += (cur>prev) ? 1 : 0;
ee001e54:	006c0833          	add	a6,s8,t1
ee001e58:	01081e13          	slli	t3,a6,0x10
ee001e5c:	410e5793          	srai	a5,t3,0x10
                                ret+=10;
ee001e60:	01079a93          	slli	s5,a5,0x10
                        tmp+=cur;
ee001e64:	01ed0433          	add	s0,s10,t5
                for (j=0; j<N; j++) {
ee001e68:	0e91                	addi	t4,t4,4
                                ret+=10;
ee001e6a:	010ad913          	srli	s2,s5,0x10
                        if (tmp>clipval) {
ee001e6e:	0884dd63          	bge	s1,s0,ee001f08 <.L886>

ee001e72 <.L558>:
                        cur=C[i*N+j];
ee001e72:	004eae03          	lw	t3,4(t4)
                                ret+=10;
ee001e76:	00a90893          	addi	a7,s2,10
ee001e7a:	01089c13          	slli	s8,a7,0x10
ee001e7e:	410c5d93          	srai	s11,s8,0x10

ee001e82 <.LVL659>:
                                tmp=0;
ee001e82:	4401                	li	s0,0

ee001e84 <.LVL660>:
                                ret+=10;
ee001e84:	010d9313          	slli	t1,s11,0x10
                        tmp+=cur;
ee001e88:	01c406b3          	add	a3,s0,t3
                                ret+=10;
ee001e8c:	01035c93          	srli	s9,t1,0x10
                        if (tmp>clipval) {
ee001e90:	08d4de63          	bge	s1,a3,ee001f2c <.L833>

ee001e94 <.L888>:
                        cur=C[i*N+j];
ee001e94:	008ea303          	lw	t1,8(t4)
                                ret+=10;
ee001e98:	00ac8a93          	addi	s5,s9,10
ee001e9c:	010a9913          	slli	s2,s5,0x10
ee001ea0:	41095f13          	srai	t5,s2,0x10

ee001ea4 <.LVL661>:
                                tmp=0;
ee001ea4:	4681                	li	a3,0

ee001ea6 <.LVL662>:
                                ret+=10;
ee001ea6:	010f1413          	slli	s0,t5,0x10
                        tmp+=cur;
ee001eaa:	969a                	add	a3,a3,t1

ee001eac <.LVL663>:
                                ret+=10;
ee001eac:	01045b13          	srli	s6,s0,0x10
                        if (tmp>clipval) {
ee001eb0:	08d4df63          	bge	s1,a3,ee001f4e <.L835>

ee001eb4 <.L889>:
                                ret+=10;
ee001eb4:	00ab0c93          	addi	s9,s6,10
ee001eb8:	010c9e13          	slli	t3,s9,0x10
ee001ebc:	010c9813          	slli	a6,s9,0x10
ee001ec0:	010e5893          	srli	a7,t3,0x10
ee001ec4:	41085793          	srai	a5,a6,0x10

ee001ec8 <.LVL665>:
                                tmp=0;
ee001ec8:	4681                	li	a3,0

ee001eca <.L836>:
                for (j=0; j<N; j++) {
ee001eca:	0eb1                	addi	t4,t4,12
ee001ecc:	f7d708e3          	beq	a4,t4,ee001e3c <.L831>

ee001ed0 <.L306>:
                        cur=C[i*N+j];
ee001ed0:	000ead83          	lw	s11,0(t4)
                                ret+=10;
ee001ed4:	01079893          	slli	a7,a5,0x10
ee001ed8:	0108dc13          	srli	s8,a7,0x10
                        tmp+=cur;
ee001edc:	01b68d33          	add	s10,a3,s11
                        if (tmp>clipval) {
ee001ee0:	f7a4d6e3          	bge	s1,s10,ee001e4c <.L887>
                        cur=C[i*N+j];
ee001ee4:	004eaf03          	lw	t5,4(t4)
                                ret+=10;
ee001ee8:	00ac0693          	addi	a3,s8,10
ee001eec:	01069c93          	slli	s9,a3,0x10
ee001ef0:	410cd793          	srai	a5,s9,0x10

ee001ef4 <.LVL668>:
                                tmp=0;
ee001ef4:	4d01                	li	s10,0

ee001ef6 <.LVL669>:
                                ret+=10;
ee001ef6:	01079a93          	slli	s5,a5,0x10
                        tmp+=cur;
ee001efa:	01ed0433          	add	s0,s10,t5
                for (j=0; j<N; j++) {
ee001efe:	0e91                	addi	t4,t4,4
                                ret+=10;
ee001f00:	010ad913          	srli	s2,s5,0x10
                        if (tmp>clipval) {
ee001f04:	f684c7e3          	blt	s1,s0,ee001e72 <.L558>

ee001f08 <.L886>:
                                ret += (cur>prev) ? 1 : 0;
ee001f08:	01edab33          	slt	s6,s11,t5
                        cur=C[i*N+j];
ee001f0c:	004eae03          	lw	t3,4(t4)
                                ret += (cur>prev) ? 1 : 0;
ee001f10:	016900b3          	add	ra,s2,s6
ee001f14:	01009293          	slli	t0,ra,0x10
ee001f18:	4102dd93          	srai	s11,t0,0x10
                                ret+=10;
ee001f1c:	010d9313          	slli	t1,s11,0x10
                        tmp+=cur;
ee001f20:	01c406b3          	add	a3,s0,t3
                                ret+=10;
ee001f24:	01035c93          	srli	s9,t1,0x10
                        if (tmp>clipval) {
ee001f28:	f6d4c6e3          	blt	s1,a3,ee001e94 <.L888>

ee001f2c <.L833>:
                                ret += (cur>prev) ? 1 : 0;
ee001f2c:	01cf2833          	slt	a6,t5,t3
                        cur=C[i*N+j];
ee001f30:	008ea303          	lw	t1,8(t4)
                                ret += (cur>prev) ? 1 : 0;
ee001f34:	010c87b3          	add	a5,s9,a6
ee001f38:	01079d13          	slli	s10,a5,0x10
ee001f3c:	410d5f13          	srai	t5,s10,0x10

ee001f40 <.LVL670>:
                                ret+=10;
ee001f40:	010f1413          	slli	s0,t5,0x10
                        tmp+=cur;
ee001f44:	969a                	add	a3,a3,t1

ee001f46 <.LVL671>:
                                ret+=10;
ee001f46:	01045b13          	srli	s6,s0,0x10
                        if (tmp>clipval) {
ee001f4a:	f6d4c5e3          	blt	s1,a3,ee001eb4 <.L889>

ee001f4e <.L835>:
                                ret += (cur>prev) ? 1 : 0;
ee001f4e:	006e20b3          	slt	ra,t3,t1
ee001f52:	001b02b3          	add	t0,s6,ra
ee001f56:	01029d93          	slli	s11,t0,0x10
ee001f5a:	01029c13          	slli	s8,t0,0x10
ee001f5e:	010dd893          	srli	a7,s11,0x10
ee001f62:	410c5793          	srai	a5,s8,0x10
ee001f66:	b795                	j	ee001eca <.L836>

ee001f68 <.L829>:
ee001f68:	006caf33          	slt	t5,s9,t1
ee001f6c:	01ed0ab3          	add	s5,s10,t5
ee001f70:	010a9913          	slli	s2,s5,0x10
ee001f74:	010a9413          	slli	s0,s5,0x10
ee001f78:	01095893          	srli	a7,s2,0x10

ee001f7c <.LVL672>:
ee001f7c:	41045793          	srai	a5,s0,0x10
ee001f80:	bd5d                	j	ee001e36 <.L830>

ee001f82 <.L827>:
ee001f82:	0060a8b3          	slt	a7,ra,t1
ee001f86:	011d8c33          	add	s8,s11,a7

ee001f8a <.LVL674>:
ee001f8a:	010c1813          	slli	a6,s8,0x10
ee001f8e:	41085793          	srai	a5,a6,0x10
ee001f92:	bdad                	j	ee001e0c <.L828>

ee001f94 <.L825>:
ee001f94:	006caf33          	slt	t5,s9,t1
ee001f98:	01ed0ab3          	add	s5,s10,t5

ee001f9c <.LVL676>:
ee001f9c:	010a9913          	slli	s2,s5,0x10
ee001fa0:	41095793          	srai	a5,s2,0x10
ee001fa4:	b589                	j	ee001de6 <.L826>

ee001fa6 <.L884>:
ee001fa6:	4d12                	lw	s10,4(sp)
ee001fa8:	41300bb3          	neg	s7,s3
ee001fac:	002b9593          	slli	a1,s7,0x2

ee001fb0 <.LVL678>:
ee001fb0:	996a                	add	s2,s2,s10

ee001fb2 <.LBB486>:
                        if (tmp>clipval) {
ee001fb2:	4781                	li	a5,0
ee001fb4:	4881                	li	a7,0
ee001fb6:	4701                	li	a4,0
ee001fb8:	4681                	li	a3,0
        for (i=0; i<N; i++) {
ee001fba:	003b9613          	slli	a2,s7,0x3

ee001fbe <.L329>:
                for (j=0; j<N; j++) {
ee001fbe:	01258ab3          	add	s5,a1,s2
ee001fc2:	41590db3          	sub	s11,s2,s5
ee001fc6:	ffcd8513          	addi	a0,s11,-4
ee001fca:	00255f13          	srli	t5,a0,0x2
ee001fce:	001f0393          	addi	t2,t5,1
ee001fd2:	0033ff93          	andi	t6,t2,3
        for (i=0; i<N; i++) {
ee001fd6:	8ed6                	mv	t4,s5
ee001fd8:	100f8d63          	beqz	t6,ee0020f2 <.L332>
ee001fdc:	4285                	li	t0,1
ee001fde:	045f8963          	beq	t6,t0,ee002030 <.L710>
ee001fe2:	4309                	li	t1,2
ee001fe4:	026f8463          	beq	t6,t1,ee00200c <.L711>

ee001fe8 <.LVL680>:
                        cur=C[i*N+j];
ee001fe8:	8ec6                	mv	t4,a7

ee001fea <.LVL681>:
ee001fea:	000aa883          	lw	a7,0(s5)

ee001fee <.LVL682>:
                                ret+=10;
ee001fee:	07c2                	slli	a5,a5,0x10
ee001ff0:	0107d093          	srli	ra,a5,0x10
                        tmp+=cur;
ee001ff4:	9746                	add	a4,a4,a7

ee001ff6 <.LVL683>:
                        if (tmp>clipval) {
ee001ff6:	1ce4d063          	bge	s1,a4,ee0021b6 <.L812>
                                ret+=10;
ee001ffa:	00a08b13          	addi	s6,ra,10

ee001ffe <.LVL684>:
ee001ffe:	010b1b93          	slli	s7,s6,0x10
ee002002:	410bd793          	srai	a5,s7,0x10

ee002006 <.LVL685>:
                                tmp=0;
ee002006:	4701                	li	a4,0

ee002008 <.L813>:
                for (j=0; j<N; j++) {
ee002008:	004a8e93          	addi	t4,s5,4

ee00200c <.L711>:
                        cur=C[i*N+j];
ee00200c:	8d46                	mv	s10,a7

ee00200e <.LVL688>:
ee00200e:	000ea883          	lw	a7,0(t4)

ee002012 <.LVL689>:
                                ret+=10;
ee002012:	01079d93          	slli	s11,a5,0x10
ee002016:	010ddf13          	srli	t5,s11,0x10
                        tmp+=cur;
ee00201a:	9746                	add	a4,a4,a7

ee00201c <.LVL690>:
                        if (tmp>clipval) {
ee00201c:	18e4d463          	bge	s1,a4,ee0021a4 <.L814>
                                ret+=10;
ee002020:	00af0713          	addi	a4,t5,10

ee002024 <.LVL691>:
ee002024:	01071293          	slli	t0,a4,0x10
ee002028:	4102d793          	srai	a5,t0,0x10

ee00202c <.LVL692>:
                                tmp=0;
ee00202c:	4701                	li	a4,0

ee00202e <.L815>:
                for (j=0; j<N; j++) {
ee00202e:	0e91                	addi	t4,t4,4

ee002030 <.L710>:
                        cur=C[i*N+j];
ee002030:	8346                	mv	t1,a7

ee002032 <.LVL695>:
ee002032:	000ea883          	lw	a7,0(t4)

ee002036 <.LVL696>:
                                ret+=10;
ee002036:	07c2                	slli	a5,a5,0x10
ee002038:	0107d093          	srli	ra,a5,0x10
                        tmp+=cur;
ee00203c:	9746                	add	a4,a4,a7

ee00203e <.LVL697>:
                        if (tmp>clipval) {
ee00203e:	14e4d663          	bge	s1,a4,ee00218a <.L816>
                                ret+=10;
ee002042:	00a08b93          	addi	s7,ra,10
ee002046:	010b9d13          	slli	s10,s7,0x10
ee00204a:	010b9d93          	slli	s11,s7,0x10
ee00204e:	010d5393          	srli	t2,s10,0x10

ee002052 <.LVL698>:
ee002052:	410dd793          	srai	a5,s11,0x10

ee002056 <.LVL699>:
                                tmp=0;
ee002056:	4701                	li	a4,0

ee002058 <.L817>:
                for (j=0; j<N; j++) {
ee002058:	0e91                	addi	t4,t4,4

ee00205a <.LVL701>:
ee00205a:	092e9c63          	bne	t4,s2,ee0020f2 <.L332>

ee00205e <.L818>:
        for (i=0; i<N; i++) {
ee00205e:	00168093          	addi	ra,a3,1

ee002062 <.LVL702>:
ee002062:	40ca8933          	sub	s2,s5,a2
ee002066:	96de05e3          	beq	t3,a3,ee0019d0 <.L890>
ee00206a:	8686                	mv	a3,ra
ee00206c:	bf89                	j	ee001fbe <.L329>

ee00206e <.L892>:
                                ret += (cur>prev) ? 1 : 0;
ee00206e:	01e8a8b3          	slt	a7,a7,t5
                        cur=C[i*N+j];
ee002072:	004ea803          	lw	a6,4(t4)
                                ret += (cur>prev) ? 1 : 0;
ee002076:	01138fb3          	add	t6,t2,a7
ee00207a:	010f9293          	slli	t0,t6,0x10
ee00207e:	4102d793          	srai	a5,t0,0x10
                                ret+=10;
ee002082:	01079c13          	slli	s8,a5,0x10
                        tmp+=cur;
ee002086:	01008b33          	add	s6,ra,a6
                for (j=0; j<N; j++) {
ee00208a:	0e91                	addi	t4,t4,4
                                ret+=10;
ee00208c:	010c5c93          	srli	s9,s8,0x10
                        if (tmp>clipval) {
ee002090:	0964dd63          	bge	s1,s6,ee00212a <.L891>

ee002094 <.L534>:
                        cur=C[i*N+j];
ee002094:	004eaf83          	lw	t6,4(t4)
                                ret+=10;
ee002098:	00ac8513          	addi	a0,s9,10
ee00209c:	01051393          	slli	t2,a0,0x10
ee0020a0:	4103df13          	srai	t5,t2,0x10

ee0020a4 <.LVL704>:
                                tmp=0;
ee0020a4:	4b01                	li	s6,0

ee0020a6 <.LVL705>:
                                ret+=10;
ee0020a6:	010f1893          	slli	a7,t5,0x10
                        tmp+=cur;
ee0020aa:	01fb0733          	add	a4,s6,t6
                                ret+=10;
ee0020ae:	0108d293          	srli	t0,a7,0x10
                        if (tmp>clipval) {
ee0020b2:	08e4de63          	bge	s1,a4,ee00214e <.L820>

ee0020b6 <.L893>:
                        cur=C[i*N+j];
ee0020b6:	008ea883          	lw	a7,8(t4)
                                ret+=10;
ee0020ba:	00a28c13          	addi	s8,t0,10
ee0020be:	010c1c93          	slli	s9,s8,0x10
ee0020c2:	410cd813          	srai	a6,s9,0x10

ee0020c6 <.LVL706>:
                                tmp=0;
ee0020c6:	4701                	li	a4,0

ee0020c8 <.LVL707>:
                                ret+=10;
ee0020c8:	01081b13          	slli	s6,a6,0x10
                        tmp+=cur;
ee0020cc:	9746                	add	a4,a4,a7

ee0020ce <.LVL708>:
                                ret+=10;
ee0020ce:	010b5b93          	srli	s7,s6,0x10
                        if (tmp>clipval) {
ee0020d2:	08e4df63          	bge	s1,a4,ee002170 <.L822>

ee0020d6 <.L894>:
                                ret+=10;
ee0020d6:	00ab8f93          	addi	t6,s7,10
ee0020da:	010f9293          	slli	t0,t6,0x10
ee0020de:	010f9313          	slli	t1,t6,0x10
ee0020e2:	0102d393          	srli	t2,t0,0x10
ee0020e6:	41035793          	srai	a5,t1,0x10

ee0020ea <.LVL710>:
                                tmp=0;
ee0020ea:	4701                	li	a4,0

ee0020ec <.L823>:
                for (j=0; j<N; j++) {
ee0020ec:	0eb1                	addi	t4,t4,12
ee0020ee:	f72e88e3          	beq	t4,s2,ee00205e <.L818>

ee0020f2 <.L332>:
                        cur=C[i*N+j];
ee0020f2:	000eaf03          	lw	t5,0(t4)
                                ret+=10;
ee0020f6:	01079513          	slli	a0,a5,0x10
ee0020fa:	01055393          	srli	t2,a0,0x10
                        tmp+=cur;
ee0020fe:	01e700b3          	add	ra,a4,t5
                        if (tmp>clipval) {
ee002102:	f614d6e3          	bge	s1,ra,ee00206e <.L892>
                        cur=C[i*N+j];
ee002106:	004ea803          	lw	a6,4(t4)
                                ret+=10;
ee00210a:	00a38713          	addi	a4,t2,10
ee00210e:	01071313          	slli	t1,a4,0x10
ee002112:	41035793          	srai	a5,t1,0x10

ee002116 <.LVL713>:
                                tmp=0;
ee002116:	4081                	li	ra,0

ee002118 <.LVL714>:
                                ret+=10;
ee002118:	01079c13          	slli	s8,a5,0x10
                        tmp+=cur;
ee00211c:	01008b33          	add	s6,ra,a6
                for (j=0; j<N; j++) {
ee002120:	0e91                	addi	t4,t4,4
                                ret+=10;
ee002122:	010c5c93          	srli	s9,s8,0x10
                        if (tmp>clipval) {
ee002126:	f764c7e3          	blt	s1,s6,ee002094 <.L534>

ee00212a <.L891>:
                                ret += (cur>prev) ? 1 : 0;
ee00212a:	010f2bb3          	slt	s7,t5,a6
                        cur=C[i*N+j];
ee00212e:	004eaf83          	lw	t6,4(t4)
                                ret += (cur>prev) ? 1 : 0;
ee002132:	017c8d33          	add	s10,s9,s7
ee002136:	010d1d93          	slli	s11,s10,0x10
ee00213a:	410ddf13          	srai	t5,s11,0x10
                                ret+=10;
ee00213e:	010f1893          	slli	a7,t5,0x10
                        tmp+=cur;
ee002142:	01fb0733          	add	a4,s6,t6
                                ret+=10;
ee002146:	0108d293          	srli	t0,a7,0x10
                        if (tmp>clipval) {
ee00214a:	f6e4c6e3          	blt	s1,a4,ee0020b6 <.L893>

ee00214e <.L820>:
                                ret += (cur>prev) ? 1 : 0;
ee00214e:	01f82333          	slt	t1,a6,t6
                        cur=C[i*N+j];
ee002152:	008ea883          	lw	a7,8(t4)
                                ret += (cur>prev) ? 1 : 0;
ee002156:	006287b3          	add	a5,t0,t1
ee00215a:	01079093          	slli	ra,a5,0x10
ee00215e:	4100d813          	srai	a6,ra,0x10

ee002162 <.LVL715>:
                                ret+=10;
ee002162:	01081b13          	slli	s6,a6,0x10
                        tmp+=cur;
ee002166:	9746                	add	a4,a4,a7

ee002168 <.LVL716>:
                                ret+=10;
ee002168:	010b5b93          	srli	s7,s6,0x10
                        if (tmp>clipval) {
ee00216c:	f6e4c5e3          	blt	s1,a4,ee0020d6 <.L894>

ee002170 <.L822>:
                                ret += (cur>prev) ? 1 : 0;
ee002170:	011fad33          	slt	s10,t6,a7
ee002174:	01ab8db3          	add	s11,s7,s10
ee002178:	010d9f13          	slli	t5,s11,0x10
ee00217c:	010d9513          	slli	a0,s11,0x10
ee002180:	010f5393          	srli	t2,t5,0x10
ee002184:	41055793          	srai	a5,a0,0x10
ee002188:	b795                	j	ee0020ec <.L823>

ee00218a <.L816>:
ee00218a:	01132833          	slt	a6,t1,a7
ee00218e:	01008c33          	add	s8,ra,a6
ee002192:	010c1c93          	slli	s9,s8,0x10
ee002196:	010c1b13          	slli	s6,s8,0x10
ee00219a:	010cd393          	srli	t2,s9,0x10

ee00219e <.LVL717>:
ee00219e:	410b5793          	srai	a5,s6,0x10
ee0021a2:	bd5d                	j	ee002058 <.L817>

ee0021a4 <.L814>:
ee0021a4:	011d2533          	slt	a0,s10,a7
ee0021a8:	00af03b3          	add	t2,t5,a0

ee0021ac <.LVL719>:
ee0021ac:	01039f93          	slli	t6,t2,0x10
ee0021b0:	410fd793          	srai	a5,t6,0x10
ee0021b4:	bdad                	j	ee00202e <.L815>

ee0021b6 <.L812>:
ee0021b6:	011ea833          	slt	a6,t4,a7
ee0021ba:	01008c33          	add	s8,ra,a6

ee0021be <.LVL721>:
ee0021be:	010c1c93          	slli	s9,s8,0x10
ee0021c2:	410cd793          	srai	a5,s9,0x10
ee0021c6:	b589                	j	ee002008 <.L813>

ee0021c8 <.L353>:
                data >>= 1;
ee0021c8:	4681                	li	a3,0

ee0021ca <.LBB488>:
        for (i=0; i<N; i++) {
ee0021ca:	4701                	li	a4,0

ee0021cc <.LBB400>:
                crc >>= 1;
ee0021cc:	4781                	li	a5,0
ee0021ce:	a51fe06f          	j	ee000c1e <.L248>

ee0021d2 <.L357>:
        for (i=0; i<N; i++) {
ee0021d2:	4e01                	li	t3,0
ee0021d4:	4f81                	li	t6,0
ee0021d6:	e95fe06f          	j	ee00106a <.L274>

ee0021da <core_bench_matrix>:
ee_u16 core_bench_matrix(mat_params *p, ee_s16 seed, ee_u16 crc) {
ee0021da:	1141                	addi	sp,sp,-16
        crc=crc16(matrix_test(N,C,A,B,val),crc);
ee0021dc:	4514                	lw	a3,8(a0)
ee_u16 core_bench_matrix(mat_params *p, ee_s16 seed, ee_u16 crc) {
ee0021de:	872e                	mv	a4,a1

ee0021e0 <.LVL727>:
ee0021e0:	c422                	sw	s0,8(sp)
        crc=crc16(matrix_test(N,C,A,B,val),crc);
ee0021e2:	454c                	lw	a1,12(a0)

ee0021e4 <.LVL728>:
ee_u16 core_bench_matrix(mat_params *p, ee_s16 seed, ee_u16 crc) {
ee0021e4:	8432                	mv	s0,a2
        crc=crc16(matrix_test(N,C,A,B,val),crc);
ee0021e6:	4150                	lw	a2,4(a0)

ee0021e8 <.LVL729>:
ee0021e8:	4108                	lw	a0,0(a0)

ee0021ea <.LVL730>:
ee_u16 core_bench_matrix(mat_params *p, ee_s16 seed, ee_u16 crc) {
ee0021ea:	c606                	sw	ra,12(sp)
        crc=crc16(matrix_test(N,C,A,B,val),crc);
ee0021ec:	d1cfe0ef          	jal	ra,ee000708 <matrix_test>

ee0021f0 <.LBB501>:
                x16 = (ee_u8)((data & 1) ^ ((ee_u8)crc & 1));
ee0021f0:	00a446b3          	xor	a3,s0,a0

ee0021f4 <.LBE505>:
        crc=crcu8( (ee_u8) (newval)                             ,crc);
ee0021f4:	0ff57713          	andi	a4,a0,255

ee0021f8 <.LBE503>:
        crc=crc16((ee_s16) newval               ,crc);
        crc=crc16((ee_s16) (newval>>16) ,crc);
        return crc;
}
ee_u16 crc16(ee_s16 newval, ee_u16 crc) {
        return crcu16((ee_u16)newval, crc);
ee0021f8:	01051793          	slli	a5,a0,0x10

ee0021fc <.LBB510>:
                if (x16 == 1)
ee0021fc:	0016f293          	andi	t0,a3,1

ee002200 <.LBE510>:
        return crcu16((ee_u16)newval, crc);
ee002200:	0107d313          	srli	t1,a5,0x10

ee002204 <.LBB511>:
                data >>= 1;
ee002204:	00175613          	srli	a2,a4,0x1

ee002208 <.LVL733>:
                crc >>= 1;
ee002208:	00145813          	srli	a6,s0,0x1
                if (x16 == 1)
ee00220c:	00028b63          	beqz	t0,ee002222 <.L896>

ee002210 <.LVL734>:
                   crc |= 0x8000;
ee002210:	70e9                	lui	ra,0xffffa
ee002212:	00108393          	addi	t2,ra,1 # ffffa001 <STACK+0xffb1a51>
ee002216:	00784533          	xor	a0,a6,t2

ee00221a <.LVL735>:
ee00221a:	01051593          	slli	a1,a0,0x10
ee00221e:	0105d813          	srli	a6,a1,0x10

ee002222 <.L896>:
                x16 = (ee_u8)((data & 1) ^ ((ee_u8)crc & 1));
ee002222:	00c848b3          	xor	a7,a6,a2
                if (x16 == 1)
ee002226:	0018fe13          	andi	t3,a7,1
                data >>= 1;
ee00222a:	00275e93          	srli	t4,a4,0x2

ee00222e <.LVL737>:
                crc >>= 1;
ee00222e:	00185293          	srli	t0,a6,0x1
                if (x16 == 1)
ee002232:	000e0b63          	beqz	t3,ee002248 <.L897>

ee002236 <.LVL738>:
                   crc |= 0x8000;
ee002236:	7f69                	lui	t5,0xffffa
ee002238:	001f0f93          	addi	t6,t5,1 # ffffa001 <STACK+0xffb1a51>
ee00223c:	01f2c433          	xor	s0,t0,t6

ee002240 <.LVL739>:
ee002240:	01041693          	slli	a3,s0,0x10
ee002244:	0106d293          	srli	t0,a3,0x10

ee002248 <.L897>:
                x16 = (ee_u8)((data & 1) ^ ((ee_u8)crc & 1));
ee002248:	01d2c7b3          	xor	a5,t0,t4
                if (x16 == 1)
ee00224c:	0017f093          	andi	ra,a5,1
                data >>= 1;
ee002250:	00375613          	srli	a2,a4,0x3

ee002254 <.LVL741>:
                crc >>= 1;
ee002254:	0012d893          	srli	a7,t0,0x1
                if (x16 == 1)
ee002258:	00008b63          	beqz	ra,ee00226e <.L898>

ee00225c <.LVL742>:
                   crc |= 0x8000;
ee00225c:	73e9                	lui	t2,0xffffa
ee00225e:	00138593          	addi	a1,t2,1 # ffffa001 <STACK+0xffb1a51>
ee002262:	00b8c533          	xor	a0,a7,a1

ee002266 <.LVL743>:
ee002266:	01051813          	slli	a6,a0,0x10
ee00226a:	01085893          	srli	a7,a6,0x10

ee00226e <.L898>:
                x16 = (ee_u8)((data & 1) ^ ((ee_u8)crc & 1));
ee00226e:	00c8ce33          	xor	t3,a7,a2
                if (x16 == 1)
ee002272:	001e7e93          	andi	t4,t3,1
                data >>= 1;
ee002276:	00475f13          	srli	t5,a4,0x4

ee00227a <.LVL745>:
                crc >>= 1;
ee00227a:	0018d793          	srli	a5,a7,0x1
                if (x16 == 1)
ee00227e:	000e8b63          	beqz	t4,ee002294 <.L899>

ee002282 <.LVL746>:
                   crc |= 0x8000;
ee002282:	7fe9                	lui	t6,0xffffa
ee002284:	001f8413          	addi	s0,t6,1 # ffffa001 <STACK+0xffb1a51>
ee002288:	0087c6b3          	xor	a3,a5,s0

ee00228c <.LVL747>:
ee00228c:	01069293          	slli	t0,a3,0x10
ee002290:	0102d793          	srli	a5,t0,0x10

ee002294 <.L899>:
                x16 = (ee_u8)((data & 1) ^ ((ee_u8)crc & 1));
ee002294:	01e7c0b3          	xor	ra,a5,t5
                if (x16 == 1)
ee002298:	0010f393          	andi	t2,ra,1
                data >>= 1;
ee00229c:	00575613          	srli	a2,a4,0x5

ee0022a0 <.LVL749>:
                crc >>= 1;
ee0022a0:	0017de13          	srli	t3,a5,0x1
                if (x16 == 1)
ee0022a4:	00038b63          	beqz	t2,ee0022ba <.L900>

ee0022a8 <.LVL750>:
                   crc |= 0x8000;
ee0022a8:	75e9                	lui	a1,0xffffa
ee0022aa:	00158813          	addi	a6,a1,1 # ffffa001 <STACK+0xffb1a51>
ee0022ae:	010e4533          	xor	a0,t3,a6

ee0022b2 <.LVL751>:
ee0022b2:	01051893          	slli	a7,a0,0x10
ee0022b6:	0108de13          	srli	t3,a7,0x10

ee0022ba <.L900>:
                x16 = (ee_u8)((data & 1) ^ ((ee_u8)crc & 1));
ee0022ba:	00ce4eb3          	xor	t4,t3,a2
                if (x16 == 1)
ee0022be:	001eff13          	andi	t5,t4,1
                data >>= 1;
ee0022c2:	00675f93          	srli	t6,a4,0x6

ee0022c6 <.LVL753>:
                crc >>= 1;
ee0022c6:	001e5093          	srli	ra,t3,0x1
                if (x16 == 1)
ee0022ca:	000f0b63          	beqz	t5,ee0022e0 <.L901>

ee0022ce <.LVL754>:
                   crc |= 0x8000;
ee0022ce:	7469                	lui	s0,0xffffa
ee0022d0:	00140693          	addi	a3,s0,1 # ffffa001 <STACK+0xffb1a51>
ee0022d4:	00d0c2b3          	xor	t0,ra,a3

ee0022d8 <.LVL755>:
ee0022d8:	01029793          	slli	a5,t0,0x10
ee0022dc:	0107d093          	srli	ra,a5,0x10

ee0022e0 <.L901>:
                x16 = (ee_u8)((data & 1) ^ ((ee_u8)crc & 1));
ee0022e0:	01f0c3b3          	xor	t2,ra,t6
                if (x16 == 1)
ee0022e4:	0013f613          	andi	a2,t2,1
                data >>= 1;
ee0022e8:	831d                	srli	a4,a4,0x7

ee0022ea <.LVL757>:
                crc >>= 1;
ee0022ea:	0010de13          	srli	t3,ra,0x1
                if (x16 == 1)
ee0022ee:	ca11                	beqz	a2,ee002302 <.L902>

ee0022f0 <.LVL758>:
                   crc |= 0x8000;
ee0022f0:	75e9                	lui	a1,0xffffa
ee0022f2:	00158813          	addi	a6,a1,1 # ffffa001 <STACK+0xffb1a51>
ee0022f6:	010e4533          	xor	a0,t3,a6

ee0022fa <.LVL759>:
ee0022fa:	01051893          	slli	a7,a0,0x10
ee0022fe:	0108de13          	srli	t3,a7,0x10

ee002302 <.L902>:
                if (x16 == 1)
ee002302:	001e7e93          	andi	t4,t3,1
                crc >>= 1;
ee002306:	001e5293          	srli	t0,t3,0x1
                if (x16 == 1)
ee00230a:	12ee9c63          	bne	t4,a4,ee002442 <.L961>

ee00230e <.L903>:
        crc=crcu8( (ee_u8) ((newval)>>8)        ,crc);
ee00230e:	00835793          	srli	a5,t1,0x8

ee002312 <.LBB512>:
                x16 = (ee_u8)((data & 1) ^ ((ee_u8)crc & 1));
ee002312:	0057c0b3          	xor	ra,a5,t0
                if (x16 == 1)
ee002316:	0010f393          	andi	t2,ra,1

ee00231a <.LBE512>:
        crc=crcu8( (ee_u8) ((newval)>>8)        ,crc);
ee00231a:	00835613          	srli	a2,t1,0x8

ee00231e <.LBB515>:
                data >>= 1;
ee00231e:	0012d893          	srli	a7,t0,0x1
ee002322:	00935313          	srli	t1,t1,0x9

ee002326 <.LVL763>:
                if (x16 == 1)
ee002326:	00038b63          	beqz	t2,ee00233c <.L904>

ee00232a <.LVL764>:
                   crc |= 0x8000;
ee00232a:	7769                	lui	a4,0xffffa
ee00232c:	00170593          	addi	a1,a4,1 # ffffa001 <STACK+0xffb1a51>
ee002330:	00b8c833          	xor	a6,a7,a1

ee002334 <.LVL765>:
ee002334:	01081513          	slli	a0,a6,0x10
ee002338:	01055893          	srli	a7,a0,0x10

ee00233c <.L904>:
                x16 = (ee_u8)((data & 1) ^ ((ee_u8)crc & 1));
ee00233c:	01134e33          	xor	t3,t1,a7
                if (x16 == 1)
ee002340:	001e7e93          	andi	t4,t3,1
                data >>= 1;
ee002344:	00265f13          	srli	t5,a2,0x2

ee002348 <.LVL767>:
                if (x16 == 1)
ee002348:	0018d093          	srli	ra,a7,0x1
ee00234c:	000e8b63          	beqz	t4,ee002362 <.L905>

ee002350 <.LVL768>:
                   crc |= 0x8000;
ee002350:	7fe9                	lui	t6,0xffffa
ee002352:	001f8413          	addi	s0,t6,1 # ffffa001 <STACK+0xffb1a51>
ee002356:	0080c6b3          	xor	a3,ra,s0

ee00235a <.LVL769>:
ee00235a:	01069293          	slli	t0,a3,0x10
ee00235e:	0102d093          	srli	ra,t0,0x10

ee002362 <.L905>:
                x16 = (ee_u8)((data & 1) ^ ((ee_u8)crc & 1));
ee002362:	01e0c7b3          	xor	a5,ra,t5
                if (x16 == 1)
ee002366:	0017f393          	andi	t2,a5,1
                data >>= 1;
ee00236a:	00365313          	srli	t1,a2,0x3

ee00236e <.LVL771>:
                if (x16 == 1)
ee00236e:	0010d893          	srli	a7,ra,0x1
ee002372:	00038b63          	beqz	t2,ee002388 <.L906>

ee002376 <.LVL772>:
                   crc |= 0x8000;
ee002376:	7769                	lui	a4,0xffffa
ee002378:	00170593          	addi	a1,a4,1 # ffffa001 <STACK+0xffb1a51>
ee00237c:	00b8c833          	xor	a6,a7,a1

ee002380 <.LVL773>:
ee002380:	01081513          	slli	a0,a6,0x10
ee002384:	01055893          	srli	a7,a0,0x10

ee002388 <.L906>:
                x16 = (ee_u8)((data & 1) ^ ((ee_u8)crc & 1));
ee002388:	0068ce33          	xor	t3,a7,t1
                if (x16 == 1)
ee00238c:	001e7e93          	andi	t4,t3,1
                data >>= 1;
ee002390:	00465f13          	srli	t5,a2,0x4

ee002394 <.LVL775>:
                if (x16 == 1)
ee002394:	0018d093          	srli	ra,a7,0x1
ee002398:	000e8b63          	beqz	t4,ee0023ae <.L907>

ee00239c <.LVL776>:
                   crc |= 0x8000;
ee00239c:	7fe9                	lui	t6,0xffffa
ee00239e:	001f8413          	addi	s0,t6,1 # ffffa001 <STACK+0xffb1a51>
ee0023a2:	0080c6b3          	xor	a3,ra,s0

ee0023a6 <.LVL777>:
ee0023a6:	01069293          	slli	t0,a3,0x10
ee0023aa:	0102d093          	srli	ra,t0,0x10

ee0023ae <.L907>:
                x16 = (ee_u8)((data & 1) ^ ((ee_u8)crc & 1));
ee0023ae:	01e0c7b3          	xor	a5,ra,t5
                if (x16 == 1)
ee0023b2:	0017f393          	andi	t2,a5,1
                data >>= 1;
ee0023b6:	00565313          	srli	t1,a2,0x5

ee0023ba <.LVL779>:
                if (x16 == 1)
ee0023ba:	0010d893          	srli	a7,ra,0x1
ee0023be:	00038b63          	beqz	t2,ee0023d4 <.L908>

ee0023c2 <.LVL780>:
                   crc |= 0x8000;
ee0023c2:	7769                	lui	a4,0xffffa
ee0023c4:	00170593          	addi	a1,a4,1 # ffffa001 <STACK+0xffb1a51>
ee0023c8:	00b8c833          	xor	a6,a7,a1

ee0023cc <.LVL781>:
ee0023cc:	01081513          	slli	a0,a6,0x10
ee0023d0:	01055893          	srli	a7,a0,0x10

ee0023d4 <.L908>:
                x16 = (ee_u8)((data & 1) ^ ((ee_u8)crc & 1));
ee0023d4:	0068ce33          	xor	t3,a7,t1
                if (x16 == 1)
ee0023d8:	001e7e93          	andi	t4,t3,1
                data >>= 1;
ee0023dc:	00665f13          	srli	t5,a2,0x6

ee0023e0 <.LVL783>:
                if (x16 == 1)
ee0023e0:	0018d093          	srli	ra,a7,0x1
ee0023e4:	000e8b63          	beqz	t4,ee0023fa <.L909>

ee0023e8 <.LVL784>:
                   crc |= 0x8000;
ee0023e8:	7fe9                	lui	t6,0xffffa
ee0023ea:	001f8413          	addi	s0,t6,1 # ffffa001 <STACK+0xffb1a51>
ee0023ee:	0080c6b3          	xor	a3,ra,s0

ee0023f2 <.LVL785>:
ee0023f2:	01069293          	slli	t0,a3,0x10
ee0023f6:	0102d093          	srli	ra,t0,0x10

ee0023fa <.L909>:
                x16 = (ee_u8)((data & 1) ^ ((ee_u8)crc & 1));
ee0023fa:	01e0c7b3          	xor	a5,ra,t5
                if (x16 == 1)
ee0023fe:	0017f393          	andi	t2,a5,1
                data >>= 1;
ee002402:	821d                	srli	a2,a2,0x7

ee002404 <.LVL787>:
                if (x16 == 1)
ee002404:	0010d513          	srli	a0,ra,0x1
ee002408:	00038b63          	beqz	t2,ee00241e <.L910>

ee00240c <.LVL788>:
                   crc |= 0x8000;
ee00240c:	7369                	lui	t1,0xffffa
ee00240e:	00130713          	addi	a4,t1,1 # ffffa001 <STACK+0xffb1a51>
ee002412:	00e545b3          	xor	a1,a0,a4

ee002416 <.LVL789>:
ee002416:	01059813          	slli	a6,a1,0x10
ee00241a:	01085513          	srli	a0,a6,0x10

ee00241e <.L910>:
                if (x16 == 1)
ee00241e:	00157893          	andi	a7,a0,1
ee002422:	8105                	srli	a0,a0,0x1
ee002424:	00c88b63          	beq	a7,a2,ee00243a <.L911>

ee002428 <.LVL791>:
                   crc |= 0x8000;
ee002428:	7e69                	lui	t3,0xffffa
ee00242a:	001e0e93          	addi	t4,t3,1 # ffffa001 <STACK+0xffb1a51>
ee00242e:	01d54f33          	xor	t5,a0,t4
ee002432:	010f1f93          	slli	t6,t5,0x10
ee002436:	010fd513          	srli	a0,t6,0x10

ee00243a <.L911>:
}
ee00243a:	40b2                	lw	ra,12(sp)
ee00243c:	4422                	lw	s0,8(sp)
ee00243e:	0141                	addi	sp,sp,16
ee002440:	8082                	ret

ee002442 <.L961>:
                   crc |= 0x8000;
ee002442:	7f69                	lui	t5,0xffffa
ee002444:	001f0f93          	addi	t6,t5,1 # ffffa001 <STACK+0xffb1a51>
ee002448:	01f2c433          	xor	s0,t0,t6

ee00244c <.LVL794>:
ee00244c:	01041693          	slli	a3,s0,0x10
ee002450:	0106d293          	srli	t0,a3,0x10

ee002454 <.LVL795>:
ee002454:	bd6d                	j	ee00230e <.L903>

ee002456 <core_init_matrix>:
ee_u32 core_init_matrix(ee_u32 blksize, void *memblk, ee_s32 seed, mat_params *p) {
ee002456:	7179                	addi	sp,sp,-48
ee002458:	d24a                	sw	s2,36(sp)
ee00245a:	d622                	sw	s0,44(sp)
ee00245c:	d426                	sw	s1,40(sp)
ee00245e:	d04e                	sw	s3,32(sp)
ee002460:	ce52                	sw	s4,28(sp)
ee002462:	cc56                	sw	s5,24(sp)
ee002464:	ca5a                	sw	s6,20(sp)
ee002466:	c85e                	sw	s7,16(sp)
ee002468:	c662                	sw	s8,12(sp)
ee00246a:	c466                	sw	s9,8(sp)
ee00246c:	c26a                	sw	s10,4(sp)
ee00246e:	872a                	mv	a4,a0

ee002470 <.LVL797>:
ee002470:	8936                	mv	s2,a3
        if (seed==0)
ee002472:	e211                	bnez	a2,ee002476 <.L963>
                seed=1;
ee002474:	4605                	li	a2,1

ee002476 <.L963>:
        A=(MATDAT *)align_mem(memblk);
ee002476:	15fd                	addi	a1,a1,-1

ee002478 <.LVL799>:
ee002478:	ffc5f413          	andi	s0,a1,-4
ee00247c:	00440a13          	addi	s4,s0,4
        while (j<blksize) {
ee002480:	4781                	li	a5,0
ee002482:	34070263          	beqz	a4,ee0027c6 <.L1012>

ee002486 <.L964>:
                i++;
ee002486:	00178293          	addi	t0,a5,1

ee00248a <.LVL801>:
                j=i*i*2*4;
ee00248a:	025286b3          	mul	a3,t0,t0
                i++;
ee00248e:	00278813          	addi	a6,a5,2
ee002492:	00378e13          	addi	t3,a5,3
ee002496:	00478f13          	addi	t5,a5,4
ee00249a:	00578e93          	addi	t4,a5,5
ee00249e:	00678893          	addi	a7,a5,6
ee0024a2:	00778313          	addi	t1,a5,7
        while (j<blksize) {
ee0024a6:	853e                	mv	a0,a5
                i++;
ee0024a8:	07a1                	addi	a5,a5,8
                j=i*i*2*4;
ee0024aa:	00369393          	slli	t2,a3,0x3
        while (j<blksize) {
ee0024ae:	06e3f363          	bgeu	t2,a4,ee002514 <.L1007>
                j=i*i*2*4;
ee0024b2:	030809b3          	mul	s3,a6,a6
ee0024b6:	8516                	mv	a0,t0
ee0024b8:	00399b13          	slli	s6,s3,0x3
        while (j<blksize) {
ee0024bc:	04eb7c63          	bgeu	s6,a4,ee002514 <.L1007>
                j=i*i*2*4;
ee0024c0:	03ce0bb3          	mul	s7,t3,t3
ee0024c4:	8542                	mv	a0,a6
ee0024c6:	003b9c13          	slli	s8,s7,0x3
        while (j<blksize) {
ee0024ca:	04ec7563          	bgeu	s8,a4,ee002514 <.L1007>
                j=i*i*2*4;
ee0024ce:	03ef0cb3          	mul	s9,t5,t5
ee0024d2:	8572                	mv	a0,t3
ee0024d4:	003c9d13          	slli	s10,s9,0x3
        while (j<blksize) {
ee0024d8:	02ed7e63          	bgeu	s10,a4,ee002514 <.L1007>
                j=i*i*2*4;
ee0024dc:	03de8fb3          	mul	t6,t4,t4
ee0024e0:	857a                	mv	a0,t5
ee0024e2:	003f9593          	slli	a1,t6,0x3
        while (j<blksize) {
ee0024e6:	02e5f763          	bgeu	a1,a4,ee002514 <.L1007>
                j=i*i*2*4;
ee0024ea:	03188433          	mul	s0,a7,a7
ee0024ee:	8576                	mv	a0,t4
ee0024f0:	00341a93          	slli	s5,s0,0x3
        while (j<blksize) {
ee0024f4:	02eaf063          	bgeu	s5,a4,ee002514 <.L1007>
                j=i*i*2*4;
ee0024f8:	026304b3          	mul	s1,t1,t1
ee0024fc:	8546                	mv	a0,a7
ee0024fe:	00349293          	slli	t0,s1,0x3
        while (j<blksize) {
ee002502:	00e2f963          	bgeu	t0,a4,ee002514 <.L1007>
                j=i*i*2*4;
ee002506:	02f78833          	mul	a6,a5,a5
ee00250a:	851a                	mv	a0,t1
ee00250c:	00381e13          	slli	t3,a6,0x3
        while (j<blksize) {
ee002510:	f6ee6be3          	bltu	t3,a4,ee002486 <.L964>

ee002514 <.L1007>:
        B=A+N*N;
ee002514:	02a50733          	mul	a4,a0,a0

ee002518 <.LVL803>:
        p->N=N;
ee002518:	8aaa                	mv	s5,a0
        B=A+N*N;
ee00251a:	00171493          	slli	s1,a4,0x1
ee00251e:	009a0433          	add	s0,s4,s1

ee002522 <.LVL804>:
        for (i=0; i<N; i++) {
ee002522:	26050663          	beqz	a0,ee00278e <.L968>

ee002526 <.L967>:
                        seed = ( ( order * seed ) % 65536 );
ee002526:	6ec1                	lui	t4,0x10
        B=A+N*N;
ee002528:	4681                	li	a3,0
ee00252a:	4381                	li	t2,0
ee00252c:	4f85                	li	t6,1
ee00252e:	408a0f33          	sub	t5,s4,s0
                        seed = ( ( order * seed ) % 65536 );
ee002532:	1efd                	addi	t4,t4,-1
                        order++;
ee002534:	fff50993          	addi	s3,a0,-1

ee002538 <.L972>:
                        seed = ( ( order * seed ) % 65536 );
ee002538:	03f60633          	mul	a2,a2,t6
ee00253c:	010f9893          	slli	a7,t6,0x10
ee002540:	0108d793          	srli	a5,a7,0x10
ee002544:	00169313          	slli	t1,a3,0x1
ee002548:	00830b33          	add	s6,t1,s0
ee00254c:	fff50c13          	addi	s8,a0,-1
ee002550:	003c7c93          	andi	s9,s8,3

ee002554 <.LVL807>:
                        A[i*N+j] = val;
ee002554:	016f0bb3          	add	s7,t5,s6
                for (j=0; j<N; j++) {
ee002558:	4e05                	li	t3,1
                        order++;
ee00255a:	001f8813          	addi	a6,t6,1
                        seed = ( ( order * seed ) % 65536 );
ee00255e:	41f65d13          	srai	s10,a2,0x1f
ee002562:	010d5293          	srli	t0,s10,0x10
ee002566:	00560733          	add	a4,a2,t0
ee00256a:	01d77633          	and	a2,a4,t4

ee00256e <.LVL808>:
ee00256e:	40560633          	sub	a2,a2,t0

ee002572 <.LVL809>:
                        val = (seed + order);
ee002572:	00c788b3          	add	a7,a5,a2
ee002576:	01089313          	slli	t1,a7,0x10
ee00257a:	01035c13          	srli	s8,t1,0x10
                        val =  (val + order);
ee00257e:	97e2                	add	a5,a5,s8
                        B[i*N+j] = val;
ee002580:	018b1023          	sh	s8,0(s6)
                        val=matrix_clip(val,1);
ee002584:	0ff7fd13          	andi	s10,a5,255
                        A[i*N+j] = val;
ee002588:	01ab9023          	sh	s10,0(s7)

ee00258c <.LVL811>:
                for (j=0; j<N; j++) {
ee00258c:	002b0593          	addi	a1,s6,2
ee002590:	1eae7663          	bgeu	t3,a0,ee00277c <.L1009>
ee002594:	0e0c8363          	beqz	s9,ee00267a <.L969>
ee002598:	09cc8c63          	beq	s9,t3,ee002630 <.L997>
ee00259c:	4b89                	li	s7,2
ee00259e:	057c8663          	beq	s9,s7,ee0025ea <.L998>
                        seed = ( ( order * seed ) % 65536 );
ee0025a2:	03060cb3          	mul	s9,a2,a6
ee0025a6:	0842                	slli	a6,a6,0x10

ee0025a8 <.LVL812>:
ee0025a8:	01085293          	srli	t0,a6,0x10
                        A[i*N+j] = val;
ee0025ac:	00bf08b3          	add	a7,t5,a1
                for (j=0; j<N; j++) {
ee0025b0:	004b0593          	addi	a1,s6,4
                        order++;
ee0025b4:	002f8813          	addi	a6,t6,2
                for (j=0; j<N; j++) {
ee0025b8:	4e09                	li	t3,2
                        seed = ( ( order * seed ) % 65536 );
ee0025ba:	41fcd713          	srai	a4,s9,0x1f
ee0025be:	01075313          	srli	t1,a4,0x10
ee0025c2:	006c8633          	add	a2,s9,t1

ee0025c6 <.LVL813>:
ee0025c6:	01d67c33          	and	s8,a2,t4

ee0025ca <.LVL814>:
ee0025ca:	406c0633          	sub	a2,s8,t1

ee0025ce <.LVL815>:
                        val = (seed + order);
ee0025ce:	00c287b3          	add	a5,t0,a2
ee0025d2:	01079d13          	slli	s10,a5,0x10
ee0025d6:	010d5b93          	srli	s7,s10,0x10
                        val =  (val + order);
ee0025da:	005b8cb3          	add	s9,s7,t0
                        B[i*N+j] = val;
ee0025de:	017b1123          	sh	s7,2(s6)
                        val=matrix_clip(val,1);
ee0025e2:	0ffcfb13          	andi	s6,s9,255
                        A[i*N+j] = val;
ee0025e6:	01689023          	sh	s6,0(a7)

ee0025ea <.L998>:
                        seed = ( ( order * seed ) % 65536 );
ee0025ea:	030602b3          	mul	t0,a2,a6
ee0025ee:	01081893          	slli	a7,a6,0x10
ee0025f2:	0108d313          	srli	t1,a7,0x10
                        A[i*N+j] = val;
ee0025f6:	00bf0c33          	add	s8,t5,a1
                for (j=0; j<N; j++) {
ee0025fa:	0e05                	addi	t3,t3,1
                        val = (seed + order);
ee0025fc:	0805                	addi	a6,a6,1
                for (j=0; j<N; j++) {
ee0025fe:	0589                	addi	a1,a1,2
                        seed = ( ( order * seed ) % 65536 );
ee002600:	41f2d713          	srai	a4,t0,0x1f
ee002604:	01075793          	srli	a5,a4,0x10
ee002608:	00f28633          	add	a2,t0,a5

ee00260c <.LVL817>:
ee00260c:	01d67d33          	and	s10,a2,t4

ee002610 <.LVL818>:
ee002610:	40fd0633          	sub	a2,s10,a5

ee002614 <.LVL819>:
                        val = (seed + order);
ee002614:	00c30bb3          	add	s7,t1,a2
ee002618:	010b9c93          	slli	s9,s7,0x10
ee00261c:	010cdb13          	srli	s6,s9,0x10
                        val =  (val + order);
ee002620:	006b02b3          	add	t0,s6,t1
                        B[i*N+j] = val;
ee002624:	ff659f23          	sh	s6,-2(a1)
                        val=matrix_clip(val,1);
ee002628:	0ff2f893          	andi	a7,t0,255
                        A[i*N+j] = val;
ee00262c:	011c1023          	sh	a7,0(s8)

ee002630 <.L997>:
                        seed = ( ( order * seed ) % 65536 );
ee002630:	03060333          	mul	t1,a2,a6
ee002634:	01081c13          	slli	s8,a6,0x10
ee002638:	010c5793          	srli	a5,s8,0x10
                        A[i*N+j] = val;
ee00263c:	00bf0d33          	add	s10,t5,a1
                for (j=0; j<N; j++) {
ee002640:	0589                	addi	a1,a1,2
ee002642:	0e05                	addi	t3,t3,1
                        val = (seed + order);
ee002644:	0805                	addi	a6,a6,1
                        seed = ( ( order * seed ) % 65536 );
ee002646:	41f35713          	srai	a4,t1,0x1f
ee00264a:	01075b93          	srli	s7,a4,0x10
ee00264e:	01730633          	add	a2,t1,s7

ee002652 <.LVL820>:
ee002652:	01d67cb3          	and	s9,a2,t4

ee002656 <.LVL821>:
ee002656:	417c8633          	sub	a2,s9,s7

ee00265a <.LVL822>:
                        val = (seed + order);
ee00265a:	00c78b33          	add	s6,a5,a2
ee00265e:	010b1293          	slli	t0,s6,0x10
ee002662:	0102d893          	srli	a7,t0,0x10
                        val =  (val + order);
ee002666:	00f88333          	add	t1,a7,a5
                        B[i*N+j] = val;
ee00266a:	ff159f23          	sh	a7,-2(a1)
                        val=matrix_clip(val,1);
ee00266e:	0ff37c13          	andi	s8,t1,255
                        A[i*N+j] = val;
ee002672:	018d1023          	sh	s8,0(s10)
                for (j=0; j<N; j++) {
ee002676:	10ae7363          	bgeu	t3,a0,ee00277c <.L1009>

ee00267a <.L969>:
                        seed = ( ( order * seed ) % 65536 );
ee00267a:	03060633          	mul	a2,a2,a6

ee00267e <.LVL823>:
                        order++;
ee00267e:	00280793          	addi	a5,a6,2
ee002682:	00380b13          	addi	s6,a6,3
ee002686:	01081d13          	slli	s10,a6,0x10
ee00268a:	010d5293          	srli	t0,s10,0x10
ee00268e:	01079893          	slli	a7,a5,0x10
ee002692:	010b1d13          	slli	s10,s6,0x10
ee002696:	0108d313          	srli	t1,a7,0x10
ee00269a:	010d5893          	srli	a7,s10,0x10
ee00269e:	00180713          	addi	a4,a6,1
                        seed = ( ( order * seed ) % 65536 );
ee0026a2:	41f65d13          	srai	s10,a2,0x1f
ee0026a6:	010d5d13          	srli	s10,s10,0x10
ee0026aa:	966a                	add	a2,a2,s10
ee0026ac:	01d67633          	and	a2,a2,t4
ee0026b0:	41a60d33          	sub	s10,a2,s10
                        val = (seed + order);
ee0026b4:	01071b93          	slli	s7,a4,0x10
                        seed = ( ( order * seed ) % 65536 );
ee0026b8:	02ed0733          	mul	a4,s10,a4
                        val = (seed + order);
ee0026bc:	01a28633          	add	a2,t0,s10
ee0026c0:	01061d13          	slli	s10,a2,0x10
ee0026c4:	010d5613          	srli	a2,s10,0x10
                        val =  (val + order);
ee0026c8:	92b2                	add	t0,t0,a2
                        A[i*N+j] = val;
ee0026ca:	00bf0cb3          	add	s9,t5,a1
                        B[i*N+j] = val;
ee0026ce:	00c59023          	sh	a2,0(a1)

ee0026d2 <.LVL824>:
                        val=matrix_clip(val,1);
ee0026d2:	0ff2fd13          	andi	s10,t0,255
                        A[i*N+j] = val;
ee0026d6:	01ac9023          	sh	s10,0(s9)
ee0026da:	8c66                	mv	s8,s9
ee0026dc:	8666                	mv	a2,s9
ee0026de:	82e6                	mv	t0,s9

ee0026e0 <.LVL825>:
                        seed = ( ( order * seed ) % 65536 );
ee0026e0:	41f75c93          	srai	s9,a4,0x1f
ee0026e4:	010cdd13          	srli	s10,s9,0x10
ee0026e8:	976a                	add	a4,a4,s10
ee0026ea:	01d77cb3          	and	s9,a4,t4
ee0026ee:	41ac8d33          	sub	s10,s9,s10
ee0026f2:	02fd07b3          	mul	a5,s10,a5
ee0026f6:	010bdb93          	srli	s7,s7,0x10
                        val = (seed + order);
ee0026fa:	01ab8733          	add	a4,s7,s10
ee0026fe:	01071c93          	slli	s9,a4,0x10
ee002702:	010cdd13          	srli	s10,s9,0x10
                        val =  (val + order);
ee002706:	9bea                	add	s7,s7,s10
                        B[i*N+j] = val;
ee002708:	01a59123          	sh	s10,2(a1)
                        val=matrix_clip(val,1);
ee00270c:	0ffbf713          	andi	a4,s7,255
                        A[i*N+j] = val;
ee002710:	00ec1123          	sh	a4,2(s8)
                for (j=0; j<N; j++) {
ee002714:	05a1                	addi	a1,a1,8
                        seed = ( ( order * seed ) % 65536 );
ee002716:	41f7dc13          	srai	s8,a5,0x1f
ee00271a:	010c5c93          	srli	s9,s8,0x10
ee00271e:	97e6                	add	a5,a5,s9
ee002720:	01d7fd33          	and	s10,a5,t4
ee002724:	419d0bb3          	sub	s7,s10,s9
ee002728:	036b8b33          	mul	s6,s7,s6
                        val = (seed + order);
ee00272c:	01730733          	add	a4,t1,s7
ee002730:	01071c13          	slli	s8,a4,0x10
ee002734:	010c5c93          	srli	s9,s8,0x10
                        val =  (val + order);
ee002738:	9366                	add	t1,t1,s9
                        B[i*N+j] = val;
ee00273a:	ff959e23          	sh	s9,-4(a1)
                        val=matrix_clip(val,1);
ee00273e:	0ff37793          	andi	a5,t1,255
                        A[i*N+j] = val;
ee002742:	00f61223          	sh	a5,4(a2)
                for (j=0; j<N; j++) {
ee002746:	0e11                	addi	t3,t3,4
                        order++;
ee002748:	0811                	addi	a6,a6,4
                        seed = ( ( order * seed ) % 65536 );
ee00274a:	41fb5613          	srai	a2,s6,0x1f
ee00274e:	01065d13          	srli	s10,a2,0x10
ee002752:	01ab0bb3          	add	s7,s6,s10
ee002756:	01dbfb33          	and	s6,s7,t4

ee00275a <.LVL826>:
ee00275a:	41ab0633          	sub	a2,s6,s10

ee00275e <.LVL827>:
                        val = (seed + order);
ee00275e:	00c88733          	add	a4,a7,a2
ee002762:	01071c13          	slli	s8,a4,0x10
ee002766:	010c5c93          	srli	s9,s8,0x10
                        val =  (val + order);
ee00276a:	98e6                	add	a7,a7,s9
                        B[i*N+j] = val;
ee00276c:	ff959f23          	sh	s9,-2(a1)
                        val=matrix_clip(val,1);
ee002770:	0ff8f313          	andi	t1,a7,255
                        A[i*N+j] = val;
ee002774:	00629323          	sh	t1,6(t0)

ee002778 <.LVL828>:
                for (j=0; j<N; j++) {
ee002778:	f0ae61e3          	bltu	t3,a0,ee00267a <.L969>

ee00277c <.L1009>:
ee00277c:	0f85                	addi	t6,t6,1
                        order++;
ee00277e:	4e01                	li	t3,0
ee002780:	c111                	beqz	a0,ee002784 <.L971>
ee002782:	8e4e                	mv	t3,s3

ee002784 <.L971>:
        for (i=0; i<N; i++) {
ee002784:	0385                	addi	t2,t2,1

ee002786 <.LVL830>:
                        order++;
ee002786:	9ff2                	add	t6,t6,t3

ee002788 <.LVL831>:
        for (i=0; i<N; i++) {
ee002788:	96aa                	add	a3,a3,a0
ee00278a:	daa3e7e3          	bltu	t2,a0,ee002538 <.L972>

ee00278e <.L968>:
        p->C=(MATRES *)align_mem(B+N*N);
ee00278e:	94a2                	add	s1,s1,s0
ee002790:	fff48693          	addi	a3,s1,-1
        p->B=B;
ee002794:	00892423          	sw	s0,8(s2)
        p->C=(MATRES *)align_mem(B+N*N);
ee002798:	ffc6f393          	andi	t2,a3,-4
}
ee00279c:	5432                	lw	s0,44(sp)
        p->C=(MATRES *)align_mem(B+N*N);
ee00279e:	00438f13          	addi	t5,t2,4
        p->A=A;
ee0027a2:	01492223          	sw	s4,4(s2)
        p->N=N;
ee0027a6:	01592023          	sw	s5,0(s2)
        p->C=(MATRES *)align_mem(B+N*N);
ee0027aa:	01e92623          	sw	t5,12(s2)
}
ee0027ae:	54a2                	lw	s1,40(sp)
ee0027b0:	5912                	lw	s2,36(sp)

ee0027b2 <.LVL833>:
ee0027b2:	5982                	lw	s3,32(sp)
ee0027b4:	4a72                	lw	s4,28(sp)
ee0027b6:	4ae2                	lw	s5,24(sp)
ee0027b8:	4b52                	lw	s6,20(sp)
ee0027ba:	4bc2                	lw	s7,16(sp)
ee0027bc:	4c32                	lw	s8,12(sp)
ee0027be:	4ca2                	lw	s9,8(sp)
ee0027c0:	4d12                	lw	s10,4(sp)
ee0027c2:	6145                	addi	sp,sp,48
ee0027c4:	8082                	ret

ee0027c6 <.L1012>:
        B=A+N*N;
ee0027c6:	0419                	addi	s0,s0,6

ee0027c8 <.LVL835>:
ee0027c8:	5afd                	li	s5,-1
        N=i-1;
ee0027ca:	557d                	li	a0,-1

ee0027cc <.LVL836>:
        B=A+N*N;
ee0027cc:	4489                	li	s1,2
ee0027ce:	bba1                	j	ee002526 <.L967>

ee0027d0 <matrix_sum>:
ee_s16 matrix_sum(ee_u32 N, MATRES *C, MATDAT clipval) {
ee0027d0:	882a                	mv	a6,a0
        for (i=0; i<N; i++) {
ee0027d2:	3e050663          	beqz	a0,ee002bbe <.L1019>
ee0027d6:	40a008b3          	neg	a7,a0
ee0027da:	00251713          	slli	a4,a0,0x2
ee0027de:	972e                	add	a4,a4,a1
ee0027e0:	00289313          	slli	t1,a7,0x2
ee0027e4:	4581                	li	a1,0

ee0027e6 <.LVL838>:
        ee_s16 ret=0;
ee0027e6:	4501                	li	a0,0

ee0027e8 <.LVL839>:
        MATRES tmp=0,prev=0,cur=0;
ee0027e8:	4f81                	li	t6,0
ee0027ea:	4e81                	li	t4,0
        for (i=0; i<N; i++) {
ee0027ec:	088e                	slli	a7,a7,0x3

ee0027ee <.L1018>:
                for (j=0; j<N; j++) {
ee0027ee:	00e306b3          	add	a3,t1,a4
ee0027f2:	40d707b3          	sub	a5,a4,a3
ee0027f6:	ffc78293          	addi	t0,a5,-4
ee0027fa:	0022d393          	srli	t2,t0,0x2
ee0027fe:	00138e13          	addi	t3,t2,1
ee002802:	007e7793          	andi	a5,t3,7
        MATRES tmp=0,prev=0,cur=0;
ee002806:	8e36                	mv	t3,a3
ee002808:	22078063          	beqz	a5,ee002a28 <.L1017>
ee00280c:	4f05                	li	t5,1
ee00280e:	0fe78963          	beq	a5,t5,ee002900 <.L1057>
ee002812:	4289                	li	t0,2
ee002814:	0c578463          	beq	a5,t0,ee0028dc <.L1058>
ee002818:	438d                	li	t2,3
ee00281a:	0a778163          	beq	a5,t2,ee0028bc <.L1059>
ee00281e:	4f11                	li	t5,4
ee002820:	07e78c63          	beq	a5,t5,ee002898 <.L1060>
ee002824:	4295                	li	t0,5
ee002826:	04578763          	beq	a5,t0,ee002874 <.L1061>
ee00282a:	4399                	li	t2,6
ee00282c:	02778463          	beq	a5,t2,ee002854 <.L1062>

ee002830 <.LVL841>:
                        cur=C[i*N+j];
ee002830:	8e7e                	mv	t3,t6

ee002832 <.LVL842>:
ee002832:	0006af83          	lw	t6,0(a3)

ee002836 <.LVL843>:
                                ret+=10;
ee002836:	0542                	slli	a0,a0,0x10
ee002838:	01055f13          	srli	t5,a0,0x10
                        tmp+=cur;
ee00283c:	9efe                	add	t4,t4,t6

ee00283e <.LVL844>:
                        if (tmp>clipval) {
ee00283e:	37d65763          	bge	a2,t4,ee002bac <.L1066>
                                ret+=10;
ee002842:	00af0e93          	addi	t4,t5,10

ee002846 <.LVL845>:
ee002846:	010e9e13          	slli	t3,t4,0x10
ee00284a:	410e5513          	srai	a0,t3,0x10

ee00284e <.LVL846>:
                                tmp=0;
ee00284e:	4e81                	li	t4,0

ee002850 <.L1067>:
                for (j=0; j<N; j++) {
ee002850:	00468e13          	addi	t3,a3,4

ee002854 <.L1062>:
                        cur=C[i*N+j];
ee002854:	8f7e                	mv	t5,t6

ee002856 <.LVL849>:
ee002856:	000e2f83          	lw	t6,0(t3)

ee00285a <.LVL850>:
                                ret+=10;
ee00285a:	0542                	slli	a0,a0,0x10
ee00285c:	01055293          	srli	t0,a0,0x10
                        tmp+=cur;
ee002860:	9efe                	add	t4,t4,t6

ee002862 <.LVL851>:
                        if (tmp>clipval) {
ee002862:	33d65c63          	bge	a2,t4,ee002b9a <.L1068>
                                ret+=10;
ee002866:	00a28e93          	addi	t4,t0,10

ee00286a <.LVL852>:
ee00286a:	010e9513          	slli	a0,t4,0x10
ee00286e:	8541                	srai	a0,a0,0x10

ee002870 <.LVL853>:
                                tmp=0;
ee002870:	4e81                	li	t4,0

ee002872 <.L1069>:
                for (j=0; j<N; j++) {
ee002872:	0e11                	addi	t3,t3,4

ee002874 <.L1061>:
                        cur=C[i*N+j];
ee002874:	82fe                	mv	t0,t6

ee002876 <.LVL856>:
ee002876:	000e2f83          	lw	t6,0(t3)

ee00287a <.LVL857>:
                                ret+=10;
ee00287a:	01051793          	slli	a5,a0,0x10
ee00287e:	0107d393          	srli	t2,a5,0x10
                        tmp+=cur;
ee002882:	9efe                	add	t4,t4,t6

ee002884 <.LVL858>:
                        if (tmp>clipval) {
ee002884:	31d65263          	bge	a2,t4,ee002b88 <.L1070>
                                ret+=10;
ee002888:	00a38e93          	addi	t4,t2,10

ee00288c <.LVL859>:
ee00288c:	010e9793          	slli	a5,t4,0x10
ee002890:	4107d513          	srai	a0,a5,0x10

ee002894 <.LVL860>:
                                tmp=0;
ee002894:	4e81                	li	t4,0

ee002896 <.L1071>:
                for (j=0; j<N; j++) {
ee002896:	0e11                	addi	t3,t3,4

ee002898 <.L1060>:
                        cur=C[i*N+j];
ee002898:	83fe                	mv	t2,t6

ee00289a <.LVL863>:
ee00289a:	000e2f83          	lw	t6,0(t3)

ee00289e <.LVL864>:
                                ret+=10;
ee00289e:	01051f13          	slli	t5,a0,0x10
ee0028a2:	010f5513          	srli	a0,t5,0x10
                        tmp+=cur;
ee0028a6:	9efe                	add	t4,t4,t6

ee0028a8 <.LVL865>:
                        if (tmp>clipval) {
ee0028a8:	2dd65763          	bge	a2,t4,ee002b76 <.L1072>
                                ret+=10;
ee0028ac:	00a50e93          	addi	t4,a0,10

ee0028b0 <.LVL866>:
ee0028b0:	010e9f13          	slli	t5,t4,0x10
ee0028b4:	410f5513          	srai	a0,t5,0x10

ee0028b8 <.LVL867>:
                                tmp=0;
ee0028b8:	4e81                	li	t4,0

ee0028ba <.L1073>:
                for (j=0; j<N; j++) {
ee0028ba:	0e11                	addi	t3,t3,4

ee0028bc <.L1059>:
                        cur=C[i*N+j];
ee0028bc:	82fe                	mv	t0,t6

ee0028be <.LVL870>:
ee0028be:	000e2f83          	lw	t6,0(t3)

ee0028c2 <.LVL871>:
                                ret+=10;
ee0028c2:	0542                	slli	a0,a0,0x10
ee0028c4:	01055393          	srli	t2,a0,0x10
                        tmp+=cur;
ee0028c8:	9efe                	add	t4,t4,t6

ee0028ca <.LVL872>:
                        if (tmp>clipval) {
ee0028ca:	29d65d63          	bge	a2,t4,ee002b64 <.L1074>
                                ret+=10;
ee0028ce:	00a38e93          	addi	t4,t2,10

ee0028d2 <.LVL873>:
ee0028d2:	010e9513          	slli	a0,t4,0x10
ee0028d6:	8541                	srai	a0,a0,0x10

ee0028d8 <.LVL874>:
                                tmp=0;
ee0028d8:	4e81                	li	t4,0

ee0028da <.L1075>:
                for (j=0; j<N; j++) {
ee0028da:	0e11                	addi	t3,t3,4

ee0028dc <.L1058>:
                        cur=C[i*N+j];
ee0028dc:	83fe                	mv	t2,t6

ee0028de <.LVL877>:
ee0028de:	000e2f83          	lw	t6,0(t3)

ee0028e2 <.LVL878>:
                                ret+=10;
ee0028e2:	01051793          	slli	a5,a0,0x10
ee0028e6:	0107df13          	srli	t5,a5,0x10
                        tmp+=cur;
ee0028ea:	9efe                	add	t4,t4,t6

ee0028ec <.LVL879>:
                        if (tmp>clipval) {
ee0028ec:	27d65363          	bge	a2,t4,ee002b52 <.L1076>
                                ret+=10;
ee0028f0:	00af0e93          	addi	t4,t5,10

ee0028f4 <.LVL880>:
ee0028f4:	010e9793          	slli	a5,t4,0x10
ee0028f8:	4107d513          	srai	a0,a5,0x10

ee0028fc <.LVL881>:
                                tmp=0;
ee0028fc:	4e81                	li	t4,0

ee0028fe <.L1077>:
                for (j=0; j<N; j++) {
ee0028fe:	0e11                	addi	t3,t3,4

ee002900 <.L1057>:
                        cur=C[i*N+j];
ee002900:	8f7e                	mv	t5,t6

ee002902 <.LVL884>:
ee002902:	000e2f83          	lw	t6,0(t3)

ee002906 <.LVL885>:
                                ret+=10;
ee002906:	01051293          	slli	t0,a0,0x10
ee00290a:	0102d513          	srli	a0,t0,0x10
                        tmp+=cur;
ee00290e:	9efe                	add	t4,t4,t6

ee002910 <.LVL886>:
                        if (tmp>clipval) {
ee002910:	23d65863          	bge	a2,t4,ee002b40 <.L1078>
                                ret+=10;
ee002914:	00a50e93          	addi	t4,a0,10

ee002918 <.LVL887>:
ee002918:	010e9293          	slli	t0,t4,0x10
ee00291c:	4102d513          	srai	a0,t0,0x10

ee002920 <.LVL888>:
                                tmp=0;
ee002920:	4e81                	li	t4,0

ee002922 <.L1079>:
                for (j=0; j<N; j++) {
ee002922:	0e11                	addi	t3,t3,4

ee002924 <.LVL890>:
ee002924:	11c71263          	bne	a4,t3,ee002a28 <.L1017>

ee002928 <.L1080>:
        for (i=0; i<N; i++) {
ee002928:	0585                	addi	a1,a1,1
ee00292a:	41168733          	sub	a4,a3,a7
ee00292e:	ecb810e3          	bne	a6,a1,ee0027ee <.L1018>
ee002932:	8082                	ret

ee002934 <.L1095>:
                                ret += (cur>prev) ? 1 : 0;
ee002934:	007fafb3          	slt	t6,t6,t2
ee002938:	01ff07b3          	add	a5,t5,t6
                        cur=C[i*N+j];
ee00293c:	004e2f83          	lw	t6,4(t3)
                                ret += (cur>prev) ? 1 : 0;
ee002940:	01079293          	slli	t0,a5,0x10
ee002944:	4102df13          	srai	t5,t0,0x10
                                ret+=10;
ee002948:	010f1793          	slli	a5,t5,0x10
                        tmp+=cur;
ee00294c:	01fe8533          	add	a0,t4,t6
                for (j=0; j<N; j++) {
ee002950:	0e11                	addi	t3,t3,4
                                ret+=10;
ee002952:	0107d293          	srli	t0,a5,0x10
                        if (tmp>clipval) {
ee002956:	10a65363          	bge	a2,a0,ee002a5c <.L1094>

ee00295a <.L1043>:
                        cur=C[i*N+j];
ee00295a:	004e2383          	lw	t2,4(t3)
                                ret+=10;
ee00295e:	02a9                	addi	t0,t0,10
ee002960:	01029513          	slli	a0,t0,0x10
ee002964:	41055793          	srai	a5,a0,0x10

ee002968 <.LVL893>:
                                tmp=0;
ee002968:	4501                	li	a0,0

ee00296a <.LVL894>:
                                ret+=10;
ee00296a:	01079f13          	slli	t5,a5,0x10
                        tmp+=cur;
ee00296e:	00750eb3          	add	t4,a0,t2
                                ret+=10;
ee002972:	010f5793          	srli	a5,t5,0x10
                        if (tmp>clipval) {
ee002976:	11d65563          	bge	a2,t4,ee002a80 <.L1082>

ee00297a <.L1096>:
                        cur=C[i*N+j];
ee00297a:	008e2f83          	lw	t6,8(t3)
                                ret+=10;
ee00297e:	07a9                	addi	a5,a5,10
ee002980:	01079e93          	slli	t4,a5,0x10
ee002984:	410edf13          	srai	t5,t4,0x10

ee002988 <.LVL895>:
                                tmp=0;
ee002988:	4e81                	li	t4,0

ee00298a <.LVL896>:
                                ret+=10;
ee00298a:	010f1293          	slli	t0,t5,0x10
                        tmp+=cur;
ee00298e:	9efe                	add	t4,t4,t6
                                ret+=10;
ee002990:	0102d513          	srli	a0,t0,0x10
                        if (tmp>clipval) {
ee002994:	11d65763          	bge	a2,t4,ee002aa2 <.L1084>

ee002998 <.L1097>:
                        cur=C[i*N+j];
ee002998:	00ce2383          	lw	t2,12(t3)
                                ret+=10;
ee00299c:	0529                	addi	a0,a0,10
ee00299e:	01051e93          	slli	t4,a0,0x10
ee0029a2:	410ed293          	srai	t0,t4,0x10

ee0029a6 <.LVL897>:
                                tmp=0;
ee0029a6:	4e81                	li	t4,0

ee0029a8 <.LVL898>:
                                ret+=10;
ee0029a8:	01029f13          	slli	t5,t0,0x10
                        tmp+=cur;
ee0029ac:	007e82b3          	add	t0,t4,t2
                                ret+=10;
ee0029b0:	010f5793          	srli	a5,t5,0x10
                        if (tmp>clipval) {
ee0029b4:	10565963          	bge	a2,t0,ee002ac6 <.L1086>

ee0029b8 <.L1098>:
                                ret+=10;
ee0029b8:	07a9                	addi	a5,a5,10
                        cur=C[i*N+j];
ee0029ba:	010e2f83          	lw	t6,16(t3)
                                ret+=10;
ee0029be:	01079293          	slli	t0,a5,0x10
ee0029c2:	4102df13          	srai	t5,t0,0x10

ee0029c6 <.LVL899>:
                                tmp=0;
ee0029c6:	4281                	li	t0,0

ee0029c8 <.LVL900>:
                                ret+=10;
ee0029c8:	010f1513          	slli	a0,t5,0x10
                        tmp+=cur;
ee0029cc:	01f28eb3          	add	t4,t0,t6
                                ret+=10;
ee0029d0:	01055793          	srli	a5,a0,0x10
                        if (tmp>clipval) {
ee0029d4:	11d65b63          	bge	a2,t4,ee002aea <.L1088>

ee0029d8 <.L1099>:
                        cur=C[i*N+j];
ee0029d8:	014e2383          	lw	t2,20(t3)
                                ret+=10;
ee0029dc:	07a9                	addi	a5,a5,10
ee0029de:	01079e93          	slli	t4,a5,0x10
ee0029e2:	410ed513          	srai	a0,t4,0x10

ee0029e6 <.LVL901>:
                                tmp=0;
ee0029e6:	4e81                	li	t4,0

ee0029e8 <.LVL902>:
                                ret+=10;
ee0029e8:	01051f13          	slli	t5,a0,0x10
                        tmp+=cur;
ee0029ec:	9e9e                	add	t4,t4,t2
                                ret+=10;
ee0029ee:	010f5293          	srli	t0,t5,0x10
                        if (tmp>clipval) {
ee0029f2:	11d65d63          	bge	a2,t4,ee002b0c <.L1090>

ee0029f6 <.L1100>:
                        cur=C[i*N+j];
ee0029f6:	018e2f83          	lw	t6,24(t3)
                                ret+=10;
ee0029fa:	02a9                	addi	t0,t0,10
ee0029fc:	01029e93          	slli	t4,t0,0x10
ee002a00:	410edf13          	srai	t5,t4,0x10

ee002a04 <.LVL903>:
                                tmp=0;
ee002a04:	4e81                	li	t4,0

ee002a06 <.LVL904>:
                                ret+=10;
ee002a06:	010f1513          	slli	a0,t5,0x10
                        tmp+=cur;
ee002a0a:	9efe                	add	t4,t4,t6

ee002a0c <.LVL905>:
                                ret+=10;
ee002a0c:	01055793          	srli	a5,a0,0x10
                        if (tmp>clipval) {
ee002a10:	11d65f63          	bge	a2,t4,ee002b2e <.L1092>

ee002a14 <.L1101>:
                                ret+=10;
ee002a14:	00a78513          	addi	a0,a5,10
ee002a18:	01051793          	slli	a5,a0,0x10
ee002a1c:	4107d513          	srai	a0,a5,0x10

ee002a20 <.LVL907>:
                                tmp=0;
ee002a20:	4e81                	li	t4,0

ee002a22 <.L1093>:
                for (j=0; j<N; j++) {
ee002a22:	0e71                	addi	t3,t3,28
ee002a24:	f1c702e3          	beq	a4,t3,ee002928 <.L1080>

ee002a28 <.L1017>:
                        cur=C[i*N+j];
ee002a28:	000e2383          	lw	t2,0(t3)
                                ret+=10;
ee002a2c:	0542                	slli	a0,a0,0x10
ee002a2e:	01055f13          	srli	t5,a0,0x10
                        tmp+=cur;
ee002a32:	9e9e                	add	t4,t4,t2
                        if (tmp>clipval) {
ee002a34:	f1d650e3          	bge	a2,t4,ee002934 <.L1095>
                                ret+=10;
ee002a38:	00af0e93          	addi	t4,t5,10
                        cur=C[i*N+j];
ee002a3c:	004e2f83          	lw	t6,4(t3)
                                ret+=10;
ee002a40:	010e9513          	slli	a0,t4,0x10
ee002a44:	41055f13          	srai	t5,a0,0x10

ee002a48 <.LVL910>:
                                tmp=0;
ee002a48:	4e81                	li	t4,0

ee002a4a <.LVL911>:
                                ret+=10;
ee002a4a:	010f1793          	slli	a5,t5,0x10
                        tmp+=cur;
ee002a4e:	01fe8533          	add	a0,t4,t6
                for (j=0; j<N; j++) {
ee002a52:	0e11                	addi	t3,t3,4
                                ret+=10;
ee002a54:	0107d293          	srli	t0,a5,0x10
                        if (tmp>clipval) {
ee002a58:	f0a641e3          	blt	a2,a0,ee00295a <.L1043>

ee002a5c <.L1094>:
                                ret += (cur>prev) ? 1 : 0;
ee002a5c:	01f3a3b3          	slt	t2,t2,t6
ee002a60:	00728f33          	add	t5,t0,t2
                        cur=C[i*N+j];
ee002a64:	004e2383          	lw	t2,4(t3)
                                ret += (cur>prev) ? 1 : 0;
ee002a68:	010f1e93          	slli	t4,t5,0x10
ee002a6c:	410ed793          	srai	a5,t4,0x10
                                ret+=10;
ee002a70:	01079f13          	slli	t5,a5,0x10
                        tmp+=cur;
ee002a74:	00750eb3          	add	t4,a0,t2
                                ret+=10;
ee002a78:	010f5793          	srli	a5,t5,0x10
                        if (tmp>clipval) {
ee002a7c:	efd64fe3          	blt	a2,t4,ee00297a <.L1096>

ee002a80 <.L1082>:
                                ret += (cur>prev) ? 1 : 0;
ee002a80:	007fafb3          	slt	t6,t6,t2
ee002a84:	01f782b3          	add	t0,a5,t6
                        cur=C[i*N+j];
ee002a88:	008e2f83          	lw	t6,8(t3)
                                ret += (cur>prev) ? 1 : 0;
ee002a8c:	01029513          	slli	a0,t0,0x10
ee002a90:	41055f13          	srai	t5,a0,0x10
                                ret+=10;
ee002a94:	010f1293          	slli	t0,t5,0x10
                        tmp+=cur;
ee002a98:	9efe                	add	t4,t4,t6
                                ret+=10;
ee002a9a:	0102d513          	srli	a0,t0,0x10
                        if (tmp>clipval) {
ee002a9e:	efd64de3          	blt	a2,t4,ee002998 <.L1097>

ee002aa2 <.L1084>:
                                ret += (cur>prev) ? 1 : 0;
ee002aa2:	01f3a3b3          	slt	t2,t2,t6
ee002aa6:	00750f33          	add	t5,a0,t2
                        cur=C[i*N+j];
ee002aaa:	00ce2383          	lw	t2,12(t3)
                                ret += (cur>prev) ? 1 : 0;
ee002aae:	010f1793          	slli	a5,t5,0x10
ee002ab2:	4107d293          	srai	t0,a5,0x10
                                ret+=10;
ee002ab6:	01029f13          	slli	t5,t0,0x10
                        tmp+=cur;
ee002aba:	007e82b3          	add	t0,t4,t2
                                ret+=10;
ee002abe:	010f5793          	srli	a5,t5,0x10
                        if (tmp>clipval) {
ee002ac2:	ee564be3          	blt	a2,t0,ee0029b8 <.L1098>

ee002ac6 <.L1086>:
                                ret += (cur>prev) ? 1 : 0;
ee002ac6:	007fafb3          	slt	t6,t6,t2
ee002aca:	01f78533          	add	a0,a5,t6
                        cur=C[i*N+j];
ee002ace:	010e2f83          	lw	t6,16(t3)
                                ret += (cur>prev) ? 1 : 0;
ee002ad2:	01051e93          	slli	t4,a0,0x10
ee002ad6:	410edf13          	srai	t5,t4,0x10
                                ret+=10;
ee002ada:	010f1513          	slli	a0,t5,0x10
                        tmp+=cur;
ee002ade:	01f28eb3          	add	t4,t0,t6
                                ret+=10;
ee002ae2:	01055793          	srli	a5,a0,0x10
                        if (tmp>clipval) {
ee002ae6:	efd649e3          	blt	a2,t4,ee0029d8 <.L1099>

ee002aea <.L1088>:
                                ret += (cur>prev) ? 1 : 0;
ee002aea:	01f3a3b3          	slt	t2,t2,t6
ee002aee:	00778f33          	add	t5,a5,t2
                        cur=C[i*N+j];
ee002af2:	014e2383          	lw	t2,20(t3)
                                ret += (cur>prev) ? 1 : 0;
ee002af6:	010f1293          	slli	t0,t5,0x10
ee002afa:	4102d513          	srai	a0,t0,0x10
                                ret+=10;
ee002afe:	01051f13          	slli	t5,a0,0x10
                        tmp+=cur;
ee002b02:	9e9e                	add	t4,t4,t2
                                ret+=10;
ee002b04:	010f5293          	srli	t0,t5,0x10
                        if (tmp>clipval) {
ee002b08:	efd647e3          	blt	a2,t4,ee0029f6 <.L1100>

ee002b0c <.L1090>:
                                ret += (cur>prev) ? 1 : 0;
ee002b0c:	007fafb3          	slt	t6,t6,t2
ee002b10:	01f28533          	add	a0,t0,t6
                        cur=C[i*N+j];
ee002b14:	018e2f83          	lw	t6,24(t3)
                                ret += (cur>prev) ? 1 : 0;
ee002b18:	01051793          	slli	a5,a0,0x10
ee002b1c:	4107df13          	srai	t5,a5,0x10

ee002b20 <.LVL912>:
                                ret+=10;
ee002b20:	010f1513          	slli	a0,t5,0x10
                        tmp+=cur;
ee002b24:	9efe                	add	t4,t4,t6

ee002b26 <.LVL913>:
                                ret+=10;
ee002b26:	01055793          	srli	a5,a0,0x10
                        if (tmp>clipval) {
ee002b2a:	efd645e3          	blt	a2,t4,ee002a14 <.L1101>

ee002b2e <.L1092>:
                                ret += (cur>prev) ? 1 : 0;
ee002b2e:	01f3a3b3          	slt	t2,t2,t6
ee002b32:	00778f33          	add	t5,a5,t2
ee002b36:	010f1293          	slli	t0,t5,0x10
ee002b3a:	4102d513          	srai	a0,t0,0x10
ee002b3e:	b5d5                	j	ee002a22 <.L1093>

ee002b40 <.L1078>:
ee002b40:	01ff23b3          	slt	t2,t5,t6
ee002b44:	007507b3          	add	a5,a0,t2

ee002b48 <.LVL914>:
ee002b48:	01079f13          	slli	t5,a5,0x10
ee002b4c:	410f5513          	srai	a0,t5,0x10
ee002b50:	bbc9                	j	ee002922 <.L1079>

ee002b52 <.L1076>:
ee002b52:	01f3a2b3          	slt	t0,t2,t6
ee002b56:	005f0533          	add	a0,t5,t0

ee002b5a <.LVL916>:
ee002b5a:	01051393          	slli	t2,a0,0x10
ee002b5e:	4103d513          	srai	a0,t2,0x10

ee002b62 <.LVL917>:
ee002b62:	bb71                	j	ee0028fe <.L1077>

ee002b64 <.L1074>:
ee002b64:	01f2a7b3          	slt	a5,t0,t6
ee002b68:	00f38f33          	add	t5,t2,a5

ee002b6c <.LVL919>:
ee002b6c:	010f1293          	slli	t0,t5,0x10
ee002b70:	4102d513          	srai	a0,t0,0x10
ee002b74:	b39d                	j	ee0028da <.L1075>

ee002b76 <.L1072>:
ee002b76:	01f3a2b3          	slt	t0,t2,t6
ee002b7a:	005507b3          	add	a5,a0,t0

ee002b7e <.LVL921>:
ee002b7e:	01079393          	slli	t2,a5,0x10
ee002b82:	4103d513          	srai	a0,t2,0x10
ee002b86:	bb15                	j	ee0028ba <.L1073>

ee002b88 <.L1070>:
ee002b88:	01f2af33          	slt	t5,t0,t6
ee002b8c:	01e38533          	add	a0,t2,t5

ee002b90 <.LVL923>:
ee002b90:	01051293          	slli	t0,a0,0x10
ee002b94:	4102d513          	srai	a0,t0,0x10

ee002b98 <.LVL924>:
ee002b98:	b9fd                	j	ee002896 <.L1071>

ee002b9a <.L1068>:
ee002b9a:	01ff27b3          	slt	a5,t5,t6
ee002b9e:	00f283b3          	add	t2,t0,a5

ee002ba2 <.LVL926>:
ee002ba2:	01039f13          	slli	t5,t2,0x10
ee002ba6:	410f5513          	srai	a0,t5,0x10
ee002baa:	b1e1                	j	ee002872 <.L1069>

ee002bac <.L1066>:
ee002bac:	01fe27b3          	slt	a5,t3,t6
ee002bb0:	00ff02b3          	add	t0,t5,a5

ee002bb4 <.LVL928>:
ee002bb4:	01029393          	slli	t2,t0,0x10
ee002bb8:	4103d513          	srai	a0,t2,0x10
ee002bbc:	b951                	j	ee002850 <.L1067>

ee002bbe <.L1019>:
        ee_s16 ret=0;
ee002bbe:	4501                	li	a0,0

ee002bc0 <.LVL930>:
}
ee002bc0:	8082                	ret

ee002bc2 <matrix_mul_const>:
        for (i=0; i<N; i++) {
ee002bc2:	16050163          	beqz	a0,ee002d24 <.L1141>
void matrix_mul_const(ee_u32 N, MATRES *C, MATDAT *A, MATDAT val) {
ee002bc6:	1141                	addi	sp,sp,-16
ee002bc8:	40a003b3          	neg	t2,a0
ee002bcc:	00151813          	slli	a6,a0,0x1
ee002bd0:	c622                	sw	s0,12(sp)
ee002bd2:	c426                	sw	s1,8(sp)
ee002bd4:	00139413          	slli	s0,t2,0x1
ee002bd8:	c24a                	sw	s2,4(sp)
ee002bda:	c04e                	sw	s3,0(sp)
ee002bdc:	9832                	add	a6,a6,a2
                        C[i*N+j]=(MATRES)A[i*N+j] * (MATRES)val;
ee002bde:	4f81                	li	t6,0
        for (i=0; i<N; i++) {
ee002be0:	4281                	li	t0,0
ee002be2:	038a                	slli	t2,t2,0x2

ee002be4 <.L1104>:
                for (j=0; j<N; j++) {
ee002be4:	010408b3          	add	a7,s0,a6
ee002be8:	41180633          	sub	a2,a6,a7
ee002bec:	ffe60313          	addi	t1,a2,-2
ee002bf0:	00135493          	srli	s1,t1,0x1
ee002bf4:	00148713          	addi	a4,s1,1
ee002bf8:	002f9793          	slli	a5,t6,0x2
ee002bfc:	00777913          	andi	s2,a4,7
ee002c00:	97ae                	add	a5,a5,a1
void matrix_mul_const(ee_u32 N, MATRES *C, MATDAT *A, MATDAT val) {
ee002c02:	8746                	mv	a4,a7
ee002c04:	08090f63          	beqz	s2,ee002ca2 <.L1105>
ee002c08:	4985                	li	s3,1
ee002c0a:	09390263          	beq	s2,s3,ee002c8e <.L1130>
ee002c0e:	4e09                	li	t3,2
ee002c10:	07c90763          	beq	s2,t3,ee002c7e <.L1131>
ee002c14:	4e8d                	li	t4,3
ee002c16:	05d90c63          	beq	s2,t4,ee002c6e <.L1132>
ee002c1a:	4f11                	li	t5,4
ee002c1c:	05e90163          	beq	s2,t5,ee002c5e <.L1133>
ee002c20:	4615                	li	a2,5
ee002c22:	02c90663          	beq	s2,a2,ee002c4e <.L1134>
ee002c26:	4319                	li	t1,6
ee002c28:	00690b63          	beq	s2,t1,ee002c3e <.L1135>

ee002c2c <.LVL933>:
                        C[i*N+j]=(MATRES)A[i*N+j] * (MATRES)val;
ee002c2c:	00089483          	lh	s1,0(a7)
                for (j=0; j<N; j++) {
ee002c30:	00288713          	addi	a4,a7,2
ee002c34:	0791                	addi	a5,a5,4
                        C[i*N+j]=(MATRES)A[i*N+j] * (MATRES)val;
ee002c36:	02d48933          	mul	s2,s1,a3
ee002c3a:	ff27ae23          	sw	s2,-4(a5)

ee002c3e <.L1135>:
ee002c3e:	00071983          	lh	s3,0(a4)
                for (j=0; j<N; j++) {
ee002c42:	0791                	addi	a5,a5,4
ee002c44:	0709                	addi	a4,a4,2
                        C[i*N+j]=(MATRES)A[i*N+j] * (MATRES)val;
ee002c46:	02d98e33          	mul	t3,s3,a3
ee002c4a:	ffc7ae23          	sw	t3,-4(a5)

ee002c4e <.L1134>:
ee002c4e:	00071e83          	lh	t4,0(a4)
                for (j=0; j<N; j++) {
ee002c52:	0791                	addi	a5,a5,4
ee002c54:	0709                	addi	a4,a4,2
                        C[i*N+j]=(MATRES)A[i*N+j] * (MATRES)val;
ee002c56:	02de8f33          	mul	t5,t4,a3
ee002c5a:	ffe7ae23          	sw	t5,-4(a5)

ee002c5e <.L1133>:
ee002c5e:	00071603          	lh	a2,0(a4)
                for (j=0; j<N; j++) {
ee002c62:	0791                	addi	a5,a5,4
ee002c64:	0709                	addi	a4,a4,2
                        C[i*N+j]=(MATRES)A[i*N+j] * (MATRES)val;
ee002c66:	02d60333          	mul	t1,a2,a3
ee002c6a:	fe67ae23          	sw	t1,-4(a5)

ee002c6e <.L1132>:
ee002c6e:	00071483          	lh	s1,0(a4)
                for (j=0; j<N; j++) {
ee002c72:	0791                	addi	a5,a5,4
ee002c74:	0709                	addi	a4,a4,2
                        C[i*N+j]=(MATRES)A[i*N+j] * (MATRES)val;
ee002c76:	02d48933          	mul	s2,s1,a3
ee002c7a:	ff27ae23          	sw	s2,-4(a5)

ee002c7e <.L1131>:
ee002c7e:	00071983          	lh	s3,0(a4)
                for (j=0; j<N; j++) {
ee002c82:	0791                	addi	a5,a5,4
ee002c84:	0709                	addi	a4,a4,2
                        C[i*N+j]=(MATRES)A[i*N+j] * (MATRES)val;
ee002c86:	02d98e33          	mul	t3,s3,a3
ee002c8a:	ffc7ae23          	sw	t3,-4(a5)

ee002c8e <.L1130>:
ee002c8e:	00071e83          	lh	t4,0(a4)
                for (j=0; j<N; j++) {
ee002c92:	0791                	addi	a5,a5,4
ee002c94:	0709                	addi	a4,a4,2
                        C[i*N+j]=(MATRES)A[i*N+j] * (MATRES)val;
ee002c96:	02de8f33          	mul	t5,t4,a3
ee002c9a:	ffe7ae23          	sw	t5,-4(a5)
                for (j=0; j<N; j++) {
ee002c9e:	06e80763          	beq	a6,a4,ee002d0c <.L1139>

ee002ca2 <.L1105>:
                        C[i*N+j]=(MATRES)A[i*N+j] * (MATRES)val;
ee002ca2:	00071983          	lh	s3,0(a4)
ee002ca6:	00271903          	lh	s2,2(a4)
ee002caa:	00471483          	lh	s1,4(a4)
ee002cae:	00671f03          	lh	t5,6(a4)
ee002cb2:	00871e83          	lh	t4,8(a4)
ee002cb6:	00a71e03          	lh	t3,10(a4)
ee002cba:	00c71303          	lh	t1,12(a4)
ee002cbe:	00e71603          	lh	a2,14(a4)
ee002cc2:	02d989b3          	mul	s3,s3,a3
                for (j=0; j<N; j++) {
ee002cc6:	0741                	addi	a4,a4,16
ee002cc8:	02078793          	addi	a5,a5,32
                        C[i*N+j]=(MATRES)A[i*N+j] * (MATRES)val;
ee002ccc:	02d90933          	mul	s2,s2,a3
ee002cd0:	ff37a023          	sw	s3,-32(a5)
ee002cd4:	02d484b3          	mul	s1,s1,a3
ee002cd8:	ff27a223          	sw	s2,-28(a5)
ee002cdc:	02df0f33          	mul	t5,t5,a3
ee002ce0:	fe97a423          	sw	s1,-24(a5)
ee002ce4:	02de8eb3          	mul	t4,t4,a3
ee002ce8:	ffe7a623          	sw	t5,-20(a5)
ee002cec:	02de0e33          	mul	t3,t3,a3
ee002cf0:	ffd7a823          	sw	t4,-16(a5)
ee002cf4:	02d30333          	mul	t1,t1,a3
ee002cf8:	ffc7aa23          	sw	t3,-12(a5)
ee002cfc:	02d60633          	mul	a2,a2,a3
ee002d00:	fe67ac23          	sw	t1,-8(a5)
ee002d04:	fec7ae23          	sw	a2,-4(a5)
                for (j=0; j<N; j++) {
ee002d08:	f8e81de3          	bne	a6,a4,ee002ca2 <.L1105>

ee002d0c <.L1139>:
        for (i=0; i<N; i++) {
ee002d0c:	0285                	addi	t0,t0,1
ee002d0e:	9faa                	add	t6,t6,a0
ee002d10:	40788833          	sub	a6,a7,t2
ee002d14:	ec5518e3          	bne	a0,t0,ee002be4 <.L1104>
}
ee002d18:	4432                	lw	s0,12(sp)
ee002d1a:	44a2                	lw	s1,8(sp)
ee002d1c:	4912                	lw	s2,4(sp)
ee002d1e:	4982                	lw	s3,0(sp)
ee002d20:	0141                	addi	sp,sp,16
ee002d22:	8082                	ret

ee002d24 <.L1141>:
ee002d24:	8082                	ret

ee002d26 <matrix_add_const>:
        for (i=0; i<N; i++) {
ee002d26:	1e050063          	beqz	a0,ee002f06 <.L1183>
ee002d2a:	40a002b3          	neg	t0,a0
                        A[i*N+j] += val;
ee002d2e:	01061693          	slli	a3,a2,0x10
ee002d32:	00151793          	slli	a5,a0,0x1
ee002d36:	00129393          	slli	t2,t0,0x1
ee002d3a:	82c1                	srli	a3,a3,0x10
ee002d3c:	00f58633          	add	a2,a1,a5

ee002d40 <.LVL937>:
        for (i=0; i<N; i++) {
ee002d40:	4f81                	li	t6,0
ee002d42:	028a                	slli	t0,t0,0x2

ee002d44 <.L1184>:
                for (j=0; j<N; j++) {
ee002d44:	00c385b3          	add	a1,t2,a2
ee002d48:	40b60733          	sub	a4,a2,a1
ee002d4c:	ffe70313          	addi	t1,a4,-2
ee002d50:	00135813          	srli	a6,t1,0x1
ee002d54:	00180893          	addi	a7,a6,1
ee002d58:	0078fe13          	andi	t3,a7,7
void matrix_add_const(ee_u32 N, MATDAT *A, MATDAT val) {
ee002d5c:	87ae                	mv	a5,a1
ee002d5e:	080e0863          	beqz	t3,ee002dee <.L1201>
ee002d62:	4e85                	li	t4,1
ee002d64:	07de0c63          	beq	t3,t4,ee002ddc <.L1187>
ee002d68:	4f09                	li	t5,2
ee002d6a:	07ee0263          	beq	t3,t5,ee002dce <.L1189>
ee002d6e:	470d                	li	a4,3
ee002d70:	04ee0863          	beq	t3,a4,ee002dc0 <.L1191>
ee002d74:	4311                	li	t1,4
ee002d76:	026e0e63          	beq	t3,t1,ee002db2 <.L1193>
ee002d7a:	4815                	li	a6,5
ee002d7c:	030e0463          	beq	t3,a6,ee002da4 <.L1195>
ee002d80:	4899                	li	a7,6
ee002d82:	011e0a63          	beq	t3,a7,ee002d96 <.L1197>

ee002d86 <.LVL939>:
                        A[i*N+j] += val;
ee002d86:	0005de03          	lhu	t3,0(a1)
                for (j=0; j<N; j++) {
ee002d8a:	00258793          	addi	a5,a1,2
                        A[i*N+j] += val;
ee002d8e:	01c68eb3          	add	t4,a3,t3
ee002d92:	01d59023          	sh	t4,0(a1)

ee002d96 <.L1197>:
ee002d96:	0007df03          	lhu	t5,0(a5)
                for (j=0; j<N; j++) {
ee002d9a:	0789                	addi	a5,a5,2
                        A[i*N+j] += val;
ee002d9c:	01e68733          	add	a4,a3,t5
ee002da0:	fee79f23          	sh	a4,-2(a5)

ee002da4 <.L1195>:
ee002da4:	0007d303          	lhu	t1,0(a5)
                for (j=0; j<N; j++) {
ee002da8:	0789                	addi	a5,a5,2
                        A[i*N+j] += val;
ee002daa:	00668833          	add	a6,a3,t1
ee002dae:	ff079f23          	sh	a6,-2(a5)

ee002db2 <.L1193>:
ee002db2:	0007d883          	lhu	a7,0(a5)
                for (j=0; j<N; j++) {
ee002db6:	0789                	addi	a5,a5,2
                        A[i*N+j] += val;
ee002db8:	01168e33          	add	t3,a3,a7
ee002dbc:	ffc79f23          	sh	t3,-2(a5)

ee002dc0 <.L1191>:
ee002dc0:	0007de83          	lhu	t4,0(a5)
                for (j=0; j<N; j++) {
ee002dc4:	0789                	addi	a5,a5,2
                        A[i*N+j] += val;
ee002dc6:	01d68f33          	add	t5,a3,t4
ee002dca:	ffe79f23          	sh	t5,-2(a5)

ee002dce <.L1189>:
ee002dce:	0007d703          	lhu	a4,0(a5)
                for (j=0; j<N; j++) {
ee002dd2:	0789                	addi	a5,a5,2
                        A[i*N+j] += val;
ee002dd4:	00e68333          	add	t1,a3,a4
ee002dd8:	fe679f23          	sh	t1,-2(a5)

ee002ddc <.L1187>:
ee002ddc:	0007d803          	lhu	a6,0(a5)
                for (j=0; j<N; j++) {
ee002de0:	0789                	addi	a5,a5,2
                        A[i*N+j] += val;
ee002de2:	010688b3          	add	a7,a3,a6
ee002de6:	ff179f23          	sh	a7,-2(a5)
                for (j=0; j<N; j++) {
ee002dea:	10f60963          	beq	a2,a5,ee002efc <.L1200>

ee002dee <.L1201>:
void matrix_add_const(ee_u32 N, MATDAT *A, MATDAT val) {
ee002dee:	1141                	addi	sp,sp,-16
ee002df0:	c622                	sw	s0,12(sp)

ee002df2 <.L1147>:
                        A[i*N+j] += val;
ee002df2:	0007d403          	lhu	s0,0(a5)
ee002df6:	0027df03          	lhu	t5,2(a5)
ee002dfa:	0047de83          	lhu	t4,4(a5)
ee002dfe:	0067de03          	lhu	t3,6(a5)
ee002e02:	0087d303          	lhu	t1,8(a5)
ee002e06:	00a7d883          	lhu	a7,10(a5)
ee002e0a:	00c7d803          	lhu	a6,12(a5)
ee002e0e:	00e7d703          	lhu	a4,14(a5)
ee002e12:	9436                	add	s0,s0,a3
ee002e14:	9f36                	add	t5,t5,a3
ee002e16:	9eb6                	add	t4,t4,a3
ee002e18:	9e36                	add	t3,t3,a3
ee002e1a:	9336                	add	t1,t1,a3
ee002e1c:	98b6                	add	a7,a7,a3
ee002e1e:	9836                	add	a6,a6,a3
ee002e20:	9736                	add	a4,a4,a3
ee002e22:	00879023          	sh	s0,0(a5)
ee002e26:	01e79123          	sh	t5,2(a5)
ee002e2a:	01d79223          	sh	t4,4(a5)
ee002e2e:	01c79323          	sh	t3,6(a5)
ee002e32:	00679423          	sh	t1,8(a5)
ee002e36:	01179523          	sh	a7,10(a5)
ee002e3a:	01079623          	sh	a6,12(a5)
ee002e3e:	00e79723          	sh	a4,14(a5)
                for (j=0; j<N; j++) {
ee002e42:	07c1                	addi	a5,a5,16
ee002e44:	faf617e3          	bne	a2,a5,ee002df2 <.L1147>
        for (i=0; i<N; i++) {
ee002e48:	0f85                	addi	t6,t6,1
ee002e4a:	40558633          	sub	a2,a1,t0
ee002e4e:	0bf50463          	beq	a0,t6,ee002ef6 <.L1144>

ee002e52 <.L1203>:
                for (j=0; j<N; j++) {
ee002e52:	00c385b3          	add	a1,t2,a2
ee002e56:	40b607b3          	sub	a5,a2,a1
ee002e5a:	ffe78413          	addi	s0,a5,-2
ee002e5e:	00145f13          	srli	t5,s0,0x1
ee002e62:	001f0e93          	addi	t4,t5,1
ee002e66:	007efe13          	andi	t3,t4,7
void matrix_add_const(ee_u32 N, MATDAT *A, MATDAT val) {
ee002e6a:	87ae                	mv	a5,a1
ee002e6c:	f80e03e3          	beqz	t3,ee002df2 <.L1147>
ee002e70:	4305                	li	t1,1
ee002e72:	066e0463          	beq	t3,t1,ee002eda <.L1172>
ee002e76:	4889                	li	a7,2
ee002e78:	051e0a63          	beq	t3,a7,ee002ecc <.L1173>
ee002e7c:	480d                	li	a6,3
ee002e7e:	050e0063          	beq	t3,a6,ee002ebe <.L1174>
ee002e82:	4711                	li	a4,4
ee002e84:	02ee0663          	beq	t3,a4,ee002eb0 <.L1175>
ee002e88:	4415                	li	s0,5
ee002e8a:	008e0c63          	beq	t3,s0,ee002ea2 <.L1176>
ee002e8e:	4f19                	li	t5,6
ee002e90:	07ee1c63          	bne	t3,t5,ee002f08 <.L1202>

ee002e94 <.L1177>:
                        A[i*N+j] += val;
ee002e94:	0007d303          	lhu	t1,0(a5)
                for (j=0; j<N; j++) {
ee002e98:	0789                	addi	a5,a5,2
                        A[i*N+j] += val;
ee002e9a:	006688b3          	add	a7,a3,t1
ee002e9e:	ff179f23          	sh	a7,-2(a5)

ee002ea2 <.L1176>:
ee002ea2:	0007d803          	lhu	a6,0(a5)
                for (j=0; j<N; j++) {
ee002ea6:	0789                	addi	a5,a5,2
                        A[i*N+j] += val;
ee002ea8:	01068733          	add	a4,a3,a6
ee002eac:	fee79f23          	sh	a4,-2(a5)

ee002eb0 <.L1175>:
ee002eb0:	0007d403          	lhu	s0,0(a5)
                for (j=0; j<N; j++) {
ee002eb4:	0789                	addi	a5,a5,2
                        A[i*N+j] += val;
ee002eb6:	00868f33          	add	t5,a3,s0
ee002eba:	ffe79f23          	sh	t5,-2(a5)

ee002ebe <.L1174>:
ee002ebe:	0007de83          	lhu	t4,0(a5)
                for (j=0; j<N; j++) {
ee002ec2:	0789                	addi	a5,a5,2
                        A[i*N+j] += val;
ee002ec4:	01d68e33          	add	t3,a3,t4
ee002ec8:	ffc79f23          	sh	t3,-2(a5)

ee002ecc <.L1173>:
ee002ecc:	0007d303          	lhu	t1,0(a5)
                for (j=0; j<N; j++) {
ee002ed0:	0789                	addi	a5,a5,2
                        A[i*N+j] += val;
ee002ed2:	006688b3          	add	a7,a3,t1
ee002ed6:	ff179f23          	sh	a7,-2(a5)

ee002eda <.L1172>:
ee002eda:	0007d803          	lhu	a6,0(a5)
                for (j=0; j<N; j++) {
ee002ede:	0789                	addi	a5,a5,2
                        A[i*N+j] += val;
ee002ee0:	01068733          	add	a4,a3,a6
ee002ee4:	fee79f23          	sh	a4,-2(a5)
                for (j=0; j<N; j++) {
ee002ee8:	f0f615e3          	bne	a2,a5,ee002df2 <.L1147>
        for (i=0; i<N; i++) {
ee002eec:	0f85                	addi	t6,t6,1
ee002eee:	40558633          	sub	a2,a1,t0
ee002ef2:	f7f510e3          	bne	a0,t6,ee002e52 <.L1203>

ee002ef6 <.L1144>:
}
ee002ef6:	4432                	lw	s0,12(sp)
ee002ef8:	0141                	addi	sp,sp,16
ee002efa:	8082                	ret

ee002efc <.L1200>:
        for (i=0; i<N; i++) {
ee002efc:	0f85                	addi	t6,t6,1
ee002efe:	40558633          	sub	a2,a1,t0
ee002f02:	e5f511e3          	bne	a0,t6,ee002d44 <.L1184>

ee002f06 <.L1183>:
ee002f06:	8082                	ret

ee002f08 <.L1202>:
                        A[i*N+j] += val;
ee002f08:	0005de83          	lhu	t4,0(a1)
                for (j=0; j<N; j++) {
ee002f0c:	00258793          	addi	a5,a1,2
                        A[i*N+j] += val;
ee002f10:	01d68e33          	add	t3,a3,t4
ee002f14:	01c59023          	sh	t3,0(a1)
                for (j=0; j<N; j++) {
ee002f18:	bfb5                	j	ee002e94 <.L1177>

ee002f1a <matrix_mul_vect>:
        for (i=0; i<N; i++) {
ee002f1a:	1a050863          	beqz	a0,ee0030ca <.L1242>
void matrix_mul_vect(ee_u32 N, MATRES *C, MATDAT *A, MATDAT *B) {
ee002f1e:	7179                	addi	sp,sp,-48
ee002f20:	d226                	sw	s1,36(sp)
ee002f22:	84aa                	mv	s1,a0
ee002f24:	ce4e                	sw	s3,28(sp)
                C[i]=0;
ee002f26:	00249993          	slli	s3,s1,0x2
void matrix_mul_vect(ee_u32 N, MATRES *C, MATDAT *A, MATDAT *B) {
ee002f2a:	d04a                	sw	s2,32(sp)
ee002f2c:	852e                	mv	a0,a1

ee002f2e <.LVL948>:
ee002f2e:	8932                	mv	s2,a2
                C[i]=0;
ee002f30:	4581                	li	a1,0

ee002f32 <.LVL949>:
ee002f32:	864e                	mv	a2,s3

ee002f34 <.LVL950>:
void matrix_mul_vect(ee_u32 N, MATRES *C, MATDAT *A, MATDAT *B) {
ee002f34:	d422                	sw	s0,40(sp)
ee002f36:	d606                	sw	ra,44(sp)
ee002f38:	8436                	mv	s0,a3
ee002f3a:	cc52                	sw	s4,24(sp)
ee002f3c:	ca56                	sw	s5,20(sp)
ee002f3e:	c85a                	sw	s6,16(sp)
ee002f40:	c65e                	sw	s7,12(sp)
ee002f42:	c462                	sw	s8,8(sp)
ee002f44:	c266                	sw	s9,4(sp)
                C[i]=0;
ee002f46:	646040ef          	jal	ra,ee00758c <memset>

ee002f4a <.LVL951>:
ee002f4a:	00149693          	slli	a3,s1,0x1
ee002f4e:	85aa                	mv	a1,a0
ee002f50:	96a2                	add	a3,a3,s0
ee002f52:	954e                	add	a0,a0,s3
ee002f54:	4601                	li	a2,0

ee002f56 <.L1207>:
                for (j=0; j<N; j++) {
ee002f56:	40868333          	sub	t1,a3,s0
ee002f5a:	ffe30093          	addi	ra,t1,-2
ee002f5e:	0010d293          	srli	t0,ra,0x1
ee002f62:	00128393          	addi	t2,t0,1
ee002f66:	00161793          	slli	a5,a2,0x1
ee002f6a:	0073f893          	andi	a7,t2,7
ee002f6e:	97ca                	add	a5,a5,s2
                C[i]=0;
ee002f70:	8722                	mv	a4,s0
ee002f72:	4e01                	li	t3,0
ee002f74:	0a088563          	beqz	a7,ee00301e <.L1206>
ee002f78:	4805                	li	a6,1
ee002f7a:	09088763          	beq	a7,a6,ee003008 <.L1232>
ee002f7e:	4a09                	li	s4,2
ee002f80:	07488b63          	beq	a7,s4,ee002ff6 <.L1233>
ee002f84:	4a8d                	li	s5,3
ee002f86:	05588f63          	beq	a7,s5,ee002fe4 <.L1234>
ee002f8a:	4b11                	li	s6,4
ee002f8c:	05688363          	beq	a7,s6,ee002fd2 <.L1235>
ee002f90:	4b95                	li	s7,5
ee002f92:	03788763          	beq	a7,s7,ee002fc0 <.L1236>
ee002f96:	4c19                	li	s8,6
ee002f98:	01888b63          	beq	a7,s8,ee002fae <.L1237>

ee002f9c <.LVL953>:
                        C[i]+=(MATRES)A[i*N+j] * (MATRES)B[j];
ee002f9c:	00079c83          	lh	s9,0(a5)
ee002fa0:	00041e03          	lh	t3,0(s0)
                for (j=0; j<N; j++) {
ee002fa4:	0789                	addi	a5,a5,2
ee002fa6:	00240713          	addi	a4,s0,2
                        C[i]+=(MATRES)A[i*N+j] * (MATRES)B[j];
ee002faa:	03cc8e33          	mul	t3,s9,t3

ee002fae <.L1237>:
ee002fae:	00079e83          	lh	t4,0(a5)
ee002fb2:	00071f03          	lh	t5,0(a4)
                for (j=0; j<N; j++) {
ee002fb6:	0789                	addi	a5,a5,2
ee002fb8:	0709                	addi	a4,a4,2
                        C[i]+=(MATRES)A[i*N+j] * (MATRES)B[j];
ee002fba:	03ee8fb3          	mul	t6,t4,t5
ee002fbe:	9e7e                	add	t3,t3,t6

ee002fc0 <.L1236>:
ee002fc0:	00079983          	lh	s3,0(a5)
ee002fc4:	00071303          	lh	t1,0(a4)
                for (j=0; j<N; j++) {
ee002fc8:	0789                	addi	a5,a5,2
ee002fca:	0709                	addi	a4,a4,2
                        C[i]+=(MATRES)A[i*N+j] * (MATRES)B[j];
ee002fcc:	026980b3          	mul	ra,s3,t1
ee002fd0:	9e06                	add	t3,t3,ra

ee002fd2 <.L1235>:
ee002fd2:	00079283          	lh	t0,0(a5)
ee002fd6:	00071383          	lh	t2,0(a4)
                for (j=0; j<N; j++) {
ee002fda:	0789                	addi	a5,a5,2
ee002fdc:	0709                	addi	a4,a4,2
                        C[i]+=(MATRES)A[i*N+j] * (MATRES)B[j];
ee002fde:	027288b3          	mul	a7,t0,t2
ee002fe2:	9e46                	add	t3,t3,a7

ee002fe4 <.L1234>:
ee002fe4:	00079803          	lh	a6,0(a5)
ee002fe8:	00071a03          	lh	s4,0(a4)
                for (j=0; j<N; j++) {
ee002fec:	0789                	addi	a5,a5,2
ee002fee:	0709                	addi	a4,a4,2
                        C[i]+=(MATRES)A[i*N+j] * (MATRES)B[j];
ee002ff0:	03480ab3          	mul	s5,a6,s4
ee002ff4:	9e56                	add	t3,t3,s5

ee002ff6 <.L1233>:
ee002ff6:	00079b03          	lh	s6,0(a5)
ee002ffa:	00071b83          	lh	s7,0(a4)
                for (j=0; j<N; j++) {
ee002ffe:	0789                	addi	a5,a5,2
ee003000:	0709                	addi	a4,a4,2
                        C[i]+=(MATRES)A[i*N+j] * (MATRES)B[j];
ee003002:	037b0c33          	mul	s8,s6,s7
ee003006:	9e62                	add	t3,t3,s8

ee003008 <.L1232>:
ee003008:	00079c83          	lh	s9,0(a5)
ee00300c:	00071e83          	lh	t4,0(a4)
                for (j=0; j<N; j++) {
ee003010:	0709                	addi	a4,a4,2
ee003012:	0789                	addi	a5,a5,2
                        C[i]+=(MATRES)A[i*N+j] * (MATRES)B[j];
ee003014:	03dc8f33          	mul	t5,s9,t4
ee003018:	9e7a                	add	t3,t3,t5
                for (j=0; j<N; j++) {
ee00301a:	08e68563          	beq	a3,a4,ee0030a4 <.L1240>

ee00301e <.L1206>:
                        C[i]+=(MATRES)A[i*N+j] * (MATRES)B[j];
ee00301e:	00079f83          	lh	t6,0(a5)
ee003022:	00071983          	lh	s3,0(a4)
ee003026:	00279083          	lh	ra,2(a5)
ee00302a:	00271a83          	lh	s5,2(a4)
ee00302e:	033f88b3          	mul	a7,t6,s3
ee003032:	00479803          	lh	a6,4(a5)
ee003036:	00471c03          	lh	s8,4(a4)
ee00303a:	00679283          	lh	t0,6(a5)
ee00303e:	00671b83          	lh	s7,6(a4)
ee003042:	00879c83          	lh	s9,8(a5)
ee003046:	00871b03          	lh	s6,8(a4)
ee00304a:	00a79f03          	lh	t5,10(a5)
ee00304e:	00a71a03          	lh	s4,10(a4)
ee003052:	00c79e83          	lh	t4,12(a5)
ee003056:	03508fb3          	mul	t6,ra,s5
ee00305a:	00c71983          	lh	s3,12(a4)
ee00305e:	00e79303          	lh	t1,14(a5)
ee003062:	00e71383          	lh	t2,14(a4)
ee003066:	9e46                	add	t3,t3,a7
                for (j=0; j<N; j++) {
ee003068:	0741                	addi	a4,a4,16
ee00306a:	07c1                	addi	a5,a5,16
                        C[i]+=(MATRES)A[i*N+j] * (MATRES)B[j];
ee00306c:	038800b3          	mul	ra,a6,s8
ee003070:	01fe0ab3          	add	s5,t3,t6
ee003074:	03728c33          	mul	s8,t0,s7
ee003078:	001a8833          	add	a6,s5,ra
ee00307c:	036c82b3          	mul	t0,s9,s6
ee003080:	01880bb3          	add	s7,a6,s8
ee003084:	034f08b3          	mul	a7,t5,s4
ee003088:	005b8cb3          	add	s9,s7,t0
ee00308c:	033e8b33          	mul	s6,t4,s3
ee003090:	011c8f33          	add	t5,s9,a7
ee003094:	02730a33          	mul	s4,t1,t2
ee003098:	016f0eb3          	add	t4,t5,s6
ee00309c:	014e8e33          	add	t3,t4,s4
                for (j=0; j<N; j++) {
ee0030a0:	f6e69fe3          	bne	a3,a4,ee00301e <.L1206>

ee0030a4 <.L1240>:
ee0030a4:	01c5a023          	sw	t3,0(a1)
        for (i=0; i<N; i++) {
ee0030a8:	0591                	addi	a1,a1,4
ee0030aa:	9626                	add	a2,a2,s1
ee0030ac:	eab515e3          	bne	a0,a1,ee002f56 <.L1207>
}
ee0030b0:	50b2                	lw	ra,44(sp)
ee0030b2:	5422                	lw	s0,40(sp)

ee0030b4 <.LVL954>:
ee0030b4:	5492                	lw	s1,36(sp)

ee0030b6 <.LVL955>:
ee0030b6:	5902                	lw	s2,32(sp)

ee0030b8 <.LVL956>:
ee0030b8:	49f2                	lw	s3,28(sp)
ee0030ba:	4a62                	lw	s4,24(sp)
ee0030bc:	4ad2                	lw	s5,20(sp)
ee0030be:	4b42                	lw	s6,16(sp)
ee0030c0:	4bb2                	lw	s7,12(sp)
ee0030c2:	4c22                	lw	s8,8(sp)
ee0030c4:	4c92                	lw	s9,4(sp)
ee0030c6:	6145                	addi	sp,sp,48
ee0030c8:	8082                	ret

ee0030ca <.L1242>:
ee0030ca:	8082                	ret

ee0030cc <matrix_mul_matrix>:
void matrix_mul_matrix(ee_u32 N, MATRES *C, MATDAT *A, MATDAT *B) {
ee0030cc:	715d                	addi	sp,sp,-80
ee0030ce:	c686                	sw	ra,76(sp)
ee0030d0:	c4a2                	sw	s0,72(sp)
ee0030d2:	c2a6                	sw	s1,68(sp)
ee0030d4:	c0ca                	sw	s2,64(sp)
ee0030d6:	de4e                	sw	s3,60(sp)
ee0030d8:	dc52                	sw	s4,56(sp)
ee0030da:	da56                	sw	s5,52(sp)
ee0030dc:	d85a                	sw	s6,48(sp)
ee0030de:	d65e                	sw	s7,44(sp)
ee0030e0:	d462                	sw	s8,40(sp)
ee0030e2:	d266                	sw	s9,36(sp)
ee0030e4:	d06a                	sw	s10,32(sp)
ee0030e6:	ce6e                	sw	s11,28(sp)
ee0030e8:	c42e                	sw	a1,8(sp)
ee0030ea:	c636                	sw	a3,12(sp)
        for (i=0; i<N; i++) {
ee0030ec:	1a050f63          	beqz	a0,ee0032aa <.L1245>
ee0030f0:	00151413          	slli	s0,a0,0x1
ee0030f4:	8aaa                	mv	s5,a0
ee0030f6:	89b2                	mv	s3,a2
ee0030f8:	00860933          	add	s2,a2,s0
                        C[i*N+j]=0;
ee0030fc:	00251493          	slli	s1,a0,0x2
ee003100:	4b01                	li	s6,0
        for (i=0; i<N; i++) {
ee003102:	4b81                	li	s7,0

ee003104 <.L1247>:
                for (j=0; j<N; j++) {
ee003104:	47a2                	lw	a5,8(sp)
ee003106:	002b1f13          	slli	t5,s6,0x2
                        C[i*N+j]=0;
ee00310a:	8626                	mv	a2,s1
ee00310c:	01e78533          	add	a0,a5,t5
ee003110:	4581                	li	a1,0
ee003112:	47a040ef          	jal	ra,ee00758c <memset>

ee003116 <.LVL960>:
ee003116:	4632                	lw	a2,12(sp)
ee003118:	8f2a                	mv	t5,a0
                for (j=0; j<N; j++) {
ee00311a:	4f81                	li	t6,0

ee00311c <.L1249>:
                        for(k=0;k<N;k++)
ee00311c:	41390733          	sub	a4,s2,s3
ee003120:	ffe70093          	addi	ra,a4,-2
ee003124:	0010d293          	srli	t0,ra,0x1
ee003128:	00128313          	addi	t1,t0,1
ee00312c:	00737393          	andi	t2,t1,7
ee003130:	85b2                	mv	a1,a2
ee003132:	86ce                	mv	a3,s3
ee003134:	4781                	li	a5,0
ee003136:	0a038663          	beqz	t2,ee0031e2 <.L1248>
ee00313a:	4805                	li	a6,1
ee00313c:	09038863          	beq	t2,a6,ee0031cc <.L1275>
ee003140:	4889                	li	a7,2
ee003142:	07138c63          	beq	t2,a7,ee0031ba <.L1276>
ee003146:	4a0d                	li	s4,3
ee003148:	07438063          	beq	t2,s4,ee0031a8 <.L1277>
ee00314c:	4c11                	li	s8,4
ee00314e:	05838463          	beq	t2,s8,ee003196 <.L1278>
ee003152:	4c95                	li	s9,5
ee003154:	03938863          	beq	t2,s9,ee003184 <.L1279>
ee003158:	4d19                	li	s10,6
ee00315a:	01a38c63          	beq	t2,s10,ee003172 <.L1280>

ee00315e <.LVL962>:
                                C[i*N+j]+=(MATRES)A[i*N+k] * (MATRES)B[k*N+j];
ee00315e:	00099d83          	lh	s11,0(s3)
ee003162:	00061e03          	lh	t3,0(a2)
                        for(k=0;k<N;k++)
ee003166:	00298693          	addi	a3,s3,2
ee00316a:	008605b3          	add	a1,a2,s0
                                C[i*N+j]+=(MATRES)A[i*N+k] * (MATRES)B[k*N+j];
ee00316e:	03cd87b3          	mul	a5,s11,t3

ee003172 <.L1280>:
ee003172:	00069e83          	lh	t4,0(a3)
ee003176:	00059503          	lh	a0,0(a1)
                        for(k=0;k<N;k++)
ee00317a:	0689                	addi	a3,a3,2
ee00317c:	95a2                	add	a1,a1,s0
                                C[i*N+j]+=(MATRES)A[i*N+k] * (MATRES)B[k*N+j];
ee00317e:	02ae8733          	mul	a4,t4,a0
ee003182:	97ba                	add	a5,a5,a4

ee003184 <.L1279>:
ee003184:	00069083          	lh	ra,0(a3)
ee003188:	00059283          	lh	t0,0(a1)
                        for(k=0;k<N;k++)
ee00318c:	0689                	addi	a3,a3,2
ee00318e:	95a2                	add	a1,a1,s0
                                C[i*N+j]+=(MATRES)A[i*N+k] * (MATRES)B[k*N+j];
ee003190:	02508333          	mul	t1,ra,t0
ee003194:	979a                	add	a5,a5,t1

ee003196 <.L1278>:
ee003196:	00069383          	lh	t2,0(a3)
ee00319a:	00059803          	lh	a6,0(a1)
                        for(k=0;k<N;k++)
ee00319e:	0689                	addi	a3,a3,2
ee0031a0:	95a2                	add	a1,a1,s0
                                C[i*N+j]+=(MATRES)A[i*N+k] * (MATRES)B[k*N+j];
ee0031a2:	030388b3          	mul	a7,t2,a6
ee0031a6:	97c6                	add	a5,a5,a7

ee0031a8 <.L1277>:
ee0031a8:	00069a03          	lh	s4,0(a3)
ee0031ac:	00059c03          	lh	s8,0(a1)
                        for(k=0;k<N;k++)
ee0031b0:	0689                	addi	a3,a3,2
ee0031b2:	95a2                	add	a1,a1,s0
                                C[i*N+j]+=(MATRES)A[i*N+k] * (MATRES)B[k*N+j];
ee0031b4:	038a0cb3          	mul	s9,s4,s8
ee0031b8:	97e6                	add	a5,a5,s9

ee0031ba <.L1276>:
ee0031ba:	00069d03          	lh	s10,0(a3)
ee0031be:	00059d83          	lh	s11,0(a1)
                        for(k=0;k<N;k++)
ee0031c2:	0689                	addi	a3,a3,2
ee0031c4:	95a2                	add	a1,a1,s0
                                C[i*N+j]+=(MATRES)A[i*N+k] * (MATRES)B[k*N+j];
ee0031c6:	03bd0e33          	mul	t3,s10,s11
ee0031ca:	97f2                	add	a5,a5,t3

ee0031cc <.L1275>:
ee0031cc:	00069e83          	lh	t4,0(a3)
ee0031d0:	00059503          	lh	a0,0(a1)
                        for(k=0;k<N;k++)
ee0031d4:	0689                	addi	a3,a3,2
ee0031d6:	95a2                	add	a1,a1,s0
                                C[i*N+j]+=(MATRES)A[i*N+k] * (MATRES)B[k*N+j];
ee0031d8:	02ae8733          	mul	a4,t4,a0
ee0031dc:	97ba                	add	a5,a5,a4
                        for(k=0;k<N;k++)
ee0031de:	0ad90363          	beq	s2,a3,ee003284 <.L1284>

ee0031e2 <.L1248>:
                                C[i*N+j]+=(MATRES)A[i*N+k] * (MATRES)B[k*N+j];
ee0031e2:	00069303          	lh	t1,0(a3)
ee0031e6:	00059383          	lh	t2,0(a1)
                        for(k=0;k<N;k++)
ee0031ea:	008580b3          	add	ra,a1,s0
ee0031ee:	008082b3          	add	t0,ra,s0
                                C[i*N+j]+=(MATRES)A[i*N+k] * (MATRES)B[k*N+j];
ee0031f2:	02730733          	mul	a4,t1,t2
ee0031f6:	00009e03          	lh	t3,0(ra)
ee0031fa:	00269d03          	lh	s10,2(a3)
                        for(k=0;k<N;k++)
ee0031fe:	00828833          	add	a6,t0,s0
                                C[i*N+j]+=(MATRES)A[i*N+k] * (MATRES)B[k*N+j];
ee003202:	00029d83          	lh	s11,0(t0)
ee003206:	00469a03          	lh	s4,4(a3)
                        for(k=0;k<N;k++)
ee00320a:	008808b3          	add	a7,a6,s0
                                C[i*N+j]+=(MATRES)A[i*N+k] * (MATRES)B[k*N+j];
ee00320e:	00081c83          	lh	s9,0(a6)
ee003212:	00669083          	lh	ra,6(a3)
                        for(k=0;k<N;k++)
ee003216:	00888eb3          	add	t4,a7,s0
                                C[i*N+j]+=(MATRES)A[i*N+k] * (MATRES)B[k*N+j];
ee00321a:	03cd0d33          	mul	s10,s10,t3
ee00321e:	00869303          	lh	t1,8(a3)
ee003222:	00089c03          	lh	s8,0(a7)
ee003226:	00a69283          	lh	t0,10(a3)
ee00322a:	000e9383          	lh	t2,0(t4) # 10000 <.LLST534+0x29b1>
                        for(k=0;k<N;k++)
ee00322e:	008e8533          	add	a0,t4,s0
                                C[i*N+j]+=(MATRES)A[i*N+k] * (MATRES)B[k*N+j];
ee003232:	00c69803          	lh	a6,12(a3)
                        for(k=0;k<N;k++)
ee003236:	008505b3          	add	a1,a0,s0
                                C[i*N+j]+=(MATRES)A[i*N+k] * (MATRES)B[k*N+j];
ee00323a:	00051e83          	lh	t4,0(a0)
ee00323e:	97ba                	add	a5,a5,a4
ee003240:	03ba0a33          	mul	s4,s4,s11
ee003244:	00e69503          	lh	a0,14(a3)
ee003248:	00059e03          	lh	t3,0(a1)
ee00324c:	01a78db3          	add	s11,a5,s10
                        for(k=0;k<N;k++)
ee003250:	06c1                	addi	a3,a3,16
ee003252:	95a2                	add	a1,a1,s0
                                C[i*N+j]+=(MATRES)A[i*N+k] * (MATRES)B[k*N+j];
ee003254:	039080b3          	mul	ra,ra,s9
ee003258:	014d88b3          	add	a7,s11,s4
ee00325c:	03830733          	mul	a4,t1,s8
ee003260:	00188cb3          	add	s9,a7,ra
ee003264:	02728333          	mul	t1,t0,t2
ee003268:	00ec8c33          	add	s8,s9,a4
ee00326c:	03d802b3          	mul	t0,a6,t4
ee003270:	006c03b3          	add	t2,s8,t1
ee003274:	03c50833          	mul	a6,a0,t3
ee003278:	00538d33          	add	s10,t2,t0
ee00327c:	010d07b3          	add	a5,s10,a6
                        for(k=0;k<N;k++)
ee003280:	f6d911e3          	bne	s2,a3,ee0031e2 <.L1248>

ee003284 <.L1284>:
ee003284:	00ff2023          	sw	a5,0(t5)
                for (j=0; j<N; j++) {
ee003288:	001f8693          	addi	a3,t6,1

ee00328c <.LVL963>:
ee00328c:	0f11                	addi	t5,t5,4
ee00328e:	0609                	addi	a2,a2,2
ee003290:	00da8463          	beq	s5,a3,ee003298 <.L1288>
ee003294:	8fb6                	mv	t6,a3
ee003296:	b559                	j	ee00311c <.L1249>

ee003298 <.L1288>:
        for (i=0; i<N; i++) {
ee003298:	001b8f13          	addi	t5,s7,1

ee00329c <.LVL964>:
ee00329c:	99a2                	add	s3,s3,s0
ee00329e:	9b56                	add	s6,s6,s5
ee0032a0:	9922                	add	s2,s2,s0
ee0032a2:	01fb8463          	beq	s7,t6,ee0032aa <.L1245>
ee0032a6:	8bfa                	mv	s7,t5
ee0032a8:	bdb1                	j	ee003104 <.L1247>

ee0032aa <.L1245>:
}
ee0032aa:	40b6                	lw	ra,76(sp)
ee0032ac:	4426                	lw	s0,72(sp)
ee0032ae:	4496                	lw	s1,68(sp)
ee0032b0:	4906                	lw	s2,64(sp)
ee0032b2:	59f2                	lw	s3,60(sp)
ee0032b4:	5a62                	lw	s4,56(sp)
ee0032b6:	5ad2                	lw	s5,52(sp)
ee0032b8:	5b42                	lw	s6,48(sp)
ee0032ba:	5bb2                	lw	s7,44(sp)
ee0032bc:	5c22                	lw	s8,40(sp)
ee0032be:	5c92                	lw	s9,36(sp)
ee0032c0:	5d02                	lw	s10,32(sp)
ee0032c2:	4df2                	lw	s11,28(sp)
ee0032c4:	6161                	addi	sp,sp,80

ee0032c6 <.LVL966>:
ee0032c6:	8082                	ret

ee0032c8 <matrix_mul_matrix_bitextract>:
        for (i=0; i<N; i++) {
ee0032c8:	1c050463          	beqz	a0,ee003490 <.L1314>
void matrix_mul_matrix_bitextract(ee_u32 N, MATRES *C, MATDAT *A, MATDAT *B) {
ee0032cc:	7179                	addi	sp,sp,-48
ee0032ce:	ce4e                	sw	s3,28(sp)
ee0032d0:	00151993          	slli	s3,a0,0x1
ee0032d4:	d422                	sw	s0,40(sp)
ee0032d6:	d226                	sw	s1,36(sp)
ee0032d8:	d04a                	sw	s2,32(sp)
ee0032da:	cc52                	sw	s4,24(sp)
ee0032dc:	ca56                	sw	s5,20(sp)
ee0032de:	c85a                	sw	s6,16(sp)
ee0032e0:	c65e                	sw	s7,12(sp)
ee0032e2:	c462                	sw	s8,8(sp)
ee0032e4:	d606                	sw	ra,44(sp)
ee0032e6:	8b2a                	mv	s6,a0
ee0032e8:	842e                	mv	s0,a1
ee0032ea:	84b6                	mv	s1,a3
ee0032ec:	8ab2                	mv	s5,a2
ee0032ee:	01360a33          	add	s4,a2,s3
                        C[i*N+j]=0;
ee0032f2:	00251913          	slli	s2,a0,0x2
ee0032f6:	4b81                	li	s7,0
        for (i=0; i<N; i++) {
ee0032f8:	4c01                	li	s8,0

ee0032fa <.L1291>:
                for (j=0; j<N; j++) {
ee0032fa:	002b9813          	slli	a6,s7,0x2
ee0032fe:	01040533          	add	a0,s0,a6
                        C[i*N+j]=0;
ee003302:	864a                	mv	a2,s2
ee003304:	4581                	li	a1,0
ee003306:	286040ef          	jal	ra,ee00758c <memset>

ee00330a <.LVL969>:
ee00330a:	83aa                	mv	t2,a0
ee00330c:	88a6                	mv	a7,s1
                for (j=0; j<N; j++) {
ee00330e:	4301                	li	t1,0

ee003310 <.L1293>:
                        for(k=0;k<N;k++)
ee003310:	415a07b3          	sub	a5,s4,s5
ee003314:	ffe78093          	addi	ra,a5,-2
ee003318:	0010d293          	srli	t0,ra,0x1
ee00331c:	00128593          	addi	a1,t0,1
ee003320:	0035f613          	andi	a2,a1,3
ee003324:	8546                	mv	a0,a7
ee003326:	86d6                	mv	a3,s5
ee003328:	4e81                	li	t4,0
ee00332a:	c259                	beqz	a2,ee0033b0 <.L1292>
ee00332c:	4705                	li	a4,1
ee00332e:	04e60c63          	beq	a2,a4,ee003386 <.L1307>
ee003332:	4e09                	li	t3,2
ee003334:	03c60663          	beq	a2,t3,ee003360 <.L1308>

ee003338 <.LBB525>:
                                MATRES tmp=(MATRES)A[i*N+k] * (MATRES)B[k*N+j];
ee003338:	000a9e83          	lh	t4,0(s5)
ee00333c:	00089f03          	lh	t5,0(a7)

ee003340 <.LBE525>:
                        for(k=0;k<N;k++)
ee003340:	002a8693          	addi	a3,s5,2
ee003344:	01388533          	add	a0,a7,s3

ee003348 <.LBB526>:
                                MATRES tmp=(MATRES)A[i*N+k] * (MATRES)B[k*N+j];
ee003348:	03ee8fb3          	mul	t6,t4,t5
                                C[i*N+j]+=bit_extract(tmp,2,4)*bit_extract(tmp,5,7);
ee00334c:	402fd813          	srai	a6,t6,0x2
ee003350:	405fd093          	srai	ra,t6,0x5
ee003354:	00f87793          	andi	a5,a6,15
ee003358:	07f0f293          	andi	t0,ra,127
ee00335c:	02578eb3          	mul	t4,a5,t0

ee003360 <.L1308>:
                                MATRES tmp=(MATRES)A[i*N+k] * (MATRES)B[k*N+j];
ee003360:	00069583          	lh	a1,0(a3)
ee003364:	00051603          	lh	a2,0(a0)

ee003368 <.LBE527>:
                        for(k=0;k<N;k++)
ee003368:	0689                	addi	a3,a3,2
ee00336a:	954e                	add	a0,a0,s3

ee00336c <.LBB528>:
                                MATRES tmp=(MATRES)A[i*N+k] * (MATRES)B[k*N+j];
ee00336c:	02c58e33          	mul	t3,a1,a2
                                C[i*N+j]+=bit_extract(tmp,2,4)*bit_extract(tmp,5,7);
ee003370:	402e5713          	srai	a4,t3,0x2
ee003374:	405e5f13          	srai	t5,t3,0x5
ee003378:	00f77f93          	andi	t6,a4,15
ee00337c:	07ff7813          	andi	a6,t5,127
ee003380:	030f80b3          	mul	ra,t6,a6
ee003384:	9e86                	add	t4,t4,ra

ee003386 <.L1307>:
                                MATRES tmp=(MATRES)A[i*N+k] * (MATRES)B[k*N+j];
ee003386:	00069783          	lh	a5,0(a3)
ee00338a:	00051283          	lh	t0,0(a0)

ee00338e <.LBE529>:
                        for(k=0;k<N;k++)
ee00338e:	0689                	addi	a3,a3,2
ee003390:	954e                	add	a0,a0,s3

ee003392 <.LBB530>:
                                MATRES tmp=(MATRES)A[i*N+k] * (MATRES)B[k*N+j];
ee003392:	025785b3          	mul	a1,a5,t0
                                C[i*N+j]+=bit_extract(tmp,2,4)*bit_extract(tmp,5,7);
ee003396:	4025d613          	srai	a2,a1,0x2
ee00339a:	4055de13          	srai	t3,a1,0x5
ee00339e:	00f67713          	andi	a4,a2,15
ee0033a2:	07fe7f13          	andi	t5,t3,127
ee0033a6:	03e70fb3          	mul	t6,a4,t5
ee0033aa:	9efe                	add	t4,t4,t6

ee0033ac <.LBE530>:
                        for(k=0;k<N;k++)
ee0033ac:	0ada0363          	beq	s4,a3,ee003452 <.L1312>

ee0033b0 <.L1292>:
ee0033b0:	01350833          	add	a6,a0,s3

ee0033b4 <.LBB532>:
                                MATRES tmp=(MATRES)A[i*N+k] * (MATRES)B[k*N+j];
ee0033b4:	00069083          	lh	ra,0(a3)
ee0033b8:	00051283          	lh	t0,0(a0)

ee0033bc <.LBE532>:
                        for(k=0;k<N;k++)
ee0033bc:	013807b3          	add	a5,a6,s3

ee0033c0 <.LBB533>:
                                MATRES tmp=(MATRES)A[i*N+k] * (MATRES)B[k*N+j];
ee0033c0:	00269e03          	lh	t3,2(a3)
ee0033c4:	00081703          	lh	a4,0(a6)
ee0033c8:	00079f83          	lh	t6,0(a5)

ee0033cc <.LBE533>:
                        for(k=0;k<N;k++)
ee0033cc:	01378533          	add	a0,a5,s3

ee0033d0 <.LBB534>:
                                MATRES tmp=(MATRES)A[i*N+k] * (MATRES)B[k*N+j];
ee0033d0:	00469603          	lh	a2,4(a3)
ee0033d4:	02508f33          	mul	t5,ra,t0

ee0033d8 <.LVL973>:
ee0033d8:	00051803          	lh	a6,0(a0)
ee0033dc:	00669583          	lh	a1,6(a3)

ee0033e0 <.LBE534>:
                        for(k=0;k<N;k++)
ee0033e0:	06a1                	addi	a3,a3,8
ee0033e2:	954e                	add	a0,a0,s3

ee0033e4 <.LBB535>:
                                MATRES tmp=(MATRES)A[i*N+k] * (MATRES)B[k*N+j];
ee0033e4:	02ee00b3          	mul	ra,t3,a4
                                C[i*N+j]+=bit_extract(tmp,2,4)*bit_extract(tmp,5,7);
ee0033e8:	402f5293          	srai	t0,t5,0x2
ee0033ec:	405f5e13          	srai	t3,t5,0x5
ee0033f0:	00f2f713          	andi	a4,t0,15
ee0033f4:	07fe7793          	andi	a5,t3,127
                                MATRES tmp=(MATRES)A[i*N+k] * (MATRES)B[k*N+j];
ee0033f8:	03f60633          	mul	a2,a2,t6
                                C[i*N+j]+=bit_extract(tmp,2,4)*bit_extract(tmp,5,7);
ee0033fc:	4050df13          	srai	t5,ra,0x5

ee003400 <.LVL974>:
ee003400:	4020df93          	srai	t6,ra,0x2
ee003404:	07ff7293          	andi	t0,t5,127
ee003408:	00fff093          	andi	ra,t6,15
                                MATRES tmp=(MATRES)A[i*N+k] * (MATRES)B[k*N+j];
ee00340c:	030585b3          	mul	a1,a1,a6
                                C[i*N+j]+=bit_extract(tmp,2,4)*bit_extract(tmp,5,7);
ee003410:	40565e13          	srai	t3,a2,0x5
ee003414:	40265813          	srai	a6,a2,0x2
ee003418:	00f87f93          	andi	t6,a6,15
ee00341c:	07fe7613          	andi	a2,t3,127
ee003420:	02f707b3          	mul	a5,a4,a5
ee003424:	4055df13          	srai	t5,a1,0x5
ee003428:	4025d713          	srai	a4,a1,0x2
ee00342c:	00f77813          	andi	a6,a4,15
ee003430:	07ff7593          	andi	a1,t5,127
ee003434:	025080b3          	mul	ra,ra,t0
ee003438:	9ebe                	add	t4,t4,a5

ee00343a <.LBB536>:
ee00343a:	02cf82b3          	mul	t0,t6,a2
ee00343e:	001e8e33          	add	t3,t4,ra

ee003442 <.LBB537>:
ee003442:	02b80fb3          	mul	t6,a6,a1
ee003446:	005e0633          	add	a2,t3,t0

ee00344a <.LBB538>:
ee00344a:	01f60eb3          	add	t4,a2,t6

ee00344e <.LBE538>:
                        for(k=0;k<N;k++)
ee00344e:	f6da11e3          	bne	s4,a3,ee0033b0 <.L1292>

ee003452 <.L1312>:
ee003452:	01d3a023          	sw	t4,0(t2)
                for (j=0; j<N; j++) {
ee003456:	00130693          	addi	a3,t1,1

ee00345a <.LVL975>:
ee00345a:	0391                	addi	t2,t2,4
ee00345c:	0889                	addi	a7,a7,2
ee00345e:	00db0463          	beq	s6,a3,ee003466 <.L1317>
ee003462:	8336                	mv	t1,a3
ee003464:	b575                	j	ee003310 <.L1293>

ee003466 <.L1317>:
        for (i=0; i<N; i++) {
ee003466:	001c0393          	addi	t2,s8,1

ee00346a <.LVL976>:
ee00346a:	9ace                	add	s5,s5,s3
ee00346c:	9bda                	add	s7,s7,s6
ee00346e:	9a4e                	add	s4,s4,s3
ee003470:	006c0463          	beq	s8,t1,ee003478 <.L1289>
ee003474:	8c1e                	mv	s8,t2
ee003476:	b551                	j	ee0032fa <.L1291>

ee003478 <.L1289>:
}
ee003478:	50b2                	lw	ra,44(sp)
ee00347a:	5422                	lw	s0,40(sp)

ee00347c <.LVL977>:
ee00347c:	5492                	lw	s1,36(sp)

ee00347e <.LVL978>:
ee00347e:	5902                	lw	s2,32(sp)
ee003480:	49f2                	lw	s3,28(sp)
ee003482:	4a62                	lw	s4,24(sp)
ee003484:	4ad2                	lw	s5,20(sp)
ee003486:	4b42                	lw	s6,16(sp)

ee003488 <.LVL979>:
ee003488:	4bb2                	lw	s7,12(sp)
ee00348a:	4c22                	lw	s8,8(sp)
ee00348c:	6145                	addi	sp,sp,48
ee00348e:	8082                	ret

ee003490 <.L1314>:
ee003490:	8082                	ret

ee003492 <core_init_state>:
        size--;
ee003492:	fff50313          	addi	t1,a0,-1

ee003496 <.LVL982>:
        while ((total+next+1)<size) {
ee003496:	4785                	li	a5,1
void core_init_state(ee_u32 size, ee_s16 seed, ee_u8 *p) {
ee003498:	88b2                	mv	a7,a2
        while ((total+next+1)<size) {
ee00349a:	1667fa63          	bgeu	a5,t1,ee00360e <.L1327>
ee00349e:	0585                	addi	a1,a1,1

ee0034a0 <.LVL983>:
ee0034a0:	01059293          	slli	t0,a1,0x10
ee0034a4:	0102d593          	srli	a1,t0,0x10
ee0034a8:	f0040637          	lui	a2,0xf0040

ee0034ac <.LVL984>:
                                buf=intpat[(seed>>3) & 0x3];
ee0034ac:	0035d393          	srli	t2,a1,0x3
                switch (seed & 0x7) {
ee0034b0:	4e9d                	li	t4,7
ee0034b2:	0075f693          	andi	a3,a1,7
        ee_u32 total=0,next=0,i;
ee0034b6:	4701                	li	a4,0
ee0034b8:	0a860613          	addi	a2,a2,168 # f00400a8 <STACK+0xffff7af8>
                                next=8;
ee0034bc:	4fa1                	li	t6,8
                switch (seed & 0x7) {
ee0034be:	4811                	li	a6,4
ee0034c0:	4e05                	li	t3,1
                        *(p+total+i)=',';
ee0034c2:	02c00f13          	li	t5,44

ee0034c6 <.LVL985>:
                                buf=intpat[(seed>>3) & 0x3];
ee0034c6:	0033f793          	andi	a5,t2,3
                switch (seed & 0x7) {
ee0034ca:	11d68c63          	beq	a3,t4,ee0035e2 <.L1332>
ee0034ce:	12d86863          	bltu	a6,a3,ee0035fe <.L1334>
ee0034d2:	ffd68393          	addi	t2,a3,-3
ee0034d6:	01039293          	slli	t0,t2,0x10
                                buf=floatpat[(seed>>3) & 0x3];
ee0034da:	078a                	slli	a5,a5,0x2
                switch (seed & 0x7) {
ee0034dc:	0102d693          	srli	a3,t0,0x10
                                buf=floatpat[(seed>>3) & 0x3];
ee0034e0:	00f603b3          	add	t2,a2,a5
                switch (seed & 0x7) {
ee0034e4:	10de6863          	bltu	t3,a3,ee0035f4 <.L1344>
                                buf=floatpat[(seed>>3) & 0x3];
ee0034e8:	0103a683          	lw	a3,16(t2)

ee0034ec <.LVL986>:
                        break;
ee0034ec:	47a5                	li	a5,9
                                next=8;
ee0034ee:	43a1                	li	t2,8

ee0034f0 <.L1337>:
        while ((total+next+1)<size) {
ee0034f0:	00f702b3          	add	t0,a4,a5
ee0034f4:	1262f563          	bgeu	t0,t1,ee00361e <.L1345>
void core_init_state(ee_u32 size, ee_s16 seed, ee_u8 *p) {
ee0034f8:	1141                	addi	sp,sp,-16
ee0034fa:	c622                	sw	s0,12(sp)
ee0034fc:	a035                	j	ee003528 <.L1326>

ee0034fe <.L1348>:
                switch (seed & 0x7) {
ee0034fe:	0c886663          	bltu	a6,s0,ee0035ca <.L1323>
ee003502:	ffd40693          	addi	a3,s0,-3
ee003506:	01069793          	slli	a5,a3,0x10
                                buf=floatpat[(seed>>3) & 0x3];
ee00350a:	00239413          	slli	s0,t2,0x2
                switch (seed & 0x7) {
ee00350e:	0107d293          	srli	t0,a5,0x10
                                buf=floatpat[(seed>>3) & 0x3];
ee003512:	008603b3          	add	t2,a2,s0
                switch (seed & 0x7) {
ee003516:	0a5e6563          	bltu	t3,t0,ee0035c0 <.L1346>
                                buf=floatpat[(seed>>3) & 0x3];
ee00351a:	0103a683          	lw	a3,16(t2)

ee00351e <.LVL989>:
                        break;
ee00351e:	42a5                	li	t0,9
                                next=8;
ee003520:	43a1                	li	t2,8

ee003522 <.L1325>:
        while ((total+next+1)<size) {
ee003522:	92ba                	add	t0,t0,a4
ee003524:	0862f363          	bgeu	t0,t1,ee0035aa <.L1347>

ee003528 <.L1326>:
                                *(p+total+i)=buf[i];
ee003528:	0006c403          	lbu	s0,0(a3)
ee00352c:	00e887b3          	add	a5,a7,a4
ee003530:	00878023          	sb	s0,0(a5)

ee003534 <.LVL992>:
ee003534:	0016c703          	lbu	a4,1(a3)
ee003538:	00e780a3          	sb	a4,1(a5)

ee00353c <.LVL993>:
ee00353c:	0026c403          	lbu	s0,2(a3)
ee003540:	00878123          	sb	s0,2(a5)

ee003544 <.LVL994>:
ee003544:	0036c703          	lbu	a4,3(a3)
ee003548:	00e781a3          	sb	a4,3(a5)

ee00354c <.LVL995>:
                        for(i=0;i<next;i++)
ee00354c:	03038463          	beq	t2,a6,ee003574 <.L1321>
                                *(p+total+i)=buf[i];
ee003550:	0046c403          	lbu	s0,4(a3)
ee003554:	00878223          	sb	s0,4(a5)

ee003558 <.LVL996>:
ee003558:	0056c703          	lbu	a4,5(a3)
ee00355c:	00e782a3          	sb	a4,5(a5)

ee003560 <.LVL997>:
ee003560:	0066c403          	lbu	s0,6(a3)
ee003564:	00878323          	sb	s0,6(a5)

ee003568 <.LVL998>:
                        for(i=0;i<next;i++)
ee003568:	01f39663          	bne	t2,t6,ee003574 <.L1321>
                                *(p+total+i)=buf[i];
ee00356c:	0076c683          	lbu	a3,7(a3)
ee003570:	00d783a3          	sb	a3,7(a5)

ee003574 <.L1321>:
                        *(p+total+i)=',';
ee003574:	0585                	addi	a1,a1,1
ee003576:	93be                	add	t2,t2,a5
ee003578:	01059793          	slli	a5,a1,0x10
ee00357c:	0107d593          	srli	a1,a5,0x10
ee003580:	01e38023          	sb	t5,0(t2)

ee003584 <.LVL1000>:
ee003584:	8716                	mv	a4,t0

ee003586 <.LVL1001>:
                switch (seed & 0x7) {
ee003586:	0075f413          	andi	s0,a1,7
                                buf=intpat[(seed>>3) & 0x3];
ee00358a:	0035d293          	srli	t0,a1,0x3

ee00358e <.LVL1002>:
ee00358e:	0032f393          	andi	t2,t0,3
                switch (seed & 0x7) {
ee003592:	f7d416e3          	bne	s0,t4,ee0034fe <.L1348>
                                buf=errpat[(seed>>3) & 0x3];
ee003596:	00239693          	slli	a3,t2,0x2
                        break;
ee00359a:	42a5                	li	t0,9
                                buf=errpat[(seed>>3) & 0x3];
ee00359c:	00d607b3          	add	a5,a2,a3
        while ((total+next+1)<size) {
ee0035a0:	92ba                	add	t0,t0,a4
                                buf=errpat[(seed>>3) & 0x3];
ee0035a2:	5b94                	lw	a3,48(a5)

ee0035a4 <.LVL1003>:
                                next=8;
ee0035a4:	43a1                	li	t2,8

ee0035a6 <.LVL1004>:
        while ((total+next+1)<size) {
ee0035a6:	f862e1e3          	bltu	t0,t1,ee003528 <.L1326>

ee0035aa <.L1347>:
        while (total<size) { /* fill the rest with 0 */
ee0035aa:	02a77963          	bgeu	a4,a0,ee0035dc <.L1349>
}
ee0035ae:	4432                	lw	s0,12(sp)
                *(p+total)=0;
ee0035b0:	40e50633          	sub	a2,a0,a4
ee0035b4:	4581                	li	a1,0

ee0035b6 <.LVL1006>:
ee0035b6:	00e88533          	add	a0,a7,a4
}
ee0035ba:	0141                	addi	sp,sp,16
                *(p+total)=0;
ee0035bc:	7d10306f          	j	ee00758c <memset>

ee0035c0 <.L1346>:
                                buf=intpat[(seed>>3) & 0x3];
ee0035c0:	0003a683          	lw	a3,0(t2)

ee0035c4 <.LVL1008>:
                        break;
ee0035c4:	4295                	li	t0,5
                                next=4;
ee0035c6:	4391                	li	t2,4
                        break;
ee0035c8:	bfa9                	j	ee003522 <.L1325>

ee0035ca <.L1323>:
                                buf=scipat[(seed>>3) & 0x3];
ee0035ca:	00239413          	slli	s0,t2,0x2
ee0035ce:	008603b3          	add	t2,a2,s0
ee0035d2:	0203a683          	lw	a3,32(t2)

ee0035d6 <.LVL1010>:
                        break;
ee0035d6:	42a5                	li	t0,9
                                next=8;
ee0035d8:	43a1                	li	t2,8
                        break;
ee0035da:	b7a1                	j	ee003522 <.L1325>

ee0035dc <.L1349>:
}
ee0035dc:	4432                	lw	s0,12(sp)
ee0035de:	0141                	addi	sp,sp,16
ee0035e0:	8082                	ret

ee0035e2 <.L1332>:
                                buf=errpat[(seed>>3) & 0x3];
ee0035e2:	00279293          	slli	t0,a5,0x2
ee0035e6:	005603b3          	add	t2,a2,t0
ee0035ea:	0303a683          	lw	a3,48(t2)

ee0035ee <.LVL1013>:
                        break;
ee0035ee:	47a5                	li	a5,9
                                next=8;
ee0035f0:	43a1                	li	t2,8
ee0035f2:	bdfd                	j	ee0034f0 <.L1337>

ee0035f4 <.L1344>:
                                buf=intpat[(seed>>3) & 0x3];
ee0035f4:	0003a683          	lw	a3,0(t2)

ee0035f8 <.LVL1015>:
                        break;
ee0035f8:	4795                	li	a5,5
                                next=4;
ee0035fa:	4391                	li	t2,4
ee0035fc:	bdd5                	j	ee0034f0 <.L1337>

ee0035fe <.L1334>:
                                buf=scipat[(seed>>3) & 0x3];
ee0035fe:	00279293          	slli	t0,a5,0x2
ee003602:	005606b3          	add	a3,a2,t0
ee003606:	5294                	lw	a3,32(a3)

ee003608 <.LVL1017>:
                        break;
ee003608:	47a5                	li	a5,9
                                next=8;
ee00360a:	43a1                	li	t2,8
ee00360c:	b5d5                	j	ee0034f0 <.L1337>

ee00360e <.L1327>:
        ee_u32 total=0,next=0,i;
ee00360e:	4701                	li	a4,0

ee003610 <.L1339>:
                *(p+total)=0;
ee003610:	40e50633          	sub	a2,a0,a4
ee003614:	4581                	li	a1,0
ee003616:	00e88533          	add	a0,a7,a4
ee00361a:	7730306f          	j	ee00758c <memset>

ee00361e <.L1345>:
        while (total<size) { /* fill the rest with 0 */
ee00361e:	fea769e3          	bltu	a4,a0,ee003610 <.L1339>
ee003622:	8082                	ret

ee003624 <core_state_transition>:
        ee_u8 *str=*instr;
ee003624:	411c                	lw	a5,0(a0)
enum CORE_STATE core_state_transition( ee_u8 **instr , ee_u32 *transition_count) {
ee003626:	882a                	mv	a6,a0

ee003628 <.LVL1022>:
        enum CORE_STATE state=CORE_START;
ee003628:	4501                	li	a0,0

ee00362a <.LVL1023>:
        for( ; *str && state != CORE_INVALID; str++ ) {
ee00362a:	0007c683          	lbu	a3,0(a5)
ee00362e:	873e                	mv	a4,a5
ee003630:	cedd                	beqz	a3,ee0036ee <.L1352>

ee003632 <.LVL1024>:
                if (NEXT_SYMBOL==',') /* end of this input */ {
ee003632:	02c00513          	li	a0,44
        for( ; *str && state != CORE_INVALID; str++ ) {
ee003636:	00178713          	addi	a4,a5,1
                if (NEXT_SYMBOL==',') /* end of this input */ {
ee00363a:	24a68463          	beq	a3,a0,ee003882 <.L1415>

ee00363e <.LBB539>:
                        transition_count[CORE_START]++;
ee00363e:	0005a883          	lw	a7,0(a1)

ee003642 <.LBB544>:
        retval = ((c>='0') & (c<='9')) ? 1 : 0;
ee003642:	fd068613          	addi	a2,a3,-48
ee003646:	0ff67293          	andi	t0,a2,255
ee00364a:	4325                	li	t1,9

ee00364c <.LBE544>:
                        transition_count[CORE_START]++;
ee00364c:	00188393          	addi	t2,a7,1

ee003650 <.LBB545>:
        retval = ((c>='0') & (c<='9')) ? 1 : 0;
ee003650:	0a536263          	bltu	t1,t0,ee0036f4 <.L1359>

ee003654 <.LBE545>:
                        transition_count[CORE_START]++;
ee003654:	0075a023          	sw	t2,0(a1)

ee003658 <.LVL1027>:
        for( ; *str && state != CORE_INVALID; str++ ) {
ee003658:	0017c303          	lbu	t1,1(a5)
ee00365c:	12030763          	beqz	t1,ee00378a <.L1412>

ee003660 <.LVL1028>:
                        str++;
ee003660:	0789                	addi	a5,a5,2

ee003662 <.LVL1029>:
                if (NEXT_SYMBOL==',') /* end of this input */ {
ee003662:	12a30363          	beq	t1,a0,ee003788 <.L1396>

ee003666 <.L1357>:
        retval = ((c>='0') & (c<='9')) ? 1 : 0;
ee003666:	fd030613          	addi	a2,t1,-48

ee00366a <.LBE546>:
                        if( NEXT_SYMBOL == '.' ) {
ee00366a:	02e00f13          	li	t5,46

ee00366e <.LBB554>:
        retval = ((c>='0') & (c<='9')) ? 1 : 0;
ee00366e:	4fa5                	li	t6,9

ee003670 <.LBE554>:
                if (NEXT_SYMBOL==',') /* end of this input */ {
ee003670:	02c00893          	li	a7,44

ee003674 <.LBB555>:
        retval = ((c>='0') & (c<='9')) ? 1 : 0;
ee003674:	0ff67293          	andi	t0,a2,255

ee003678 <.LBE555>:
                        if( NEXT_SYMBOL == '.' ) {
ee003678:	03e30463          	beq	t1,t5,ee0036a0 <.L1416>

ee00367c <.L1369>:
        retval = ((c>='0') & (c<='9')) ? 1 : 0;
ee00367c:	0a5fe363          	bltu	t6,t0,ee003722 <.L1417>

ee003680 <.LBE556>:
        for( ; *str && state != CORE_INVALID; str++ ) {
ee003680:	00174303          	lbu	t1,1(a4)

ee003684 <.LVL1033>:
ee003684:	00178513          	addi	a0,a5,1

ee003688 <.LVL1034>:
ee003688:	873e                	mv	a4,a5
ee00368a:	0e030f63          	beqz	t1,ee003788 <.L1396>
                if (NEXT_SYMBOL==',') /* end of this input */ {
ee00368e:	21130963          	beq	t1,a7,ee0038a0 <.L1397>

ee003692 <.LBB557>:
        retval = ((c>='0') & (c<='9')) ? 1 : 0;
ee003692:	fd030613          	addi	a2,t1,-48

ee003696 <.LBE557>:
        for( ; *str && state != CORE_INVALID; str++ ) {
ee003696:	87aa                	mv	a5,a0

ee003698 <.LBB558>:
        retval = ((c>='0') & (c<='9')) ? 1 : 0;
ee003698:	0ff67293          	andi	t0,a2,255

ee00369c <.LBE558>:
                        if( NEXT_SYMBOL == '.' ) {
ee00369c:	ffe310e3          	bne	t1,t5,ee00367c <.L1369>

ee0036a0 <.L1416>:
                                transition_count[CORE_INT]++;
ee0036a0:	0105a383          	lw	t2,16(a1)
                                state = CORE_FLOAT;
ee0036a4:	4515                	li	a0,5
                                transition_count[CORE_INT]++;
ee0036a6:	00138e13          	addi	t3,t2,1
ee0036aa:	01c5a823          	sw	t3,16(a1)

ee0036ae <.LVL1037>:
        for( ; *str && state != CORE_INVALID; str++ ) {
ee0036ae:	00174303          	lbu	t1,1(a4)
ee0036b2:	873e                	mv	a4,a5
ee0036b4:	02030d63          	beqz	t1,ee0036ee <.L1352>

ee0036b8 <.LVL1038>:
                if (NEXT_SYMBOL==',') /* end of this input */ {
ee0036b8:	02c00713          	li	a4,44
                        str++;
ee0036bc:	00178393          	addi	t2,a5,1
                if (NEXT_SYMBOL==',') /* end of this input */ {
ee0036c0:	1ae30e63          	beq	t1,a4,ee00387c <.L1400>

ee0036c4 <.L1355>:
                        if( NEXT_SYMBOL == 'E' || NEXT_SYMBOL == 'e' ) {
ee0036c4:	04500e93          	li	t4,69

ee0036c8 <.LBB559>:
        retval = ((c>='0') & (c<='9')) ? 1 : 0;
ee0036c8:	4f25                	li	t5,9

ee0036ca <.LBE559>:
                if (NEXT_SYMBOL==',') /* end of this input */ {
ee0036ca:	02c00f93          	li	t6,44

ee0036ce <.L1381>:
        retval = ((c>='0') & (c<='9')) ? 1 : 0;
ee0036ce:	fd030893          	addi	a7,t1,-48

ee0036d2 <.LBE564>:
                        if( NEXT_SYMBOL == 'E' || NEXT_SYMBOL == 'e' ) {
ee0036d2:	0df37293          	andi	t0,t1,223

ee0036d6 <.LBB565>:
        retval = ((c>='0') & (c<='9')) ? 1 : 0;
ee0036d6:	0ff8f693          	andi	a3,a7,255

ee0036da <.LBE565>:
                        if( NEXT_SYMBOL == 'E' || NEXT_SYMBOL == 'e' ) {
ee0036da:	0bd28a63          	beq	t0,t4,ee00378e <.L1418>

ee0036de <.LBB566>:
        retval = ((c>='0') & (c<='9')) ? 1 : 0;
ee0036de:	14df7c63          	bgeu	t5,a3,ee003836 <.L1374>

ee0036e2 <.LBE566>:
                                transition_count[CORE_FLOAT]++;
ee0036e2:	49dc                	lw	a5,20(a1)
ee0036e4:	871e                	mv	a4,t2
                                state = CORE_INVALID;
ee0036e6:	4505                	li	a0,1
                                transition_count[CORE_FLOAT]++;
ee0036e8:	00178613          	addi	a2,a5,1
ee0036ec:	c9d0                	sw	a2,20(a1)

ee0036ee <.L1352>:
        *instr=str;
ee0036ee:	00e82023          	sw	a4,0(a6)
}
ee0036f2:	8082                	ret

ee0036f4 <.L1359>:
                        else if( NEXT_SYMBOL == '+' || NEXT_SYMBOL == '-' ) {
ee0036f4:	02b00e13          	li	t3,43
ee0036f8:	03c68e63          	beq	a3,t3,ee003734 <.L1362>
ee0036fc:	02d00e93          	li	t4,45
ee003700:	03d68a63          	beq	a3,t4,ee003734 <.L1362>
                        else if( NEXT_SYMBOL == '.' ) {
ee003704:	02e00f13          	li	t5,46
ee003708:	15e68263          	beq	a3,t5,ee00384c <.L1363>

ee00370c <.LVL1044>:
                                transition_count[CORE_INVALID]++;
ee00370c:	0045af83          	lw	t6,4(a1)
                        transition_count[CORE_START]++;
ee003710:	0075a023          	sw	t2,0(a1)
                                state = CORE_INVALID;
ee003714:	4505                	li	a0,1
                                transition_count[CORE_INVALID]++;
ee003716:	001f8793          	addi	a5,t6,1

ee00371a <.LVL1045>:
ee00371a:	c1dc                	sw	a5,4(a1)

ee00371c <.LVL1046>:
        *instr=str;
ee00371c:	00e82023          	sw	a4,0(a6)

ee003720 <.LVL1047>:
}
ee003720:	8082                	ret

ee003722 <.L1417>:
                                transition_count[CORE_INT]++;
ee003722:	4994                	lw	a3,16(a1)
ee003724:	873e                	mv	a4,a5
                                state = CORE_INVALID;
ee003726:	4505                	li	a0,1
                                transition_count[CORE_INT]++;
ee003728:	00168793          	addi	a5,a3,1
ee00372c:	c99c                	sw	a5,16(a1)

ee00372e <.LVL1049>:
        *instr=str;
ee00372e:	00e82023          	sw	a4,0(a6)
}
ee003732:	8082                	ret

ee003734 <.L1362>:
                        transition_count[CORE_START]++;
ee003734:	0075a023          	sw	t2,0(a1)

ee003738 <.LVL1051>:
        for( ; *str && state != CORE_INVALID; str++ ) {
ee003738:	0017c883          	lbu	a7,1(a5)
ee00373c:	14088d63          	beqz	a7,ee003896 <.L1394>

ee003740 <.LVL1052>:
                        str++;
ee003740:	00278713          	addi	a4,a5,2
                if (NEXT_SYMBOL==',') /* end of this input */ {
ee003744:	14a88963          	beq	a7,a0,ee003896 <.L1394>

ee003748 <.LBB569>:
                                transition_count[CORE_S1]++;
ee003748:	4590                	lw	a2,8(a1)

ee00374a <.LBB574>:
        retval = ((c>='0') & (c<='9')) ? 1 : 0;
ee00374a:	fd088693          	addi	a3,a7,-48
ee00374e:	0ff6f293          	andi	t0,a3,255
ee003752:	4525                	li	a0,9

ee003754 <.LBE574>:
                                transition_count[CORE_S1]++;
ee003754:	00160313          	addi	t1,a2,1

ee003758 <.LBB575>:
        retval = ((c>='0') & (c<='9')) ? 1 : 0;
ee003758:	00557c63          	bgeu	a0,t0,ee003770 <.L1364>

ee00375c <.LBE575>:
                        else if( NEXT_SYMBOL == '.' ) {
ee00375c:	02e00393          	li	t2,46
ee003760:	10788263          	beq	a7,t2,ee003864 <.L1419>

ee003764 <.LVL1055>:
                                transition_count[CORE_S1]++;
ee003764:	0065a423          	sw	t1,8(a1)

ee003768 <.LVL1056>:
                                state = CORE_INVALID;
ee003768:	4505                	li	a0,1

ee00376a <.LVL1057>:
        *instr=str;
ee00376a:	00e82023          	sw	a4,0(a6)
}
ee00376e:	8082                	ret

ee003770 <.L1364>:
                                transition_count[CORE_S1]++;
ee003770:	0065a423          	sw	t1,8(a1)

ee003774 <.LVL1059>:
        for( ; *str && state != CORE_INVALID; str++ ) {
ee003774:	0027c303          	lbu	t1,2(a5)
ee003778:	00030963          	beqz	t1,ee00378a <.L1412>

ee00377c <.LVL1060>:
                if (NEXT_SYMBOL==',') /* end of this input */ {
ee00377c:	02c00e93          	li	t4,44
                        str++;
ee003780:	00170793          	addi	a5,a4,1

ee003784 <.LVL1061>:
                if (NEXT_SYMBOL==',') /* end of this input */ {
ee003784:	efd311e3          	bne	t1,t4,ee003666 <.L1357>

ee003788 <.L1396>:
        for( ; *str && state != CORE_INVALID; str++ ) {
ee003788:	873e                	mv	a4,a5

ee00378a <.L1412>:
ee00378a:	4511                	li	a0,4
ee00378c:	b78d                	j	ee0036ee <.L1352>

ee00378e <.L1418>:
                                transition_count[CORE_FLOAT]++;
ee00378e:	49c8                	lw	a0,20(a1)
ee003790:	00150e13          	addi	t3,a0,1
ee003794:	01c5aa23          	sw	t3,20(a1)

ee003798 <.LVL1065>:
        for( ; *str && state != CORE_INVALID; str++ ) {
ee003798:	0017ce83          	lbu	t4,1(a5)
ee00379c:	0e0e8863          	beqz	t4,ee00388c <.L1420>

ee0037a0 <.LVL1066>:
                if (NEXT_SYMBOL==',') /* end of this input */ {
ee0037a0:	02c00f13          	li	t5,44
                        str++;
ee0037a4:	00138713          	addi	a4,t2,1
                if (NEXT_SYMBOL==',') /* end of this input */ {
ee0037a8:	0fee8363          	beq	t4,t5,ee00388e <.L1410>

ee0037ac <.LVL1067>:
                                transition_count[CORE_S2]++;
ee0037ac:	00c5af83          	lw	t6,12(a1)
                        if( NEXT_SYMBOL == '+' || NEXT_SYMBOL == '-' ) {
ee0037b0:	fd5e8893          	addi	a7,t4,-43
ee0037b4:	0fd8f293          	andi	t0,a7,253
                                transition_count[CORE_S2]++;
ee0037b8:	001f8693          	addi	a3,t6,1
ee0037bc:	c5d4                	sw	a3,12(a1)
                        if( NEXT_SYMBOL == '+' || NEXT_SYMBOL == '-' ) {
ee0037be:	00028663          	beqz	t0,ee0037ca <.L1421>

ee0037c2 <.L1408>:
                                state = CORE_INVALID;
ee0037c2:	4505                	li	a0,1
        *instr=str;
ee0037c4:	00e82023          	sw	a4,0(a6)
}
ee0037c8:	8082                	ret

ee0037ca <.L1421>:
        for( ; *str && state != CORE_INVALID; str++ ) {
ee0037ca:	0013c603          	lbu	a2,1(t2)
ee0037ce:	c271                	beqz	a2,ee003892 <.L1409>

ee0037d0 <.LVL1070>:
                        str++;
ee0037d0:	00238713          	addi	a4,t2,2
                if (NEXT_SYMBOL==',') /* end of this input */ {
ee0037d4:	0be60f63          	beq	a2,t5,ee003892 <.L1409>

ee0037d8 <.LBB583>:
                                transition_count[CORE_EXPONENT]++;
ee0037d8:	0185a303          	lw	t1,24(a1)

ee0037dc <.LBB584>:
        retval = ((c>='0') & (c<='9')) ? 1 : 0;
ee0037dc:	fd060793          	addi	a5,a2,-48
ee0037e0:	0ff7f513          	andi	a0,a5,255

ee0037e4 <.LBE584>:
                                transition_count[CORE_EXPONENT]++;
ee0037e4:	00130e93          	addi	t4,t1,1

ee0037e8 <.LBB585>:
        retval = ((c>='0') & (c<='9')) ? 1 : 0;
ee0037e8:	4e25                	li	t3,9

ee0037ea <.LBE585>:
                                transition_count[CORE_EXPONENT]++;
ee0037ea:	01d5ac23          	sw	t4,24(a1)

ee0037ee <.LBB586>:
        retval = ((c>='0') & (c<='9')) ? 1 : 0;
ee0037ee:	fcae6ae3          	bltu	t3,a0,ee0037c2 <.L1408>

ee0037f2 <.LBE586>:
        for( ; *str && state != CORE_INVALID; str++ ) {
ee0037f2:	0023c603          	lbu	a2,2(t2)
ee0037f6:	ca49                	beqz	a2,ee003888 <.L1411>

ee0037f8 <.LVL1073>:
                        str++;
ee0037f8:	00338513          	addi	a0,t2,3
                if (NEXT_SYMBOL==',') /* end of this input */ {
ee0037fc:	09e60563          	beq	a2,t5,ee003886 <.L1398>

ee003800 <.LBB587>:
        retval = ((c>='0') & (c<='9')) ? 1 : 0;
ee003800:	43a5                	li	t2,9

ee003802 <.LBE587>:
                if (NEXT_SYMBOL==',') /* end of this input */ {
ee003802:	02c00f13          	li	t5,44

ee003806 <.L1356>:
        retval = ((c>='0') & (c<='9')) ? 1 : 0;
ee003806:	fd060f93          	addi	t6,a2,-48
ee00380a:	0ffff893          	andi	a7,t6,255
ee00380e:	0113fa63          	bgeu	t2,a7,ee003822 <.L1379>

ee003812 <.LBE592>:
                                transition_count[CORE_INVALID]++;
ee003812:	0045a283          	lw	t0,4(a1)
ee003816:	872a                	mv	a4,a0
                                state = CORE_INVALID;
ee003818:	4505                	li	a0,1

ee00381a <.LVL1076>:
                                transition_count[CORE_INVALID]++;
ee00381a:	00128693          	addi	a3,t0,1
ee00381e:	c1d4                	sw	a3,4(a1)

ee003820 <.LVL1077>:
        for( ; *str && state != CORE_INVALID; str++ ) {
ee003820:	b5f9                	j	ee0036ee <.L1352>

ee003822 <.L1379>:
ee003822:	00174603          	lbu	a2,1(a4)

ee003826 <.LVL1079>:
ee003826:	00150313          	addi	t1,a0,1
ee00382a:	872a                	mv	a4,a0
ee00382c:	ce29                	beqz	a2,ee003886 <.L1398>
                if (NEXT_SYMBOL==',') /* end of this input */ {
ee00382e:	07e60663          	beq	a2,t5,ee00389a <.L1399>
        for( ; *str && state != CORE_INVALID; str++ ) {
ee003832:	851a                	mv	a0,t1

ee003834 <.LVL1080>:
ee003834:	bfc9                	j	ee003806 <.L1356>

ee003836 <.L1374>:
ee003836:	0017c303          	lbu	t1,1(a5)

ee00383a <.LVL1082>:
ee00383a:	00138713          	addi	a4,t2,1

ee00383e <.LVL1083>:
ee00383e:	879e                	mv	a5,t2
ee003840:	02030e63          	beqz	t1,ee00387c <.L1400>
                if (NEXT_SYMBOL==',') /* end of this input */ {
ee003844:	03f30d63          	beq	t1,t6,ee00387e <.L1407>
        for( ; *str && state != CORE_INVALID; str++ ) {
ee003848:	83ba                	mv	t2,a4
ee00384a:	b551                	j	ee0036ce <.L1381>

ee00384c <.L1363>:
                        transition_count[CORE_START]++;
ee00384c:	0075a023          	sw	t2,0(a1)

ee003850 <.LVL1085>:
        for( ; *str && state != CORE_INVALID; str++ ) {
ee003850:	0017c303          	lbu	t1,1(a5)
ee003854:	02030563          	beqz	t1,ee00387e <.L1407>

ee003858 <.LVL1086>:
                        str++;
ee003858:	00278393          	addi	t2,a5,2
                if (NEXT_SYMBOL==',') /* end of this input */ {
ee00385c:	02a30063          	beq	t1,a0,ee00387c <.L1400>

ee003860 <.L1406>:
        for( ; *str && state != CORE_INVALID; str++ ) {
ee003860:	87ba                	mv	a5,a4
ee003862:	b58d                	j	ee0036c4 <.L1355>

ee003864 <.L1419>:
                                transition_count[CORE_S1]++;
ee003864:	0065a423          	sw	t1,8(a1)

ee003868 <.LVL1089>:
        for( ; *str && state != CORE_INVALID; str++ ) {
ee003868:	0027c303          	lbu	t1,2(a5)
ee00386c:	00030963          	beqz	t1,ee00387e <.L1407>

ee003870 <.LVL1090>:
                if (NEXT_SYMBOL==',') /* end of this input */ {
ee003870:	02c00e13          	li	t3,44
                        str++;
ee003874:	00170393          	addi	t2,a4,1
                if (NEXT_SYMBOL==',') /* end of this input */ {
ee003878:	ffc314e3          	bne	t1,t3,ee003860 <.L1406>

ee00387c <.L1400>:
        for( ; *str && state != CORE_INVALID; str++ ) {
ee00387c:	871e                	mv	a4,t2

ee00387e <.L1407>:
ee00387e:	4515                	li	a0,5
ee003880:	b5bd                	j	ee0036ee <.L1352>

ee003882 <.L1415>:
                if (NEXT_SYMBOL==',') /* end of this input */ {
ee003882:	4501                	li	a0,0

ee003884 <.LVL1094>:
                        break;
ee003884:	b5ad                	j	ee0036ee <.L1352>

ee003886 <.L1398>:
        for( ; *str && state != CORE_INVALID; str++ ) {
ee003886:	872a                	mv	a4,a0

ee003888 <.L1411>:
ee003888:	451d                	li	a0,7
ee00388a:	b595                	j	ee0036ee <.L1352>

ee00388c <.L1420>:
ee00388c:	871e                	mv	a4,t2

ee00388e <.L1410>:
                                state = CORE_S2;
ee00388e:	450d                	li	a0,3
ee003890:	bdb9                	j	ee0036ee <.L1352>

ee003892 <.L1409>:
                                state = CORE_EXPONENT;
ee003892:	4519                	li	a0,6
ee003894:	bda9                	j	ee0036ee <.L1352>

ee003896 <.L1394>:
                                state = CORE_S1;
ee003896:	4509                	li	a0,2
ee003898:	bd99                	j	ee0036ee <.L1352>

ee00389a <.L1399>:
        for( ; *str && state != CORE_INVALID; str++ ) {
ee00389a:	871a                	mv	a4,t1
                if (NEXT_SYMBOL==',') /* end of this input */ {
ee00389c:	451d                	li	a0,7

ee00389e <.LVL1101>:
ee00389e:	bd81                	j	ee0036ee <.L1352>

ee0038a0 <.L1397>:
        for( ; *str && state != CORE_INVALID; str++ ) {
ee0038a0:	872a                	mv	a4,a0
                if (NEXT_SYMBOL==',') /* end of this input */ {
ee0038a2:	4511                	li	a0,4

ee0038a4 <.LVL1103>:
ee0038a4:	b5a9                	j	ee0036ee <.L1352>

ee0038a6 <core_bench_state>:
{
ee0038a6:	7119                	addi	sp,sp,-128
ee0038a8:	dca2                	sw	s0,120(sp)
ee0038aa:	daa6                	sw	s1,116(sp)
ee0038ac:	d8ca                	sw	s2,112(sp)
ee0038ae:	d4d2                	sw	s4,104(sp)
ee0038b0:	d2d6                	sw	s5,100(sp)
ee0038b2:	d0da                	sw	s6,96(sp)
ee0038b4:	cede                	sw	s7,92(sp)
ee0038b6:	de86                	sw	ra,124(sp)
ee0038b8:	d6ce                	sw	s3,108(sp)
ee0038ba:	892e                	mv	s2,a1
        while (*p!=0) {
ee0038bc:	0005c583          	lbu	a1,0(a1)

ee0038c0 <.LVL1105>:
        ee_u8 *p=memblock;
ee0038c0:	c64a                	sw	s2,12(sp)
                final_counts[i]=track_counts[i]=0;
ee0038c2:	d802                	sw	zero,48(sp)
ee0038c4:	c802                	sw	zero,16(sp)
ee0038c6:	da02                	sw	zero,52(sp)
ee0038c8:	dc02                	sw	zero,56(sp)
ee0038ca:	de02                	sw	zero,60(sp)
ee0038cc:	c082                	sw	zero,64(sp)
ee0038ce:	c282                	sw	zero,68(sp)
ee0038d0:	c482                	sw	zero,72(sp)
ee0038d2:	c682                	sw	zero,76(sp)
ee0038d4:	ca02                	sw	zero,20(sp)
ee0038d6:	cc02                	sw	zero,24(sp)
ee0038d8:	ce02                	sw	zero,28(sp)
ee0038da:	d002                	sw	zero,32(sp)
ee0038dc:	d202                	sw	zero,36(sp)
ee0038de:	d402                	sw	zero,40(sp)
ee0038e0:	d602                	sw	zero,44(sp)
ee0038e2:	1804                	addi	s1,sp,48
{
ee0038e4:	8a2a                	mv	s4,a0
ee0038e6:	8bb2                	mv	s7,a2
ee0038e8:	8b36                	mv	s6,a3
ee0038ea:	8aba                	mv	s5,a4
ee0038ec:	843e                	mv	s0,a5
        while (*p!=0) {
ee0038ee:	1c058ee3          	beqz	a1,ee0042ca <.L1423>
ee0038f2:	00c10993          	addi	s3,sp,12

ee0038f6 <.L1424>:
                enum CORE_STATE fstate=core_state_transition(&p,track_counts);
ee0038f6:	85a6                	mv	a1,s1
ee0038f8:	854e                	mv	a0,s3
ee0038fa:	332d                	jal	ee003624 <core_state_transition>

ee0038fc <.LVL1108>:
ee0038fc:	87aa                	mv	a5,a0
                final_counts[fstate]++;
ee0038fe:	00279293          	slli	t0,a5,0x2
ee003902:	0898                	addi	a4,sp,80
ee003904:	00570333          	add	t1,a4,t0

ee003908 <.LBE631>:
        while (*p!=0) {
ee003908:	46b2                	lw	a3,12(sp)

ee00390a <.LBB632>:
                final_counts[fstate]++;
ee00390a:	fc032383          	lw	t2,-64(t1)
                enum CORE_STATE fstate=core_state_transition(&p,track_counts);
ee00390e:	85a6                	mv	a1,s1

ee003910 <.LBE632>:
        while (*p!=0) {
ee003910:	0006c603          	lbu	a2,0(a3)

ee003914 <.LBB633>:
                final_counts[fstate]++;
ee003914:	00138813          	addi	a6,t2,1
ee003918:	fd032023          	sw	a6,-64(t1)

ee00391c <.LBB634>:
                enum CORE_STATE fstate=core_state_transition(&p,track_counts);
ee00391c:	854e                	mv	a0,s3

ee00391e <.LBE634>:
        while (*p!=0) {
ee00391e:	ca35                	beqz	a2,ee003992 <.L1715>

ee003920 <.LBB635>:
                enum CORE_STATE fstate=core_state_transition(&p,track_counts);
ee003920:	3311                	jal	ee003624 <core_state_transition>

ee003922 <.LVL1110>:
ee003922:	88aa                	mv	a7,a0
                final_counts[fstate]++;
ee003924:	00289e13          	slli	t3,a7,0x2
ee003928:	05010e93          	addi	t4,sp,80
ee00392c:	01ce8f33          	add	t5,t4,t3

ee003930 <.LBE635>:
        while (*p!=0) {
ee003930:	47b2                	lw	a5,12(sp)

ee003932 <.LBB636>:
                final_counts[fstate]++;
ee003932:	fc0f2f83          	lw	t6,-64(t5)
                enum CORE_STATE fstate=core_state_transition(&p,track_counts);
ee003936:	85a6                	mv	a1,s1

ee003938 <.LBE636>:
        while (*p!=0) {
ee003938:	0007c283          	lbu	t0,0(a5)

ee00393c <.LBB637>:
                final_counts[fstate]++;
ee00393c:	001f8713          	addi	a4,t6,1
ee003940:	fcef2023          	sw	a4,-64(t5)

ee003944 <.LBB638>:
                enum CORE_STATE fstate=core_state_transition(&p,track_counts);
ee003944:	854e                	mv	a0,s3

ee003946 <.LBE638>:
        while (*p!=0) {
ee003946:	04028663          	beqz	t0,ee003992 <.L1715>

ee00394a <.LBB639>:
                enum CORE_STATE fstate=core_state_transition(&p,track_counts);
ee00394a:	39e9                	jal	ee003624 <core_state_transition>

ee00394c <.LVL1111>:
ee00394c:	832a                	mv	t1,a0
                final_counts[fstate]++;
ee00394e:	00231393          	slli	t2,t1,0x2
ee003952:	0894                	addi	a3,sp,80
ee003954:	00768633          	add	a2,a3,t2

ee003958 <.LBE639>:
        while (*p!=0) {
ee003958:	48b2                	lw	a7,12(sp)

ee00395a <.LBB640>:
                final_counts[fstate]++;
ee00395a:	fc062803          	lw	a6,-64(a2)
                enum CORE_STATE fstate=core_state_transition(&p,track_counts);
ee00395e:	85a6                	mv	a1,s1

ee003960 <.LBE640>:
        while (*p!=0) {
ee003960:	0008ce03          	lbu	t3,0(a7)

ee003964 <.LBB641>:
                final_counts[fstate]++;
ee003964:	00180e93          	addi	t4,a6,1
ee003968:	fdd62023          	sw	t4,-64(a2)

ee00396c <.LBB642>:
                enum CORE_STATE fstate=core_state_transition(&p,track_counts);
ee00396c:	854e                	mv	a0,s3

ee00396e <.LBE642>:
        while (*p!=0) {
ee00396e:	020e0263          	beqz	t3,ee003992 <.L1715>

ee003972 <.LBB643>:
                enum CORE_STATE fstate=core_state_transition(&p,track_counts);
ee003972:	394d                	jal	ee003624 <core_state_transition>

ee003974 <.LVL1112>:
                final_counts[fstate]++;
ee003974:	050a                	slli	a0,a0,0x2
ee003976:	088c                	addi	a1,sp,80
ee003978:	00a58f33          	add	t5,a1,a0

ee00397c <.LBE643>:
        while (*p!=0) {
ee00397c:	47b2                	lw	a5,12(sp)

ee00397e <.LBB644>:
                final_counts[fstate]++;
ee00397e:	fc0f2f83          	lw	t6,-64(t5)

ee003982 <.LBE644>:
        while (*p!=0) {
ee003982:	0007c283          	lbu	t0,0(a5)

ee003986 <.LBB645>:
                final_counts[fstate]++;
ee003986:	001f8713          	addi	a4,t6,1
ee00398a:	fcef2023          	sw	a4,-64(t5)

ee00398e <.LBE645>:
        while (*p!=0) {
ee00398e:	f60294e3          	bnez	t0,ee0038f6 <.L1424>

ee003992 <.L1715>:
        p=memblock;
ee003992:	c64a                	sw	s2,12(sp)
        while (p < (memblock+blksize)) { /* insert some corruption */
ee003994:	9a4a                	add	s4,s4,s2

ee003996 <.LVL1113>:
        while (*p!=0) {
ee003996:	00094583          	lbu	a1,0(s2)
        while (p < (memblock+blksize)) { /* insert some corruption */
ee00399a:	13497ee3          	bgeu	s2,s4,ee0042d6 <.L1425>

ee00399e <.L1504>:
                if (*p!=',')
ee00399e:	02c00093          	li	ra,44
                p+=step;
ee0039a2:	834a                	mv	t1,s2
                        *p^=(ee_u8)seed1;
ee0039a4:	0175c9b3          	xor	s3,a1,s7
                if (*p!=',')
ee0039a8:	02158063          	beq	a1,ra,ee0039c8 <.L1426>

ee0039ac <.L1717>:
                        *p^=(ee_u8)seed1;
ee0039ac:	01330023          	sb	s3,0(t1)
                p+=step;
ee0039b0:	43b2                	lw	t2,12(sp)
ee0039b2:	01538333          	add	t1,t2,s5
ee0039b6:	c61a                	sw	t1,12(sp)
        while (p < (memblock+blksize)) { /* insert some corruption */
ee0039b8:	01437c63          	bgeu	t1,s4,ee0039d0 <.L1428>

ee0039bc <.L1427>:
                if (*p!=',')
ee0039bc:	00034583          	lbu	a1,0(t1)
                        *p^=(ee_u8)seed1;
ee0039c0:	0175c9b3          	xor	s3,a1,s7
                if (*p!=',')
ee0039c4:	fe1594e3          	bne	a1,ra,ee0039ac <.L1717>

ee0039c8 <.L1426>:
                p+=step;
ee0039c8:	9356                	add	t1,t1,s5
ee0039ca:	c61a                	sw	t1,12(sp)
        while (p < (memblock+blksize)) { /* insert some corruption */
ee0039cc:	ff4368e3          	bltu	t1,s4,ee0039bc <.L1427>

ee0039d0 <.L1428>:
        while (*p!=0) {
ee0039d0:	00094b83          	lbu	s7,0(s2)
        p=memblock;
ee0039d4:	c64a                	sw	s2,12(sp)
        while (*p!=0) {
ee0039d6:	00c10993          	addi	s3,sp,12
ee0039da:	0a0b8363          	beqz	s7,ee003a80 <.L1432>

ee0039de <.L1434>:
                enum CORE_STATE fstate=core_state_transition(&p,track_counts);
ee0039de:	85a6                	mv	a1,s1
ee0039e0:	854e                	mv	a0,s3
ee0039e2:	3189                	jal	ee003624 <core_state_transition>

ee0039e4 <.LVL1114>:
ee0039e4:	86aa                	mv	a3,a0
                final_counts[fstate]++;
ee0039e6:	00269613          	slli	a2,a3,0x2
ee0039ea:	05010813          	addi	a6,sp,80
ee0039ee:	00c808b3          	add	a7,a6,a2

ee0039f2 <.LBE646>:
        while (*p!=0) {
ee0039f2:	4eb2                	lw	t4,12(sp)

ee0039f4 <.LBB647>:
                final_counts[fstate]++;
ee0039f4:	fc08ae03          	lw	t3,-64(a7)
                enum CORE_STATE fstate=core_state_transition(&p,track_counts);
ee0039f8:	85a6                	mv	a1,s1

ee0039fa <.LBE647>:
        while (*p!=0) {
ee0039fa:	000ecf03          	lbu	t5,0(t4)

ee0039fe <.LBB648>:
                final_counts[fstate]++;
ee0039fe:	001e0f93          	addi	t6,t3,1
ee003a02:	fdf8a023          	sw	t6,-64(a7)

ee003a06 <.LBB649>:
                enum CORE_STATE fstate=core_state_transition(&p,track_counts);
ee003a06:	854e                	mv	a0,s3

ee003a08 <.LBE649>:
        while (*p!=0) {
ee003a08:	060f0963          	beqz	t5,ee003a7a <.L1713>

ee003a0c <.LBB650>:
                enum CORE_STATE fstate=core_state_transition(&p,track_counts);
ee003a0c:	3921                	jal	ee003624 <core_state_transition>

ee003a0e <.LVL1116>:
ee003a0e:	87aa                	mv	a5,a0
                final_counts[fstate]++;
ee003a10:	00279293          	slli	t0,a5,0x2
ee003a14:	0898                	addi	a4,sp,80
ee003a16:	00570333          	add	t1,a4,t0

ee003a1a <.LBE650>:
        while (*p!=0) {
ee003a1a:	4bb2                	lw	s7,12(sp)

ee003a1c <.LBB651>:
                final_counts[fstate]++;
ee003a1c:	fc032383          	lw	t2,-64(t1)
                enum CORE_STATE fstate=core_state_transition(&p,track_counts);
ee003a20:	85a6                	mv	a1,s1

ee003a22 <.LBE651>:
        while (*p!=0) {
ee003a22:	000bc683          	lbu	a3,0(s7)

ee003a26 <.LBB652>:
                final_counts[fstate]++;
ee003a26:	00138613          	addi	a2,t2,1
ee003a2a:	fcc32023          	sw	a2,-64(t1)

ee003a2e <.LBB653>:
                enum CORE_STATE fstate=core_state_transition(&p,track_counts);
ee003a2e:	854e                	mv	a0,s3

ee003a30 <.LBE653>:
        while (*p!=0) {
ee003a30:	c6a9                	beqz	a3,ee003a7a <.L1713>

ee003a32 <.LBB654>:
                enum CORE_STATE fstate=core_state_transition(&p,track_counts);
ee003a32:	3ecd                	jal	ee003624 <core_state_transition>

ee003a34 <.LVL1117>:
ee003a34:	882a                	mv	a6,a0
                final_counts[fstate]++;
ee003a36:	00281893          	slli	a7,a6,0x2
ee003a3a:	05010e13          	addi	t3,sp,80
ee003a3e:	011e0eb3          	add	t4,t3,a7

ee003a42 <.LBE654>:
        while (*p!=0) {
ee003a42:	4fb2                	lw	t6,12(sp)

ee003a44 <.LBB655>:
                final_counts[fstate]++;
ee003a44:	fc0eaf03          	lw	t5,-64(t4)
                enum CORE_STATE fstate=core_state_transition(&p,track_counts);
ee003a48:	85a6                	mv	a1,s1

ee003a4a <.LBE655>:
        while (*p!=0) {
ee003a4a:	000fc783          	lbu	a5,0(t6)

ee003a4e <.LBB656>:
                final_counts[fstate]++;
ee003a4e:	001f0293          	addi	t0,t5,1
ee003a52:	fc5ea023          	sw	t0,-64(t4)

ee003a56 <.LBB657>:
                enum CORE_STATE fstate=core_state_transition(&p,track_counts);
ee003a56:	854e                	mv	a0,s3

ee003a58 <.LBE657>:
        while (*p!=0) {
ee003a58:	c38d                	beqz	a5,ee003a7a <.L1713>

ee003a5a <.LBB658>:
                enum CORE_STATE fstate=core_state_transition(&p,track_counts);
ee003a5a:	36e9                	jal	ee003624 <core_state_transition>

ee003a5c <.LVL1118>:
                final_counts[fstate]++;
ee003a5c:	050a                	slli	a0,a0,0x2
ee003a5e:	088c                	addi	a1,sp,80
ee003a60:	00a58333          	add	t1,a1,a0

ee003a64 <.LBE658>:
        while (*p!=0) {
ee003a64:	43b2                	lw	t2,12(sp)

ee003a66 <.LBB659>:
                final_counts[fstate]++;
ee003a66:	fc032703          	lw	a4,-64(t1)

ee003a6a <.LBE659>:
        while (*p!=0) {
ee003a6a:	0003cb83          	lbu	s7,0(t2)

ee003a6e <.LBB660>:
                final_counts[fstate]++;
ee003a6e:	00170693          	addi	a3,a4,1
ee003a72:	fcd32023          	sw	a3,-64(t1)

ee003a76 <.LBE660>:
        while (*p!=0) {
ee003a76:	f60b94e3          	bnez	s7,ee0039de <.L1434>

ee003a7a <.L1713>:
        p=memblock;
ee003a7a:	c64a                	sw	s2,12(sp)
        while (p < (memblock+blksize)) { /* undo corruption is seed1 and seed2 are equal */
ee003a7c:	03497263          	bgeu	s2,s4,ee003aa0 <.L1433>

ee003a80 <.L1432>:
                if (*p!=',')
ee003a80:	02c00093          	li	ra,44

ee003a84 <.L1439>:
ee003a84:	00094983          	lbu	s3,0(s2)
                        *p^=(ee_u8)seed2;
ee003a88:	0169c633          	xor	a2,s3,s6
                if (*p!=',')
ee003a8c:	021989e3          	beq	s3,ra,ee0042be <.L1437>
                        *p^=(ee_u8)seed2;
ee003a90:	00c90023          	sb	a2,0(s2)
                p+=step;
ee003a94:	4832                	lw	a6,12(sp)
ee003a96:	01580933          	add	s2,a6,s5
ee003a9a:	c64a                	sw	s2,12(sp)
        while (p < (memblock+blksize)) { /* undo corruption is seed1 and seed2 are equal */
ee003a9c:	ff4964e3          	bltu	s2,s4,ee003a84 <.L1439>

ee003aa0 <.L1433>:
                   crc |= 0x8000;
ee003aa0:	7a69                	lui	s4,0xffffa
ee003aa2:	0814                	addi	a3,sp,16
ee003aa4:	8626                	mv	a2,s1
ee003aa6:	001a0e13          	addi	t3,s4,1 # ffffa001 <STACK+0xffb1a51>

ee003aaa <.L1436>:
                crc=crcu32(final_counts[i],crc);
ee003aaa:	0006ae83          	lw	t4,0(a3)

ee003aae <.LBB672>:
                crc >>= 1;
ee003aae:	00145713          	srli	a4,s0,0x1
                x16 = (ee_u8)((data & 1) ^ ((ee_u8)crc & 1));
ee003ab2:	008ec433          	xor	s0,t4,s0

ee003ab6 <.LBE672>:
        crc=crcu8( (ee_u8) (newval)                             ,crc);
ee003ab6:	0ffeff13          	andi	t5,t4,255

ee003aba <.LBE682>:
        return crcu16((ee_u16)newval, crc);
ee003aba:	010e9f93          	slli	t6,t4,0x10

ee003abe <.LBB673>:
                if (x16 == 1)
ee003abe:	00147893          	andi	a7,s0,1

ee003ac2 <.LBE673>:
        return crcu16((ee_u16)newval, crc);
ee003ac2:	010fd293          	srli	t0,t6,0x10

ee003ac6 <.LBB674>:
                data >>= 1;
ee003ac6:	001f5513          	srli	a0,t5,0x1

ee003aca <.LVL1123>:
                if (x16 == 1)
ee003aca:	00088863          	beqz	a7,ee003ada <.L1440>

ee003ace <.LVL1124>:
                   crc |= 0x8000;
ee003ace:	01c747b3          	xor	a5,a4,t3

ee003ad2 <.LVL1125>:
ee003ad2:	01079593          	slli	a1,a5,0x10
ee003ad6:	0105d713          	srli	a4,a1,0x10

ee003ada <.L1440>:
                x16 = (ee_u8)((data & 1) ^ ((ee_u8)crc & 1));
ee003ada:	00e54333          	xor	t1,a0,a4
                if (x16 == 1)
ee003ade:	00137393          	andi	t2,t1,1
                data >>= 1;
ee003ae2:	002f5b93          	srli	s7,t5,0x2

ee003ae6 <.LVL1127>:
                if (x16 == 1)
ee003ae6:	00175093          	srli	ra,a4,0x1
ee003aea:	00038863          	beqz	t2,ee003afa <.L1441>

ee003aee <.LVL1128>:
                   crc |= 0x8000;
ee003aee:	01c0cab3          	xor	s5,ra,t3

ee003af2 <.LVL1129>:
ee003af2:	010a9b13          	slli	s6,s5,0x10
ee003af6:	010b5093          	srli	ra,s6,0x10

ee003afa <.L1441>:
                x16 = (ee_u8)((data & 1) ^ ((ee_u8)crc & 1));
ee003afa:	001bc9b3          	xor	s3,s7,ra
                if (x16 == 1)
ee003afe:	0019f913          	andi	s2,s3,1
                data >>= 1;
ee003b02:	003f5813          	srli	a6,t5,0x3

ee003b06 <.LVL1131>:
                if (x16 == 1)
ee003b06:	0010df93          	srli	t6,ra,0x1
ee003b0a:	00090863          	beqz	s2,ee003b1a <.L1442>

ee003b0e <.LVL1132>:
                   crc |= 0x8000;
ee003b0e:	01cfca33          	xor	s4,t6,t3

ee003b12 <.LVL1133>:
ee003b12:	010a1413          	slli	s0,s4,0x10
ee003b16:	01045f93          	srli	t6,s0,0x10

ee003b1a <.L1442>:
                x16 = (ee_u8)((data & 1) ^ ((ee_u8)crc & 1));
ee003b1a:	01f848b3          	xor	a7,a6,t6
                if (x16 == 1)
ee003b1e:	0018f513          	andi	a0,a7,1
                data >>= 1;
ee003b22:	004f5593          	srli	a1,t5,0x4

ee003b26 <.LVL1135>:
                if (x16 == 1)
ee003b26:	001fd393          	srli	t2,t6,0x1
ee003b2a:	c519                	beqz	a0,ee003b38 <.L1443>

ee003b2c <.LVL1136>:
                   crc |= 0x8000;
ee003b2c:	01c3c7b3          	xor	a5,t2,t3

ee003b30 <.LVL1137>:
ee003b30:	01079713          	slli	a4,a5,0x10
ee003b34:	01075393          	srli	t2,a4,0x10

ee003b38 <.L1443>:
                x16 = (ee_u8)((data & 1) ^ ((ee_u8)crc & 1));
ee003b38:	00b3c333          	xor	t1,t2,a1
                if (x16 == 1)
ee003b3c:	00137b93          	andi	s7,t1,1
                data >>= 1;
ee003b40:	005f5a93          	srli	s5,t5,0x5

ee003b44 <.LVL1139>:
                if (x16 == 1)
ee003b44:	0013d993          	srli	s3,t2,0x1
ee003b48:	000b8863          	beqz	s7,ee003b58 <.L1444>

ee003b4c <.LVL1140>:
                   crc |= 0x8000;
ee003b4c:	01c9cb33          	xor	s6,s3,t3

ee003b50 <.LVL1141>:
ee003b50:	010b1093          	slli	ra,s6,0x10
ee003b54:	0100d993          	srli	s3,ra,0x10

ee003b58 <.L1444>:
                x16 = (ee_u8)((data & 1) ^ ((ee_u8)crc & 1));
ee003b58:	0159c933          	xor	s2,s3,s5
                if (x16 == 1)
ee003b5c:	00197813          	andi	a6,s2,1
                data >>= 1;
ee003b60:	006f5a13          	srli	s4,t5,0x6

ee003b64 <.LVL1143>:
                if (x16 == 1)
ee003b64:	0019d513          	srli	a0,s3,0x1
ee003b68:	00080863          	beqz	a6,ee003b78 <.L1445>

ee003b6c <.LVL1144>:
                   crc |= 0x8000;
ee003b6c:	01c54433          	xor	s0,a0,t3

ee003b70 <.LVL1145>:
ee003b70:	01041f93          	slli	t6,s0,0x10
ee003b74:	010fd513          	srli	a0,t6,0x10

ee003b78 <.L1445>:
                x16 = (ee_u8)((data & 1) ^ ((ee_u8)crc & 1));
ee003b78:	00aa48b3          	xor	a7,s4,a0
                if (x16 == 1)
ee003b7c:	0018f593          	andi	a1,a7,1
                data >>= 1;
ee003b80:	007f5f13          	srli	t5,t5,0x7

ee003b84 <.LVL1147>:
                if (x16 == 1)
ee003b84:	00155393          	srli	t2,a0,0x1
ee003b88:	c599                	beqz	a1,ee003b96 <.L1446>

ee003b8a <.LVL1148>:
                   crc |= 0x8000;
ee003b8a:	01c3c7b3          	xor	a5,t2,t3

ee003b8e <.LVL1149>:
ee003b8e:	01079713          	slli	a4,a5,0x10
ee003b92:	01075393          	srli	t2,a4,0x10

ee003b96 <.L1446>:
                if (x16 == 1)
ee003b96:	0013f313          	andi	t1,t2,1
ee003b9a:	0013db13          	srli	s6,t2,0x1
ee003b9e:	01e30863          	beq	t1,t5,ee003bae <.L1447>

ee003ba2 <.LVL1151>:
                   crc |= 0x8000;
ee003ba2:	01cb4bb3          	xor	s7,s6,t3

ee003ba6 <.LVL1152>:
ee003ba6:	010b9a93          	slli	s5,s7,0x10
ee003baa:	010adb13          	srli	s6,s5,0x10

ee003bae <.L1447>:
        crc=crcu8( (ee_u8) ((newval)>>8)        ,crc);
ee003bae:	0082d093          	srli	ra,t0,0x8

ee003bb2 <.LBB675>:
                x16 = (ee_u8)((data & 1) ^ ((ee_u8)crc & 1));
ee003bb2:	0160c9b3          	xor	s3,ra,s6
                if (x16 == 1)
ee003bb6:	0019f913          	andi	s2,s3,1

ee003bba <.LBE675>:
        crc=crcu8( (ee_u8) ((newval)>>8)        ,crc);
ee003bba:	0082d813          	srli	a6,t0,0x8

ee003bbe <.LBB678>:
                data >>= 1;
ee003bbe:	001b5f93          	srli	t6,s6,0x1
ee003bc2:	0092d293          	srli	t0,t0,0x9

ee003bc6 <.LVL1155>:
                if (x16 == 1)
ee003bc6:	00090863          	beqz	s2,ee003bd6 <.L1448>

ee003bca <.LVL1156>:
                   crc |= 0x8000;
ee003bca:	01cfca33          	xor	s4,t6,t3

ee003bce <.LVL1157>:
ee003bce:	010a1413          	slli	s0,s4,0x10
ee003bd2:	01045f93          	srli	t6,s0,0x10

ee003bd6 <.L1448>:
                x16 = (ee_u8)((data & 1) ^ ((ee_u8)crc & 1));
ee003bd6:	01f2c533          	xor	a0,t0,t6
                if (x16 == 1)
ee003bda:	00157593          	andi	a1,a0,1
                data >>= 1;
ee003bde:	00285893          	srli	a7,a6,0x2

ee003be2 <.LVL1159>:
                if (x16 == 1)
ee003be2:	001fd713          	srli	a4,t6,0x1
ee003be6:	c599                	beqz	a1,ee003bf4 <.L1449>

ee003be8 <.LVL1160>:
                   crc |= 0x8000;
ee003be8:	01c74f33          	xor	t5,a4,t3

ee003bec <.LVL1161>:
ee003bec:	010f1793          	slli	a5,t5,0x10
ee003bf0:	0107d713          	srli	a4,a5,0x10

ee003bf4 <.L1449>:
                x16 = (ee_u8)((data & 1) ^ ((ee_u8)crc & 1));
ee003bf4:	00e8c3b3          	xor	t2,a7,a4
                if (x16 == 1)
ee003bf8:	0013f313          	andi	t1,t2,1
                data >>= 1;
ee003bfc:	00385b93          	srli	s7,a6,0x3

ee003c00 <.LVL1163>:
                if (x16 == 1)
ee003c00:	00175093          	srli	ra,a4,0x1
ee003c04:	00030863          	beqz	t1,ee003c14 <.L1450>

ee003c08 <.LVL1164>:
                   crc |= 0x8000;
ee003c08:	01c0cab3          	xor	s5,ra,t3

ee003c0c <.LVL1165>:
ee003c0c:	010a9b13          	slli	s6,s5,0x10
ee003c10:	010b5093          	srli	ra,s6,0x10

ee003c14 <.L1450>:
                x16 = (ee_u8)((data & 1) ^ ((ee_u8)crc & 1));
ee003c14:	001bc9b3          	xor	s3,s7,ra
                if (x16 == 1)
ee003c18:	0019f913          	andi	s2,s3,1
                data >>= 1;
ee003c1c:	00485293          	srli	t0,a6,0x4

ee003c20 <.LVL1167>:
                if (x16 == 1)
ee003c20:	0010df93          	srli	t6,ra,0x1
ee003c24:	00090863          	beqz	s2,ee003c34 <.L1451>

ee003c28 <.LVL1168>:
                   crc |= 0x8000;
ee003c28:	01cfca33          	xor	s4,t6,t3

ee003c2c <.LVL1169>:
ee003c2c:	010a1413          	slli	s0,s4,0x10
ee003c30:	01045f93          	srli	t6,s0,0x10

ee003c34 <.L1451>:
                x16 = (ee_u8)((data & 1) ^ ((ee_u8)crc & 1));
ee003c34:	01f2c533          	xor	a0,t0,t6
                if (x16 == 1)
ee003c38:	00157593          	andi	a1,a0,1
                data >>= 1;
ee003c3c:	00585893          	srli	a7,a6,0x5

ee003c40 <.LVL1171>:
                if (x16 == 1)
ee003c40:	001fd713          	srli	a4,t6,0x1
ee003c44:	c599                	beqz	a1,ee003c52 <.L1452>

ee003c46 <.LVL1172>:
                   crc |= 0x8000;
ee003c46:	01c74f33          	xor	t5,a4,t3

ee003c4a <.LVL1173>:
ee003c4a:	010f1793          	slli	a5,t5,0x10
ee003c4e:	0107d713          	srli	a4,a5,0x10

ee003c52 <.L1452>:
                x16 = (ee_u8)((data & 1) ^ ((ee_u8)crc & 1));
ee003c52:	00e8c3b3          	xor	t2,a7,a4
                if (x16 == 1)
ee003c56:	0013f313          	andi	t1,t2,1
                data >>= 1;
ee003c5a:	00685b93          	srli	s7,a6,0x6

ee003c5e <.LVL1175>:
                if (x16 == 1)
ee003c5e:	00175093          	srli	ra,a4,0x1
ee003c62:	00030863          	beqz	t1,ee003c72 <.L1453>

ee003c66 <.LVL1176>:
                   crc |= 0x8000;
ee003c66:	01c0cab3          	xor	s5,ra,t3

ee003c6a <.LVL1177>:
ee003c6a:	010a9b13          	slli	s6,s5,0x10
ee003c6e:	010b5093          	srli	ra,s6,0x10

ee003c72 <.L1453>:
                x16 = (ee_u8)((data & 1) ^ ((ee_u8)crc & 1));
ee003c72:	001bc9b3          	xor	s3,s7,ra
                if (x16 == 1)
ee003c76:	0019f913          	andi	s2,s3,1
                data >>= 1;
ee003c7a:	00785813          	srli	a6,a6,0x7

ee003c7e <.LVL1179>:
                if (x16 == 1)
ee003c7e:	0010d413          	srli	s0,ra,0x1
ee003c82:	00090863          	beqz	s2,ee003c92 <.L1454>

ee003c86 <.LVL1180>:
                   crc |= 0x8000;
ee003c86:	01c442b3          	xor	t0,s0,t3

ee003c8a <.LVL1181>:
ee003c8a:	01029a13          	slli	s4,t0,0x10
ee003c8e:	010a5413          	srli	s0,s4,0x10

ee003c92 <.L1454>:
                if (x16 == 1)
ee003c92:	00147f93          	andi	t6,s0,1
ee003c96:	00145f13          	srli	t5,s0,0x1
ee003c9a:	010f8863          	beq	t6,a6,ee003caa <.L1455>

ee003c9e <.LVL1183>:
                   crc |= 0x8000;
ee003c9e:	01cf4533          	xor	a0,t5,t3

ee003ca2 <.LVL1184>:
ee003ca2:	01051593          	slli	a1,a0,0x10
ee003ca6:	0105df13          	srli	t5,a1,0x10

ee003caa <.L1455>:
        crc=crc16((ee_s16) (newval>>16) ,crc);
ee003caa:	010ed893          	srli	a7,t4,0x10

ee003cae <.LBB687>:
                x16 = (ee_u8)((data & 1) ^ ((ee_u8)crc & 1));
ee003cae:	01e8c7b3          	xor	a5,a7,t5

ee003cb2 <.LBE691>:
        crc=crcu8( (ee_u8) (newval)                             ,crc);
ee003cb2:	0ff8f713          	andi	a4,a7,255

ee003cb6 <.LBB695>:
                if (x16 == 1)
ee003cb6:	0017f393          	andi	t2,a5,1

ee003cba <.LBE689>:
        return crcu16((ee_u16)newval, crc);
ee003cba:	010ede93          	srli	t4,t4,0x10

ee003cbe <.LBB696>:
                data >>= 1;
ee003cbe:	00175313          	srli	t1,a4,0x1

ee003cc2 <.LVL1188>:
                if (x16 == 1)
ee003cc2:	001f5b13          	srli	s6,t5,0x1
ee003cc6:	00038863          	beqz	t2,ee003cd6 <.L1456>

ee003cca <.LVL1189>:
                   crc |= 0x8000;
ee003cca:	01cb4bb3          	xor	s7,s6,t3

ee003cce <.LVL1190>:
ee003cce:	010b9a93          	slli	s5,s7,0x10
ee003cd2:	010adb13          	srli	s6,s5,0x10

ee003cd6 <.L1456>:
                x16 = (ee_u8)((data & 1) ^ ((ee_u8)crc & 1));
ee003cd6:	016340b3          	xor	ra,t1,s6
                if (x16 == 1)
ee003cda:	0010f993          	andi	s3,ra,1
                data >>= 1;
ee003cde:	00275913          	srli	s2,a4,0x2

ee003ce2 <.LVL1192>:
                if (x16 == 1)
ee003ce2:	001b5a13          	srli	s4,s6,0x1
ee003ce6:	00098863          	beqz	s3,ee003cf6 <.L1457>

ee003cea <.LVL1193>:
                   crc |= 0x8000;
ee003cea:	01ca4833          	xor	a6,s4,t3

ee003cee <.LVL1194>:
ee003cee:	01081293          	slli	t0,a6,0x10
ee003cf2:	0102da13          	srli	s4,t0,0x10

ee003cf6 <.L1457>:
                x16 = (ee_u8)((data & 1) ^ ((ee_u8)crc & 1));
ee003cf6:	01494433          	xor	s0,s2,s4
                if (x16 == 1)
ee003cfa:	00147f93          	andi	t6,s0,1
                data >>= 1;
ee003cfe:	00375513          	srli	a0,a4,0x3

ee003d02 <.LVL1196>:
                if (x16 == 1)
ee003d02:	001a5793          	srli	a5,s4,0x1
ee003d06:	000f8863          	beqz	t6,ee003d16 <.L1458>

ee003d0a <.LVL1197>:
                   crc |= 0x8000;
ee003d0a:	01c7c5b3          	xor	a1,a5,t3

ee003d0e <.LVL1198>:
ee003d0e:	01059f13          	slli	t5,a1,0x10
ee003d12:	010f5793          	srli	a5,t5,0x10

ee003d16 <.L1458>:
                x16 = (ee_u8)((data & 1) ^ ((ee_u8)crc & 1));
ee003d16:	00f548b3          	xor	a7,a0,a5

ee003d1a <.LVL1200>:
                if (x16 == 1)
ee003d1a:	0018f393          	andi	t2,a7,1
                data >>= 1;
ee003d1e:	00475313          	srli	t1,a4,0x4

ee003d22 <.LVL1201>:
                if (x16 == 1)
ee003d22:	0017db13          	srli	s6,a5,0x1
ee003d26:	00038863          	beqz	t2,ee003d36 <.L1459>

ee003d2a <.LVL1202>:
                   crc |= 0x8000;
ee003d2a:	01cb4bb3          	xor	s7,s6,t3

ee003d2e <.LVL1203>:
ee003d2e:	010b9a93          	slli	s5,s7,0x10
ee003d32:	010adb13          	srli	s6,s5,0x10

ee003d36 <.L1459>:
                x16 = (ee_u8)((data & 1) ^ ((ee_u8)crc & 1));
ee003d36:	016340b3          	xor	ra,t1,s6
                if (x16 == 1)
ee003d3a:	0010f993          	andi	s3,ra,1
                data >>= 1;
ee003d3e:	00575913          	srli	s2,a4,0x5

ee003d42 <.LVL1205>:
                if (x16 == 1)
ee003d42:	001b5a13          	srli	s4,s6,0x1
ee003d46:	00098863          	beqz	s3,ee003d56 <.L1460>

ee003d4a <.LVL1206>:
                   crc |= 0x8000;
ee003d4a:	01ca4833          	xor	a6,s4,t3

ee003d4e <.LVL1207>:
ee003d4e:	01081293          	slli	t0,a6,0x10
ee003d52:	0102da13          	srli	s4,t0,0x10

ee003d56 <.L1460>:
                x16 = (ee_u8)((data & 1) ^ ((ee_u8)crc & 1));
ee003d56:	01494433          	xor	s0,s2,s4
                if (x16 == 1)
ee003d5a:	00147f93          	andi	t6,s0,1
                data >>= 1;
ee003d5e:	00675513          	srli	a0,a4,0x6

ee003d62 <.LVL1209>:
                if (x16 == 1)
ee003d62:	001a5793          	srli	a5,s4,0x1
ee003d66:	000f8863          	beqz	t6,ee003d76 <.L1461>

ee003d6a <.LVL1210>:
                   crc |= 0x8000;
ee003d6a:	01c7c5b3          	xor	a1,a5,t3

ee003d6e <.LVL1211>:
ee003d6e:	01059f13          	slli	t5,a1,0x10
ee003d72:	010f5793          	srli	a5,t5,0x10

ee003d76 <.L1461>:
                x16 = (ee_u8)((data & 1) ^ ((ee_u8)crc & 1));
ee003d76:	00f548b3          	xor	a7,a0,a5
                if (x16 == 1)
ee003d7a:	0018f393          	andi	t2,a7,1
                data >>= 1;
ee003d7e:	831d                	srli	a4,a4,0x7

ee003d80 <.LVL1213>:
                if (x16 == 1)
ee003d80:	0017da93          	srli	s5,a5,0x1
ee003d84:	00038863          	beqz	t2,ee003d94 <.L1462>

ee003d88 <.LVL1214>:
                   crc |= 0x8000;
ee003d88:	01cac333          	xor	t1,s5,t3

ee003d8c <.LVL1215>:
ee003d8c:	01031b93          	slli	s7,t1,0x10
ee003d90:	010bda93          	srli	s5,s7,0x10

ee003d94 <.L1462>:
                if (x16 == 1)
ee003d94:	001afb13          	andi	s6,s5,1
ee003d98:	001ad913          	srli	s2,s5,0x1
ee003d9c:	00eb0863          	beq	s6,a4,ee003dac <.L1463>

ee003da0 <.LVL1217>:
                   crc |= 0x8000;
ee003da0:	01c940b3          	xor	ra,s2,t3

ee003da4 <.LVL1218>:
ee003da4:	01009993          	slli	s3,ra,0x10
ee003da8:	0109d913          	srli	s2,s3,0x10

ee003dac <.L1463>:
        crc=crcu8( (ee_u8) ((newval)>>8)        ,crc);
ee003dac:	008ed813          	srli	a6,t4,0x8

ee003db0 <.LBB697>:
                x16 = (ee_u8)((data & 1) ^ ((ee_u8)crc & 1));
ee003db0:	012842b3          	xor	t0,a6,s2
                if (x16 == 1)
ee003db4:	0012fa13          	andi	s4,t0,1

ee003db8 <.LBE697>:
        crc=crcu8( (ee_u8) ((newval)>>8)        ,crc);
ee003db8:	008ed413          	srli	s0,t4,0x8

ee003dbc <.LBB700>:
                data >>= 1;
ee003dbc:	00195f13          	srli	t5,s2,0x1
ee003dc0:	009ede93          	srli	t4,t4,0x9

ee003dc4 <.LVL1221>:
                if (x16 == 1)
ee003dc4:	000a0863          	beqz	s4,ee003dd4 <.L1464>

ee003dc8 <.LVL1222>:
                   crc |= 0x8000;
ee003dc8:	01cf4fb3          	xor	t6,t5,t3

ee003dcc <.LVL1223>:
ee003dcc:	010f9513          	slli	a0,t6,0x10
ee003dd0:	01055f13          	srli	t5,a0,0x10

ee003dd4 <.L1464>:
                x16 = (ee_u8)((data & 1) ^ ((ee_u8)crc & 1));
ee003dd4:	01eec5b3          	xor	a1,t4,t5
                if (x16 == 1)
ee003dd8:	0015f893          	andi	a7,a1,1
                data >>= 1;
ee003ddc:	00245393          	srli	t2,s0,0x2

ee003de0 <.LVL1225>:
                if (x16 == 1)
ee003de0:	001f5313          	srli	t1,t5,0x1
ee003de4:	00088863          	beqz	a7,ee003df4 <.L1465>

ee003de8 <.LVL1226>:
                   crc |= 0x8000;
ee003de8:	01c347b3          	xor	a5,t1,t3

ee003dec <.LVL1227>:
ee003dec:	01079713          	slli	a4,a5,0x10
ee003df0:	01075313          	srli	t1,a4,0x10

ee003df4 <.L1465>:
                x16 = (ee_u8)((data & 1) ^ ((ee_u8)crc & 1));
ee003df4:	0063cbb3          	xor	s7,t2,t1
                if (x16 == 1)
ee003df8:	001bfa93          	andi	s5,s7,1
                data >>= 1;
ee003dfc:	00345b13          	srli	s6,s0,0x3

ee003e00 <.LVL1229>:
                if (x16 == 1)
ee003e00:	00135913          	srli	s2,t1,0x1
ee003e04:	000a8863          	beqz	s5,ee003e14 <.L1466>

ee003e08 <.LVL1230>:
                   crc |= 0x8000;
ee003e08:	01c940b3          	xor	ra,s2,t3

ee003e0c <.LVL1231>:
ee003e0c:	01009993          	slli	s3,ra,0x10
ee003e10:	0109d913          	srli	s2,s3,0x10

ee003e14 <.L1466>:
                x16 = (ee_u8)((data & 1) ^ ((ee_u8)crc & 1));
ee003e14:	012b4833          	xor	a6,s6,s2
                if (x16 == 1)
ee003e18:	00187293          	andi	t0,a6,1
                data >>= 1;
ee003e1c:	00445a13          	srli	s4,s0,0x4

ee003e20 <.LVL1233>:
                if (x16 == 1)
ee003e20:	00195513          	srli	a0,s2,0x1
ee003e24:	00028863          	beqz	t0,ee003e34 <.L1467>

ee003e28 <.LVL1234>:
                   crc |= 0x8000;
ee003e28:	01c54eb3          	xor	t4,a0,t3

ee003e2c <.LVL1235>:
ee003e2c:	010e9f93          	slli	t6,t4,0x10
ee003e30:	010fd513          	srli	a0,t6,0x10

ee003e34 <.L1467>:
                x16 = (ee_u8)((data & 1) ^ ((ee_u8)crc & 1));
ee003e34:	00aa4f33          	xor	t5,s4,a0
                if (x16 == 1)
ee003e38:	001f7593          	andi	a1,t5,1
                data >>= 1;
ee003e3c:	00545893          	srli	a7,s0,0x5

ee003e40 <.LVL1237>:
                if (x16 == 1)
ee003e40:	00155713          	srli	a4,a0,0x1
ee003e44:	c599                	beqz	a1,ee003e52 <.L1468>

ee003e46 <.LVL1238>:
                   crc |= 0x8000;
ee003e46:	01c743b3          	xor	t2,a4,t3

ee003e4a <.LVL1239>:
ee003e4a:	01039793          	slli	a5,t2,0x10
ee003e4e:	0107d713          	srli	a4,a5,0x10

ee003e52 <.L1468>:
                x16 = (ee_u8)((data & 1) ^ ((ee_u8)crc & 1));
ee003e52:	00e8c333          	xor	t1,a7,a4
                if (x16 == 1)
ee003e56:	00137b93          	andi	s7,t1,1
                data >>= 1;
ee003e5a:	00645a93          	srli	s5,s0,0x6

ee003e5e <.LVL1241>:
                if (x16 == 1)
ee003e5e:	00175993          	srli	s3,a4,0x1
ee003e62:	000b8863          	beqz	s7,ee003e72 <.L1469>

ee003e66 <.LVL1242>:
                   crc |= 0x8000;
ee003e66:	01c9cb33          	xor	s6,s3,t3

ee003e6a <.LVL1243>:
ee003e6a:	010b1093          	slli	ra,s6,0x10
ee003e6e:	0100d993          	srli	s3,ra,0x10

ee003e72 <.L1469>:
                x16 = (ee_u8)((data & 1) ^ ((ee_u8)crc & 1));
ee003e72:	013ac933          	xor	s2,s5,s3
                if (x16 == 1)
ee003e76:	00197813          	andi	a6,s2,1
                data >>= 1;
ee003e7a:	801d                	srli	s0,s0,0x7

ee003e7c <.LVL1245>:
                if (x16 == 1)
ee003e7c:	0019de93          	srli	t4,s3,0x1
ee003e80:	00080863          	beqz	a6,ee003e90 <.L1470>

ee003e84 <.LVL1246>:
                   crc |= 0x8000;
ee003e84:	01cec2b3          	xor	t0,t4,t3

ee003e88 <.LVL1247>:
ee003e88:	01029a13          	slli	s4,t0,0x10
ee003e8c:	010a5e93          	srli	t4,s4,0x10

ee003e90 <.L1470>:
                if (x16 == 1)
ee003e90:	001eff93          	andi	t6,t4,1
ee003e94:	001ed893          	srli	a7,t4,0x1
ee003e98:	008f8863          	beq	t6,s0,ee003ea8 <.L1471>

ee003e9c <.LVL1249>:
                   crc |= 0x8000;
ee003e9c:	01c8c533          	xor	a0,a7,t3

ee003ea0 <.LVL1250>:
ee003ea0:	01051f13          	slli	t5,a0,0x10
ee003ea4:	010f5893          	srli	a7,t5,0x10

ee003ea8 <.L1471>:
                crc=crcu32(track_counts[i],crc);
ee003ea8:	420c                	lw	a1,0(a2)

ee003eaa <.LBB705>:
        return crcu16((ee_u16)newval, crc);
ee003eaa:	0018d993          	srli	s3,a7,0x1

ee003eae <.LBB709>:
                x16 = (ee_u8)((data & 1) ^ ((ee_u8)crc & 1));
ee003eae:	0115c3b3          	xor	t2,a1,a7

ee003eb2 <.LBE711>:
        crc=crcu8( (ee_u8) (newval)                             ,crc);
ee003eb2:	0ff5f713          	andi	a4,a1,255

ee003eb6 <.LBE709>:
        return crcu16((ee_u16)newval, crc);
ee003eb6:	01059313          	slli	t1,a1,0x10

ee003eba <.LBB715>:
                if (x16 == 1)
ee003eba:	0013f793          	andi	a5,t2,1

ee003ebe <.LBE715>:
        return crcu16((ee_u16)newval, crc);
ee003ebe:	01035b93          	srli	s7,t1,0x10

ee003ec2 <.LBB716>:
                data >>= 1;
ee003ec2:	00175a93          	srli	s5,a4,0x1

ee003ec6 <.LVL1254>:
                if (x16 == 1)
ee003ec6:	c799                	beqz	a5,ee003ed4 <.L1472>

ee003ec8 <.LVL1255>:
                   crc |= 0x8000;
ee003ec8:	01c9cb33          	xor	s6,s3,t3

ee003ecc <.LVL1256>:
ee003ecc:	010b1093          	slli	ra,s6,0x10
ee003ed0:	0100d993          	srli	s3,ra,0x10

ee003ed4 <.L1472>:
                x16 = (ee_u8)((data & 1) ^ ((ee_u8)crc & 1));
ee003ed4:	013ac933          	xor	s2,s5,s3
                if (x16 == 1)
ee003ed8:	00197813          	andi	a6,s2,1
                data >>= 1;
ee003edc:	00275293          	srli	t0,a4,0x2

ee003ee0 <.LVL1258>:
                if (x16 == 1)
ee003ee0:	0019de93          	srli	t4,s3,0x1
ee003ee4:	00080863          	beqz	a6,ee003ef4 <.L1473>

ee003ee8 <.LVL1259>:
                   crc |= 0x8000;
ee003ee8:	01cec433          	xor	s0,t4,t3

ee003eec <.LVL1260>:
ee003eec:	01041a13          	slli	s4,s0,0x10
ee003ef0:	010a5e93          	srli	t4,s4,0x10

ee003ef4 <.L1473>:
                x16 = (ee_u8)((data & 1) ^ ((ee_u8)crc & 1));
ee003ef4:	01d2cfb3          	xor	t6,t0,t4
                if (x16 == 1)
ee003ef8:	001ff513          	andi	a0,t6,1
                data >>= 1;
ee003efc:	00375f13          	srli	t5,a4,0x3

ee003f00 <.LVL1262>:
                if (x16 == 1)
ee003f00:	001ed313          	srli	t1,t4,0x1
ee003f04:	c519                	beqz	a0,ee003f12 <.L1474>

ee003f06 <.LVL1263>:
                   crc |= 0x8000;
ee003f06:	01c348b3          	xor	a7,t1,t3

ee003f0a <.LVL1264>:
ee003f0a:	01089393          	slli	t2,a7,0x10
ee003f0e:	0103d313          	srli	t1,t2,0x10

ee003f12 <.L1474>:
                x16 = (ee_u8)((data & 1) ^ ((ee_u8)crc & 1));
ee003f12:	006f47b3          	xor	a5,t5,t1
                if (x16 == 1)
ee003f16:	0017fa93          	andi	s5,a5,1
                data >>= 1;
ee003f1a:	00475b13          	srli	s6,a4,0x4

ee003f1e <.LVL1266>:
                if (x16 == 1)
ee003f1e:	00135913          	srli	s2,t1,0x1
ee003f22:	000a8863          	beqz	s5,ee003f32 <.L1475>

ee003f26 <.LVL1267>:
                   crc |= 0x8000;
ee003f26:	01c940b3          	xor	ra,s2,t3

ee003f2a <.LVL1268>:
ee003f2a:	01009993          	slli	s3,ra,0x10
ee003f2e:	0109d913          	srli	s2,s3,0x10

ee003f32 <.L1475>:
                x16 = (ee_u8)((data & 1) ^ ((ee_u8)crc & 1));
ee003f32:	012b4833          	xor	a6,s6,s2
                if (x16 == 1)
ee003f36:	00187293          	andi	t0,a6,1
                data >>= 1;
ee003f3a:	00575a13          	srli	s4,a4,0x5

ee003f3e <.LVL1270>:
                if (x16 == 1)
ee003f3e:	00195f93          	srli	t6,s2,0x1
ee003f42:	00028863          	beqz	t0,ee003f52 <.L1476>

ee003f46 <.LVL1271>:
                   crc |= 0x8000;
ee003f46:	01cfc433          	xor	s0,t6,t3

ee003f4a <.LVL1272>:
ee003f4a:	01041e93          	slli	t4,s0,0x10
ee003f4e:	010edf93          	srli	t6,t4,0x10

ee003f52 <.L1476>:
                x16 = (ee_u8)((data & 1) ^ ((ee_u8)crc & 1));
ee003f52:	01fa4533          	xor	a0,s4,t6
                if (x16 == 1)
ee003f56:	00157f13          	andi	t5,a0,1
                data >>= 1;
ee003f5a:	00675893          	srli	a7,a4,0x6

ee003f5e <.LVL1274>:
                if (x16 == 1)
ee003f5e:	001fda93          	srli	s5,t6,0x1
ee003f62:	000f0863          	beqz	t5,ee003f72 <.L1477>

ee003f66 <.LVL1275>:
                   crc |= 0x8000;
ee003f66:	01cac3b3          	xor	t2,s5,t3

ee003f6a <.LVL1276>:
ee003f6a:	01039313          	slli	t1,t2,0x10
ee003f6e:	01035a93          	srli	s5,t1,0x10

ee003f72 <.L1477>:
                x16 = (ee_u8)((data & 1) ^ ((ee_u8)crc & 1));
ee003f72:	0158c7b3          	xor	a5,a7,s5
                if (x16 == 1)
ee003f76:	0017fb13          	andi	s6,a5,1
                data >>= 1;
ee003f7a:	831d                	srli	a4,a4,0x7

ee003f7c <.LVL1278>:
                if (x16 == 1)
ee003f7c:	001ad913          	srli	s2,s5,0x1
ee003f80:	000b0863          	beqz	s6,ee003f90 <.L1478>

ee003f84 <.LVL1279>:
                   crc |= 0x8000;
ee003f84:	01c940b3          	xor	ra,s2,t3

ee003f88 <.LVL1280>:
ee003f88:	01009993          	slli	s3,ra,0x10
ee003f8c:	0109d913          	srli	s2,s3,0x10

ee003f90 <.L1478>:
                if (x16 == 1)
ee003f90:	00197813          	andi	a6,s2,1
ee003f94:	00195413          	srli	s0,s2,0x1
ee003f98:	00e80863          	beq	a6,a4,ee003fa8 <.L1479>

ee003f9c <.LVL1282>:
                   crc |= 0x8000;
ee003f9c:	01c442b3          	xor	t0,s0,t3

ee003fa0 <.LVL1283>:
ee003fa0:	01029a13          	slli	s4,t0,0x10
ee003fa4:	010a5413          	srli	s0,s4,0x10

ee003fa8 <.L1479>:
        crc=crcu8( (ee_u8) ((newval)>>8)        ,crc);
ee003fa8:	008bde93          	srli	t4,s7,0x8

ee003fac <.LBB717>:
                x16 = (ee_u8)((data & 1) ^ ((ee_u8)crc & 1));
ee003fac:	008ecfb3          	xor	t6,t4,s0
                if (x16 == 1)
ee003fb0:	001fff13          	andi	t5,t6,1

ee003fb4 <.LBE717>:
        crc=crcu8( (ee_u8) ((newval)>>8)        ,crc);
ee003fb4:	008bd513          	srli	a0,s7,0x8

ee003fb8 <.LBB720>:
                data >>= 1;
ee003fb8:	00145313          	srli	t1,s0,0x1
ee003fbc:	009bdb93          	srli	s7,s7,0x9

ee003fc0 <.LVL1286>:
                if (x16 == 1)
ee003fc0:	000f0863          	beqz	t5,ee003fd0 <.L1480>

ee003fc4 <.LVL1287>:
                   crc |= 0x8000;
ee003fc4:	01c348b3          	xor	a7,t1,t3

ee003fc8 <.LVL1288>:
ee003fc8:	01089393          	slli	t2,a7,0x10
ee003fcc:	0103d313          	srli	t1,t2,0x10

ee003fd0 <.L1480>:
                x16 = (ee_u8)((data & 1) ^ ((ee_u8)crc & 1));
ee003fd0:	006bcab3          	xor	s5,s7,t1
                if (x16 == 1)
ee003fd4:	001af793          	andi	a5,s5,1
                data >>= 1;
ee003fd8:	00255b13          	srli	s6,a0,0x2

ee003fdc <.LVL1290>:
                if (x16 == 1)
ee003fdc:	00135993          	srli	s3,t1,0x1
ee003fe0:	c799                	beqz	a5,ee003fee <.L1481>

ee003fe2 <.LVL1291>:
                   crc |= 0x8000;
ee003fe2:	01c9c733          	xor	a4,s3,t3

ee003fe6 <.LVL1292>:
ee003fe6:	01071093          	slli	ra,a4,0x10
ee003fea:	0100d993          	srli	s3,ra,0x10

ee003fee <.L1481>:
                x16 = (ee_u8)((data & 1) ^ ((ee_u8)crc & 1));
ee003fee:	013b4933          	xor	s2,s6,s3
                if (x16 == 1)
ee003ff2:	00197293          	andi	t0,s2,1
                data >>= 1;
ee003ff6:	00355813          	srli	a6,a0,0x3

ee003ffa <.LVL1294>:
                if (x16 == 1)
ee003ffa:	0019de93          	srli	t4,s3,0x1
ee003ffe:	00028863          	beqz	t0,ee00400e <.L1482>

ee004002 <.LVL1295>:
                   crc |= 0x8000;
ee004002:	01ceca33          	xor	s4,t4,t3

ee004006 <.LVL1296>:
ee004006:	010a1413          	slli	s0,s4,0x10
ee00400a:	01045e93          	srli	t4,s0,0x10

ee00400e <.L1482>:
                x16 = (ee_u8)((data & 1) ^ ((ee_u8)crc & 1));
ee00400e:	01d84fb3          	xor	t6,a6,t4
                if (x16 == 1)
ee004012:	001fff13          	andi	t5,t6,1
                data >>= 1;
ee004016:	00455b93          	srli	s7,a0,0x4

ee00401a <.LVL1298>:
                if (x16 == 1)
ee00401a:	001ed313          	srli	t1,t4,0x1
ee00401e:	000f0863          	beqz	t5,ee00402e <.L1483>

ee004022 <.LVL1299>:
                   crc |= 0x8000;
ee004022:	01c348b3          	xor	a7,t1,t3

ee004026 <.LVL1300>:
ee004026:	01089393          	slli	t2,a7,0x10
ee00402a:	0103d313          	srli	t1,t2,0x10

ee00402e <.L1483>:
                x16 = (ee_u8)((data & 1) ^ ((ee_u8)crc & 1));
ee00402e:	006bcab3          	xor	s5,s7,t1
                if (x16 == 1)
ee004032:	001af793          	andi	a5,s5,1
                data >>= 1;
ee004036:	00555b13          	srli	s6,a0,0x5

ee00403a <.LVL1302>:
                if (x16 == 1)
ee00403a:	00135993          	srli	s3,t1,0x1
ee00403e:	c799                	beqz	a5,ee00404c <.L1484>

ee004040 <.LVL1303>:
                   crc |= 0x8000;
ee004040:	01c9c733          	xor	a4,s3,t3

ee004044 <.LVL1304>:
ee004044:	01071093          	slli	ra,a4,0x10
ee004048:	0100d993          	srli	s3,ra,0x10

ee00404c <.L1484>:
                x16 = (ee_u8)((data & 1) ^ ((ee_u8)crc & 1));
ee00404c:	013b4933          	xor	s2,s6,s3
                if (x16 == 1)
ee004050:	00197293          	andi	t0,s2,1
                data >>= 1;
ee004054:	00655813          	srli	a6,a0,0x6

ee004058 <.LVL1306>:
                if (x16 == 1)
ee004058:	0019de93          	srli	t4,s3,0x1
ee00405c:	00028863          	beqz	t0,ee00406c <.L1485>

ee004060 <.LVL1307>:
                   crc |= 0x8000;
ee004060:	01ceca33          	xor	s4,t4,t3

ee004064 <.LVL1308>:
ee004064:	010a1413          	slli	s0,s4,0x10
ee004068:	01045e93          	srli	t4,s0,0x10

ee00406c <.L1485>:
                x16 = (ee_u8)((data & 1) ^ ((ee_u8)crc & 1));
ee00406c:	01d84fb3          	xor	t6,a6,t4
                if (x16 == 1)
ee004070:	001fff13          	andi	t5,t6,1
                data >>= 1;
ee004074:	811d                	srli	a0,a0,0x7

ee004076 <.LVL1310>:
                if (x16 == 1)
ee004076:	001ed393          	srli	t2,t4,0x1
ee00407a:	000f0863          	beqz	t5,ee00408a <.L1486>

ee00407e <.LVL1311>:
                   crc |= 0x8000;
ee00407e:	01c3cbb3          	xor	s7,t2,t3

ee004082 <.LVL1312>:
ee004082:	010b9893          	slli	a7,s7,0x10
ee004086:	0108d393          	srli	t2,a7,0x10

ee00408a <.L1486>:
                if (x16 == 1)
ee00408a:	0013f313          	andi	t1,t2,1
ee00408e:	0013db13          	srli	s6,t2,0x1
ee004092:	00a30863          	beq	t1,a0,ee0040a2 <.L1487>

ee004096 <.LVL1314>:
                   crc |= 0x8000;
ee004096:	01cb4ab3          	xor	s5,s6,t3

ee00409a <.LVL1315>:
ee00409a:	010a9793          	slli	a5,s5,0x10
ee00409e:	0107db13          	srli	s6,a5,0x10

ee0040a2 <.L1487>:
        crc=crc16((ee_s16) (newval>>16) ,crc);
ee0040a2:	0105d713          	srli	a4,a1,0x10

ee0040a6 <.LBB725>:
                x16 = (ee_u8)((data & 1) ^ ((ee_u8)crc & 1));
ee0040a6:	016740b3          	xor	ra,a4,s6

ee0040aa <.LBE729>:
        crc=crcu8( (ee_u8) (newval)                             ,crc);
ee0040aa:	0ff77993          	andi	s3,a4,255

ee0040ae <.LBB733>:
                if (x16 == 1)
ee0040ae:	0010f913          	andi	s2,ra,1

ee0040b2 <.LBE727>:
        return crcu16((ee_u16)newval, crc);
ee0040b2:	81c1                	srli	a1,a1,0x10

ee0040b4 <.LBB734>:
                data >>= 1;
ee0040b4:	0019d293          	srli	t0,s3,0x1

ee0040b8 <.LVL1319>:
                if (x16 == 1)
ee0040b8:	001b5413          	srli	s0,s6,0x1
ee0040bc:	00090863          	beqz	s2,ee0040cc <.L1488>

ee0040c0 <.LVL1320>:
                   crc |= 0x8000;
ee0040c0:	01c44833          	xor	a6,s0,t3

ee0040c4 <.LVL1321>:
ee0040c4:	01081a13          	slli	s4,a6,0x10
ee0040c8:	010a5413          	srli	s0,s4,0x10

ee0040cc <.L1488>:
                x16 = (ee_u8)((data & 1) ^ ((ee_u8)crc & 1));
ee0040cc:	0082ceb3          	xor	t4,t0,s0
                if (x16 == 1)
ee0040d0:	001eff93          	andi	t6,t4,1
                data >>= 1;
ee0040d4:	0029df13          	srli	t5,s3,0x2

ee0040d8 <.LVL1323>:
                if (x16 == 1)
ee0040d8:	00145893          	srli	a7,s0,0x1
ee0040dc:	000f8863          	beqz	t6,ee0040ec <.L1489>

ee0040e0 <.LVL1324>:
                   crc |= 0x8000;
ee0040e0:	01c8c533          	xor	a0,a7,t3

ee0040e4 <.LVL1325>:
ee0040e4:	01051b93          	slli	s7,a0,0x10
ee0040e8:	010bd893          	srli	a7,s7,0x10

ee0040ec <.L1489>:
                x16 = (ee_u8)((data & 1) ^ ((ee_u8)crc & 1));
ee0040ec:	011f43b3          	xor	t2,t5,a7
                if (x16 == 1)
ee0040f0:	0013f313          	andi	t1,t2,1
                data >>= 1;
ee0040f4:	0039da93          	srli	s5,s3,0x3

ee0040f8 <.LVL1327>:
                if (x16 == 1)
ee0040f8:	0018d713          	srli	a4,a7,0x1

ee0040fc <.LVL1328>:
ee0040fc:	00030863          	beqz	t1,ee00410c <.L1490>

ee004100 <.LVL1329>:
                   crc |= 0x8000;
ee004100:	01c747b3          	xor	a5,a4,t3

ee004104 <.LVL1330>:
ee004104:	01079b13          	slli	s6,a5,0x10
ee004108:	010b5713          	srli	a4,s6,0x10

ee00410c <.L1490>:
                x16 = (ee_u8)((data & 1) ^ ((ee_u8)crc & 1));
ee00410c:	00eac0b3          	xor	ra,s5,a4
                if (x16 == 1)
ee004110:	0010f913          	andi	s2,ra,1
                data >>= 1;
ee004114:	0049d293          	srli	t0,s3,0x4

ee004118 <.LVL1332>:
                if (x16 == 1)
ee004118:	00175413          	srli	s0,a4,0x1
ee00411c:	00090863          	beqz	s2,ee00412c <.L1491>

ee004120 <.LVL1333>:
                   crc |= 0x8000;
ee004120:	01c44833          	xor	a6,s0,t3

ee004124 <.LVL1334>:
ee004124:	01081a13          	slli	s4,a6,0x10
ee004128:	010a5413          	srli	s0,s4,0x10

ee00412c <.L1491>:
                x16 = (ee_u8)((data & 1) ^ ((ee_u8)crc & 1));
ee00412c:	0082ceb3          	xor	t4,t0,s0
                if (x16 == 1)
ee004130:	001eff93          	andi	t6,t4,1
                data >>= 1;
ee004134:	0059df13          	srli	t5,s3,0x5

ee004138 <.LVL1336>:
                if (x16 == 1)
ee004138:	00145893          	srli	a7,s0,0x1
ee00413c:	000f8863          	beqz	t6,ee00414c <.L1492>

ee004140 <.LVL1337>:
                   crc |= 0x8000;
ee004140:	01c8c533          	xor	a0,a7,t3

ee004144 <.LVL1338>:
ee004144:	01051b93          	slli	s7,a0,0x10
ee004148:	010bd893          	srli	a7,s7,0x10

ee00414c <.L1492>:
                x16 = (ee_u8)((data & 1) ^ ((ee_u8)crc & 1));
ee00414c:	011f43b3          	xor	t2,t5,a7
                if (x16 == 1)
ee004150:	0013f313          	andi	t1,t2,1
                data >>= 1;
ee004154:	0069da93          	srli	s5,s3,0x6

ee004158 <.LVL1340>:
                if (x16 == 1)
ee004158:	0018d713          	srli	a4,a7,0x1
ee00415c:	00030863          	beqz	t1,ee00416c <.L1493>

ee004160 <.LVL1341>:
                   crc |= 0x8000;
ee004160:	01c747b3          	xor	a5,a4,t3

ee004164 <.LVL1342>:
ee004164:	01079b13          	slli	s6,a5,0x10
ee004168:	010b5713          	srli	a4,s6,0x10

ee00416c <.L1493>:
                x16 = (ee_u8)((data & 1) ^ ((ee_u8)crc & 1));
ee00416c:	00eac0b3          	xor	ra,s5,a4
                if (x16 == 1)
ee004170:	0010f913          	andi	s2,ra,1
                data >>= 1;
ee004174:	0079d993          	srli	s3,s3,0x7

ee004178 <.LVL1344>:
                if (x16 == 1)
ee004178:	00175a13          	srli	s4,a4,0x1
ee00417c:	00090863          	beqz	s2,ee00418c <.L1494>

ee004180 <.LVL1345>:
                   crc |= 0x8000;
ee004180:	01ca42b3          	xor	t0,s4,t3

ee004184 <.LVL1346>:
ee004184:	01029813          	slli	a6,t0,0x10
ee004188:	01085a13          	srli	s4,a6,0x10

ee00418c <.L1494>:
                if (x16 == 1)
ee00418c:	001a7e93          	andi	t4,s4,1
ee004190:	001a5f13          	srli	t5,s4,0x1
ee004194:	013e8863          	beq	t4,s3,ee0041a4 <.L1495>

ee004198 <.LVL1348>:
                   crc |= 0x8000;
ee004198:	01cf4433          	xor	s0,t5,t3

ee00419c <.LVL1349>:
ee00419c:	01041f93          	slli	t6,s0,0x10
ee0041a0:	010fdf13          	srli	t5,t6,0x10

ee0041a4 <.L1495>:
        crc=crcu8( (ee_u8) ((newval)>>8)        ,crc);
ee0041a4:	0085d513          	srli	a0,a1,0x8

ee0041a8 <.LBB735>:
                x16 = (ee_u8)((data & 1) ^ ((ee_u8)crc & 1));
ee0041a8:	01e54bb3          	xor	s7,a0,t5
                if (x16 == 1)
ee0041ac:	001bf893          	andi	a7,s7,1

ee0041b0 <.LBE735>:
        crc=crcu8( (ee_u8) ((newval)>>8)        ,crc);
ee0041b0:	0085d393          	srli	t2,a1,0x8

ee0041b4 <.LBB738>:
                data >>= 1;
ee0041b4:	001f5b13          	srli	s6,t5,0x1
ee0041b8:	81a5                	srli	a1,a1,0x9

ee0041ba <.LVL1352>:
                if (x16 == 1)
ee0041ba:	00088863          	beqz	a7,ee0041ca <.L1496>

ee0041be <.LVL1353>:
                   crc |= 0x8000;
ee0041be:	01cb4333          	xor	t1,s6,t3

ee0041c2 <.LVL1354>:
ee0041c2:	01031a93          	slli	s5,t1,0x10
ee0041c6:	010adb13          	srli	s6,s5,0x10

ee0041ca <.L1496>:
                x16 = (ee_u8)((data & 1) ^ ((ee_u8)crc & 1));
ee0041ca:	0165c7b3          	xor	a5,a1,s6
                if (x16 == 1)
ee0041ce:	0017f713          	andi	a4,a5,1
                data >>= 1;
ee0041d2:	0023d093          	srli	ra,t2,0x2

ee0041d6 <.LVL1356>:
                if (x16 == 1)
ee0041d6:	001b5293          	srli	t0,s6,0x1
ee0041da:	c719                	beqz	a4,ee0041e8 <.L1497>

ee0041dc <.LVL1357>:
                   crc |= 0x8000;
ee0041dc:	01c2c933          	xor	s2,t0,t3

ee0041e0 <.LVL1358>:
ee0041e0:	01091993          	slli	s3,s2,0x10
ee0041e4:	0109d293          	srli	t0,s3,0x10

ee0041e8 <.L1497>:
                x16 = (ee_u8)((data & 1) ^ ((ee_u8)crc & 1));
ee0041e8:	0050c833          	xor	a6,ra,t0
                if (x16 == 1)
ee0041ec:	00187a13          	andi	s4,a6,1
                data >>= 1;
ee0041f0:	0033de93          	srli	t4,t2,0x3

ee0041f4 <.LVL1360>:
                if (x16 == 1)
ee0041f4:	0012df13          	srli	t5,t0,0x1
ee0041f8:	000a0863          	beqz	s4,ee004208 <.L1498>

ee0041fc <.LVL1361>:
                   crc |= 0x8000;
ee0041fc:	01cf4433          	xor	s0,t5,t3

ee004200 <.LVL1362>:
ee004200:	01041f93          	slli	t6,s0,0x10
ee004204:	010fdf13          	srli	t5,t6,0x10

ee004208 <.L1498>:
                x16 = (ee_u8)((data & 1) ^ ((ee_u8)crc & 1));
ee004208:	01eec533          	xor	a0,t4,t5
                if (x16 == 1)
ee00420c:	00157b93          	andi	s7,a0,1
                data >>= 1;
ee004210:	0043d893          	srli	a7,t2,0x4

ee004214 <.LVL1364>:
                if (x16 == 1)
ee004214:	001f5a93          	srli	s5,t5,0x1
ee004218:	000b8863          	beqz	s7,ee004228 <.L1499>

ee00421c <.LVL1365>:
                   crc |= 0x8000;
ee00421c:	01cac5b3          	xor	a1,s5,t3

ee004220 <.LVL1366>:
ee004220:	01059313          	slli	t1,a1,0x10
ee004224:	01035a93          	srli	s5,t1,0x10

ee004228 <.L1499>:
                x16 = (ee_u8)((data & 1) ^ ((ee_u8)crc & 1));
ee004228:	0158cb33          	xor	s6,a7,s5
                if (x16 == 1)
ee00422c:	001b7793          	andi	a5,s6,1
                data >>= 1;
ee004230:	0053d713          	srli	a4,t2,0x5

ee004234 <.LVL1368>:
                if (x16 == 1)
ee004234:	001ad993          	srli	s3,s5,0x1
ee004238:	c799                	beqz	a5,ee004246 <.L1500>

ee00423a <.LVL1369>:
                   crc |= 0x8000;
ee00423a:	01c9c0b3          	xor	ra,s3,t3

ee00423e <.LVL1370>:
ee00423e:	01009913          	slli	s2,ra,0x10
ee004242:	01095993          	srli	s3,s2,0x10

ee004246 <.L1500>:
                x16 = (ee_u8)((data & 1) ^ ((ee_u8)crc & 1));
ee004246:	013742b3          	xor	t0,a4,s3
                if (x16 == 1)
ee00424a:	0012f813          	andi	a6,t0,1
                data >>= 1;
ee00424e:	0063da13          	srli	s4,t2,0x6

ee004252 <.LVL1372>:
                if (x16 == 1)
ee004252:	0019df93          	srli	t6,s3,0x1
ee004256:	00080863          	beqz	a6,ee004266 <.L1501>

ee00425a <.LVL1373>:
                   crc |= 0x8000;
ee00425a:	01cfceb3          	xor	t4,t6,t3

ee00425e <.LVL1374>:
ee00425e:	010e9413          	slli	s0,t4,0x10
ee004262:	01045f93          	srli	t6,s0,0x10

ee004266 <.L1501>:
                x16 = (ee_u8)((data & 1) ^ ((ee_u8)crc & 1));
ee004266:	01fa4f33          	xor	t5,s4,t6
                if (x16 == 1)
ee00426a:	001f7b93          	andi	s7,t5,1
                data >>= 1;
ee00426e:	0073d393          	srli	t2,t2,0x7

ee004272 <.LVL1376>:
                if (x16 == 1)
ee004272:	001fd593          	srli	a1,t6,0x1
ee004276:	000b8863          	beqz	s7,ee004286 <.L1502>

ee00427a <.LVL1377>:
                   crc |= 0x8000;
ee00427a:	01c5c533          	xor	a0,a1,t3

ee00427e <.LVL1378>:
ee00427e:	01051893          	slli	a7,a0,0x10
ee004282:	0108d593          	srli	a1,a7,0x10

ee004286 <.L1502>:
                if (x16 == 1)
ee004286:	0015f313          	andi	t1,a1,1
ee00428a:	0015d413          	srli	s0,a1,0x1
ee00428e:	00730863          	beq	t1,t2,ee00429e <.L1503>

ee004292 <.LVL1380>:
                   crc |= 0x8000;
ee004292:	01c44ab3          	xor	s5,s0,t3

ee004296 <.LVL1381>:
ee004296:	010a9b13          	slli	s6,s5,0x10
ee00429a:	010b5413          	srli	s0,s6,0x10

ee00429e <.L1503>:
        for (i=0; i<NUM_CORE_STATES; i++) {
ee00429e:	0691                	addi	a3,a3,4
ee0042a0:	0611                	addi	a2,a2,4
ee0042a2:	80d494e3          	bne	s1,a3,ee003aaa <.L1436>
}
ee0042a6:	50f6                	lw	ra,124(sp)
ee0042a8:	8522                	mv	a0,s0
ee0042aa:	5466                	lw	s0,120(sp)
ee0042ac:	54d6                	lw	s1,116(sp)
ee0042ae:	5946                	lw	s2,112(sp)
ee0042b0:	59b6                	lw	s3,108(sp)
ee0042b2:	5a26                	lw	s4,104(sp)
ee0042b4:	5a96                	lw	s5,100(sp)
ee0042b6:	5b06                	lw	s6,96(sp)
ee0042b8:	4bf6                	lw	s7,92(sp)
ee0042ba:	6109                	addi	sp,sp,128
ee0042bc:	8082                	ret

ee0042be <.L1437>:
                p+=step;
ee0042be:	9956                	add	s2,s2,s5
ee0042c0:	c64a                	sw	s2,12(sp)
        while (p < (memblock+blksize)) { /* undo corruption is seed1 and seed2 are equal */
ee0042c2:	fd496163          	bltu	s2,s4,ee003a84 <.L1439>
ee0042c6:	fdaff06f          	j	ee003aa0 <.L1433>

ee0042ca <.L1423>:
        while (p < (memblock+blksize)) { /* insert some corruption */
ee0042ca:	00a90a33          	add	s4,s2,a0
ee0042ce:	ed496863          	bltu	s2,s4,ee00399e <.L1504>
ee0042d2:	fceff06f          	j	ee003aa0 <.L1433>

ee0042d6 <.L1425>:
        while (*p!=0) {
ee0042d6:	f0059463          	bnez	a1,ee0039de <.L1434>
ee0042da:	fc6ff06f          	j	ee003aa0 <.L1433>

ee0042de <calc_func>:
ee_s16 calc_func(ee_s16 *pdata, core_results *res) {
ee0042de:	1101                	addi	sp,sp,-32
ee0042e0:	ca26                	sw	s1,20(sp)
        ee_s16 data=*pdata;
ee0042e2:	00051483          	lh	s1,0(a0)

ee0042e6 <.LVL1387>:
ee_s16 calc_func(ee_s16 *pdata, core_results *res) {
ee0042e6:	ce06                	sw	ra,28(sp)
ee0042e8:	cc22                	sw	s0,24(sp)
        ee_u8 optype=(data>>7) & 1; /* bit 7 indicates if the function result has been cached */
ee0042ea:	4074d793          	srai	a5,s1,0x7
ee_s16 calc_func(ee_s16 *pdata, core_results *res) {
ee0042ee:	c84a                	sw	s2,16(sp)
ee0042f0:	c64e                	sw	s3,12(sp)
        if (optype) /* if cached, use cache */
ee0042f2:	0017f093          	andi	ra,a5,1
ee0042f6:	00008b63          	beqz	ra,ee00430c <.L1719>
}
ee0042fa:	40f2                	lw	ra,28(sp)
ee0042fc:	4462                	lw	s0,24(sp)
ee0042fe:	4942                	lw	s2,16(sp)
ee004300:	49b2                	lw	s3,12(sp)
                return (data & 0x007f);
ee004302:	07f4f513          	andi	a0,s1,127

ee004306 <.LVL1388>:
}
ee004306:	44d2                	lw	s1,20(sp)

ee004308 <.LVL1389>:
ee004308:	6105                	addi	sp,sp,32
ee00430a:	8082                	ret

ee00430c <.L1719>:
                ee_s16 dtype=((data>>3) & 0xf); /* bits 3-6 is specific data for the operation */
ee00430c:	4034d713          	srai	a4,s1,0x3
ee004310:	00f77293          	andi	t0,a4,15
                dtype |= dtype << 4; /* replicate the lower 4 bits to get an 8b value */
ee004314:	00429313          	slli	t1,t0,0x4
                ee_s16 flag=data & 0x7; /* bits 0-2 is type of function to perform */
ee004318:	0074f693          	andi	a3,s1,7

ee00431c <.LVL1391>:
                                retval=core_bench_state(res->size,res->memblock[3],res->seed1,res->seed2,dtype,res->crc);
ee00431c:	0385d403          	lhu	s0,56(a1)
ee004320:	89aa                	mv	s3,a0
ee004322:	892e                	mv	s2,a1
                dtype |= dtype << 4; /* replicate the lower 4 bits to get an 8b value */
ee004324:	00536733          	or	a4,t1,t0

ee004328 <.LVL1392>:
                switch (flag) {
ee004328:	50068963          	beqz	a3,ee00483a <.L1721>
ee00432c:	4505                	li	a0,1

ee00432e <.LVL1393>:
ee00432e:	50a69163          	bne	a3,a0,ee004830 <.L1855>

ee004332 <.LBB760>:
        crc=crc16(matrix_test(N,C,A,B,val),crc);
ee004332:	5994                	lw	a3,48(a1)

ee004334 <.LVL1395>:
ee004334:	55d0                	lw	a2,44(a1)
ee004336:	02892503          	lw	a0,40(s2)
ee00433a:	59cc                	lw	a1,52(a1)

ee00433c <.LVL1396>:
ee00433c:	bccfc0ef          	jal	ra,ee000708 <matrix_test>

ee004340 <.LBB762>:
                x16 = (ee_u8)((data & 1) ^ ((ee_u8)crc & 1));
ee004340:	00a445b3          	xor	a1,s0,a0

ee004344 <.LBE766>:
        crc=crcu8( (ee_u8) (newval)                             ,crc);
ee004344:	0ff57893          	andi	a7,a0,255

ee004348 <.LBE764>:
        return crcu16((ee_u16)newval, crc);
ee004348:	01051e93          	slli	t4,a0,0x10

ee00434c <.LBB770>:
                if (x16 == 1)
ee00434c:	0015fe13          	andi	t3,a1,1

ee004350 <.LBE770>:
        return crcu16((ee_u16)newval, crc);
ee004350:	010edf13          	srli	t5,t4,0x10

ee004354 <.LBB771>:
                data >>= 1;
ee004354:	0018df93          	srli	t6,a7,0x1

ee004358 <.LVL1399>:
                crc >>= 1;
ee004358:	00145313          	srli	t1,s0,0x1
                if (x16 == 1)
ee00435c:	000e0b63          	beqz	t3,ee004372 <.L1726>

ee004360 <.LVL1400>:
                   crc |= 0x8000;
ee004360:	70e9                	lui	ra,0xffffa
ee004362:	00108713          	addi	a4,ra,1 # ffffa001 <STACK+0xffb1a51>
ee004366:	00e347b3          	xor	a5,t1,a4

ee00436a <.LVL1401>:
ee00436a:	01079293          	slli	t0,a5,0x10
ee00436e:	0102d313          	srli	t1,t0,0x10

ee004372 <.L1726>:
                x16 = (ee_u8)((data & 1) ^ ((ee_u8)crc & 1));
ee004372:	01f346b3          	xor	a3,t1,t6
                if (x16 == 1)
ee004376:	0016f393          	andi	t2,a3,1
                data >>= 1;
ee00437a:	0028d813          	srli	a6,a7,0x2

ee00437e <.LVL1403>:
                crc >>= 1;
ee00437e:	00135e13          	srli	t3,t1,0x1
                if (x16 == 1)
ee004382:	00038b63          	beqz	t2,ee004398 <.L1727>

ee004386 <.LVL1404>:
                   crc |= 0x8000;
ee004386:	7669                	lui	a2,0xffffa
ee004388:	00160413          	addi	s0,a2,1 # ffffa001 <STACK+0xffb1a51>

ee00438c <.LVL1405>:
ee00438c:	008e4533          	xor	a0,t3,s0

ee004390 <.LVL1406>:
ee004390:	01051593          	slli	a1,a0,0x10
ee004394:	0105de13          	srli	t3,a1,0x10

ee004398 <.L1727>:
                x16 = (ee_u8)((data & 1) ^ ((ee_u8)crc & 1));
ee004398:	010e4eb3          	xor	t4,t3,a6
                if (x16 == 1)
ee00439c:	001eff93          	andi	t6,t4,1
                data >>= 1;
ee0043a0:	0038d093          	srli	ra,a7,0x3

ee0043a4 <.LVL1408>:
                crc >>= 1;
ee0043a4:	001e5693          	srli	a3,t3,0x1
                if (x16 == 1)
ee0043a8:	000f8b63          	beqz	t6,ee0043be <.L1728>

ee0043ac <.LVL1409>:
                   crc |= 0x8000;
ee0043ac:	7769                	lui	a4,0xffffa
ee0043ae:	00170293          	addi	t0,a4,1 # ffffa001 <STACK+0xffb1a51>
ee0043b2:	0056c7b3          	xor	a5,a3,t0

ee0043b6 <.LVL1410>:
ee0043b6:	01079313          	slli	t1,a5,0x10
ee0043ba:	01035693          	srli	a3,t1,0x10

ee0043be <.L1728>:
                x16 = (ee_u8)((data & 1) ^ ((ee_u8)crc & 1));
ee0043be:	0016c3b3          	xor	t2,a3,ra
                if (x16 == 1)
ee0043c2:	0013f813          	andi	a6,t2,1
                data >>= 1;
ee0043c6:	0048d613          	srli	a2,a7,0x4

ee0043ca <.LVL1412>:
                crc >>= 1;
ee0043ca:	0016de93          	srli	t4,a3,0x1
                if (x16 == 1)
ee0043ce:	00080b63          	beqz	a6,ee0043e4 <.L1729>

ee0043d2 <.LVL1413>:
                   crc |= 0x8000;
ee0043d2:	7469                	lui	s0,0xffffa
ee0043d4:	00140513          	addi	a0,s0,1 # ffffa001 <STACK+0xffb1a51>
ee0043d8:	00aec5b3          	xor	a1,t4,a0

ee0043dc <.LVL1414>:
ee0043dc:	01059e13          	slli	t3,a1,0x10
ee0043e0:	010e5e93          	srli	t4,t3,0x10

ee0043e4 <.L1729>:
                x16 = (ee_u8)((data & 1) ^ ((ee_u8)crc & 1));
ee0043e4:	00cecfb3          	xor	t6,t4,a2
                if (x16 == 1)
ee0043e8:	001ff093          	andi	ra,t6,1
                data >>= 1;
ee0043ec:	0058d713          	srli	a4,a7,0x5

ee0043f0 <.LVL1416>:
                crc >>= 1;
ee0043f0:	001ed393          	srli	t2,t4,0x1
                if (x16 == 1)
ee0043f4:	00008b63          	beqz	ra,ee00440a <.L1730>

ee0043f8 <.LVL1417>:
                   crc |= 0x8000;
ee0043f8:	72e9                	lui	t0,0xffffa
ee0043fa:	00128313          	addi	t1,t0,1 # ffffa001 <STACK+0xffb1a51>
ee0043fe:	0063c7b3          	xor	a5,t2,t1

ee004402 <.LVL1418>:
ee004402:	01079693          	slli	a3,a5,0x10
ee004406:	0106d393          	srli	t2,a3,0x10

ee00440a <.L1730>:
                x16 = (ee_u8)((data & 1) ^ ((ee_u8)crc & 1));
ee00440a:	00e3c833          	xor	a6,t2,a4
                if (x16 == 1)
ee00440e:	00187413          	andi	s0,a6,1
                data >>= 1;
ee004412:	0068d613          	srli	a2,a7,0x6

ee004416 <.LVL1420>:
                crc >>= 1;
ee004416:	0013df93          	srli	t6,t2,0x1
                if (x16 == 1)
ee00441a:	c811                	beqz	s0,ee00442e <.L1731>

ee00441c <.LVL1421>:
                   crc |= 0x8000;
ee00441c:	7569                	lui	a0,0xffffa
ee00441e:	00150593          	addi	a1,a0,1 # ffffa001 <STACK+0xffb1a51>
ee004422:	00bfce33          	xor	t3,t6,a1

ee004426 <.LVL1422>:
ee004426:	010e1e93          	slli	t4,t3,0x10
ee00442a:	010edf93          	srli	t6,t4,0x10

ee00442e <.L1731>:
                x16 = (ee_u8)((data & 1) ^ ((ee_u8)crc & 1));
ee00442e:	00cfc0b3          	xor	ra,t6,a2
                if (x16 == 1)
ee004432:	0010f713          	andi	a4,ra,1
                data >>= 1;
ee004436:	0078d893          	srli	a7,a7,0x7

ee00443a <.LVL1424>:
                crc >>= 1;
ee00443a:	001fd393          	srli	t2,t6,0x1
                if (x16 == 1)
ee00443e:	cb11                	beqz	a4,ee004452 <.L1732>

ee004440 <.LVL1425>:
                   crc |= 0x8000;
ee004440:	72e9                	lui	t0,0xffffa
ee004442:	00128313          	addi	t1,t0,1 # ffffa001 <STACK+0xffb1a51>
ee004446:	0063c7b3          	xor	a5,t2,t1

ee00444a <.LVL1426>:
ee00444a:	01079693          	slli	a3,a5,0x10
ee00444e:	0106d393          	srli	t2,a3,0x10

ee004452 <.L1732>:
                if (x16 == 1)
ee004452:	0013f813          	andi	a6,t2,1
                crc >>= 1;
ee004456:	0013de13          	srli	t3,t2,0x1
                if (x16 == 1)
ee00445a:	01180b63          	beq	a6,a7,ee004470 <.L1733>

ee00445e <.LVL1428>:
                   crc |= 0x8000;
ee00445e:	7469                	lui	s0,0xffffa
ee004460:	00140613          	addi	a2,s0,1 # ffffa001 <STACK+0xffb1a51>
ee004464:	00ce4533          	xor	a0,t3,a2

ee004468 <.LVL1429>:
ee004468:	01051593          	slli	a1,a0,0x10
ee00446c:	0105de13          	srli	t3,a1,0x10

ee004470 <.L1733>:
        crc=crcu8( (ee_u8) ((newval)>>8)        ,crc);
ee004470:	008f5e93          	srli	t4,t5,0x8

ee004474 <.LBB772>:
                x16 = (ee_u8)((data & 1) ^ ((ee_u8)crc & 1));
ee004474:	01de4fb3          	xor	t6,t3,t4
                if (x16 == 1)
ee004478:	001ff093          	andi	ra,t6,1

ee00447c <.LBE772>:
        crc=crcu8( (ee_u8) ((newval)>>8)        ,crc);
ee00447c:	008f5893          	srli	a7,t5,0x8

ee004480 <.LBB775>:
                data >>= 1;
ee004480:	001e5693          	srli	a3,t3,0x1
ee004484:	009f5f13          	srli	t5,t5,0x9

ee004488 <.LVL1432>:
                if (x16 == 1)
ee004488:	00008b63          	beqz	ra,ee00449e <.L1734>

ee00448c <.LVL1433>:
                   crc |= 0x8000;
ee00448c:	7769                	lui	a4,0xffffa
ee00448e:	00170293          	addi	t0,a4,1 # ffffa001 <STACK+0xffb1a51>
ee004492:	0056c333          	xor	t1,a3,t0

ee004496 <.LVL1434>:
ee004496:	01031793          	slli	a5,t1,0x10
ee00449a:	0107d693          	srli	a3,a5,0x10

ee00449e <.L1734>:
                x16 = (ee_u8)((data & 1) ^ ((ee_u8)crc & 1));
ee00449e:	01e6c3b3          	xor	t2,a3,t5
                if (x16 == 1)
ee0044a2:	0013f813          	andi	a6,t2,1
                data >>= 1;
ee0044a6:	0028d413          	srli	s0,a7,0x2

ee0044aa <.LVL1436>:
                if (x16 == 1)
ee0044aa:	0016de93          	srli	t4,a3,0x1
ee0044ae:	00080b63          	beqz	a6,ee0044c4 <.L1735>

ee0044b2 <.LVL1437>:
                   crc |= 0x8000;
ee0044b2:	7669                	lui	a2,0xffffa
ee0044b4:	00160513          	addi	a0,a2,1 # ffffa001 <STACK+0xffb1a51>
ee0044b8:	00aec5b3          	xor	a1,t4,a0

ee0044bc <.LVL1438>:
ee0044bc:	01059e13          	slli	t3,a1,0x10
ee0044c0:	010e5e93          	srli	t4,t3,0x10

ee0044c4 <.L1735>:
                x16 = (ee_u8)((data & 1) ^ ((ee_u8)crc & 1));
ee0044c4:	008ecfb3          	xor	t6,t4,s0
                if (x16 == 1)
ee0044c8:	001ff093          	andi	ra,t6,1
                data >>= 1;
ee0044cc:	0038df13          	srli	t5,a7,0x3

ee0044d0 <.LVL1440>:
                if (x16 == 1)
ee0044d0:	001ed693          	srli	a3,t4,0x1
ee0044d4:	00008b63          	beqz	ra,ee0044ea <.L1736>

ee0044d8 <.LVL1441>:
                   crc |= 0x8000;
ee0044d8:	7769                	lui	a4,0xffffa
ee0044da:	00170293          	addi	t0,a4,1 # ffffa001 <STACK+0xffb1a51>
ee0044de:	0056c333          	xor	t1,a3,t0

ee0044e2 <.LVL1442>:
ee0044e2:	01031793          	slli	a5,t1,0x10
ee0044e6:	0107d693          	srli	a3,a5,0x10

ee0044ea <.L1736>:
                x16 = (ee_u8)((data & 1) ^ ((ee_u8)crc & 1));
ee0044ea:	01e6c3b3          	xor	t2,a3,t5
                if (x16 == 1)
ee0044ee:	0013f813          	andi	a6,t2,1
                data >>= 1;
ee0044f2:	0048d413          	srli	s0,a7,0x4

ee0044f6 <.LVL1444>:
                if (x16 == 1)
ee0044f6:	0016de93          	srli	t4,a3,0x1
ee0044fa:	00080b63          	beqz	a6,ee004510 <.L1737>

ee0044fe <.LVL1445>:
                   crc |= 0x8000;
ee0044fe:	7669                	lui	a2,0xffffa
ee004500:	00160513          	addi	a0,a2,1 # ffffa001 <STACK+0xffb1a51>
ee004504:	00aec5b3          	xor	a1,t4,a0

ee004508 <.LVL1446>:
ee004508:	01059e13          	slli	t3,a1,0x10
ee00450c:	010e5e93          	srli	t4,t3,0x10

ee004510 <.L1737>:
                x16 = (ee_u8)((data & 1) ^ ((ee_u8)crc & 1));
ee004510:	008ecfb3          	xor	t6,t4,s0
                if (x16 == 1)
ee004514:	001ff093          	andi	ra,t6,1
                data >>= 1;
ee004518:	0058df13          	srli	t5,a7,0x5

ee00451c <.LVL1448>:
                if (x16 == 1)
ee00451c:	001ed693          	srli	a3,t4,0x1
ee004520:	00008b63          	beqz	ra,ee004536 <.L1738>

ee004524 <.LVL1449>:
                   crc |= 0x8000;
ee004524:	7769                	lui	a4,0xffffa
ee004526:	00170293          	addi	t0,a4,1 # ffffa001 <STACK+0xffb1a51>
ee00452a:	0056c333          	xor	t1,a3,t0

ee00452e <.LVL1450>:
ee00452e:	01031793          	slli	a5,t1,0x10
ee004532:	0107d693          	srli	a3,a5,0x10

ee004536 <.L1738>:
                x16 = (ee_u8)((data & 1) ^ ((ee_u8)crc & 1));
ee004536:	01e6c3b3          	xor	t2,a3,t5
                if (x16 == 1)
ee00453a:	0013f813          	andi	a6,t2,1
                data >>= 1;
ee00453e:	0068d413          	srli	s0,a7,0x6

ee004542 <.LVL1452>:
                if (x16 == 1)
ee004542:	0016de93          	srli	t4,a3,0x1
ee004546:	00080b63          	beqz	a6,ee00455c <.L1739>

ee00454a <.LVL1453>:
                   crc |= 0x8000;
ee00454a:	7669                	lui	a2,0xffffa
ee00454c:	00160513          	addi	a0,a2,1 # ffffa001 <STACK+0xffb1a51>
ee004550:	00aec5b3          	xor	a1,t4,a0

ee004554 <.LVL1454>:
ee004554:	01059e13          	slli	t3,a1,0x10
ee004558:	010e5e93          	srli	t4,t3,0x10

ee00455c <.L1739>:
                x16 = (ee_u8)((data & 1) ^ ((ee_u8)crc & 1));
ee00455c:	008ecfb3          	xor	t6,t4,s0
                if (x16 == 1)
ee004560:	001ff093          	andi	ra,t6,1
                data >>= 1;
ee004564:	0078d893          	srli	a7,a7,0x7

ee004568 <.LVL1456>:
                if (x16 == 1)
ee004568:	001ed793          	srli	a5,t4,0x1
ee00456c:	00008b63          	beqz	ra,ee004582 <.L1740>

ee004570 <.LVL1457>:
                   crc |= 0x8000;
ee004570:	7f69                	lui	t5,0xffffa
ee004572:	001f0713          	addi	a4,t5,1 # ffffa001 <STACK+0xffb1a51>
ee004576:	00e7c2b3          	xor	t0,a5,a4

ee00457a <.LVL1458>:
ee00457a:	01029313          	slli	t1,t0,0x10
ee00457e:	01035793          	srli	a5,t1,0x10

ee004582 <.L1740>:
                if (x16 == 1)
ee004582:	0017f693          	andi	a3,a5,1
ee004586:	0017d513          	srli	a0,a5,0x1
ee00458a:	01168b63          	beq	a3,a7,ee0045a0 <.L1741>

ee00458e <.LVL1460>:
                   crc |= 0x8000;
ee00458e:	73e9                	lui	t2,0xffffa
ee004590:	00138813          	addi	a6,t2,1 # ffffa001 <STACK+0xffb1a51>
ee004594:	01054433          	xor	s0,a0,a6
ee004598:	01041613          	slli	a2,s0,0x10
ee00459c:	01065513          	srli	a0,a2,0x10

ee0045a0 <.L1741>:
                                if (res->crcmatrix==0)
ee0045a0:	03c95583          	lhu	a1,60(s2)
                                retval=core_bench_matrix(&(res->mat),dtype,res->crc);
ee0045a4:	01051e13          	slli	t3,a0,0x10
                res->crc=crcu16(retval,res->crc);
ee0045a8:	03895403          	lhu	s0,56(s2)
                                retval=core_bench_matrix(&(res->mat),dtype,res->crc);
ee0045ac:	410e5e93          	srai	t4,t3,0x10

ee0045b0 <.LVL1462>:
                                if (res->crcmatrix==0)
ee0045b0:	e199                	bnez	a1,ee0045b6 <.L1723>
                                        res->crcmatrix=retval;
ee0045b2:	02a91e23          	sh	a0,60(s2)

ee0045b6 <.L1723>:
                x16 = (ee_u8)((data & 1) ^ ((ee_u8)crc & 1));
ee0045b6:	008ecfb3          	xor	t6,t4,s0

ee0045ba <.LBE782>:
        crc=crcu8( (ee_u8) (newval)                             ,crc);
ee0045ba:	0ffef093          	andi	ra,t4,255

ee0045be <.LBB785>:
                if (x16 == 1)
ee0045be:	001ff893          	andi	a7,t6,1
                data >>= 1;
ee0045c2:	0010df13          	srli	t5,ra,0x1

ee0045c6 <.LVL1465>:
                if (x16 == 1)
ee0045c6:	00145393          	srli	t2,s0,0x1
ee0045ca:	00088b63          	beqz	a7,ee0045e0 <.L1742>

ee0045ce <.LVL1466>:
                   crc |= 0x8000;
ee0045ce:	7769                	lui	a4,0xffffa
ee0045d0:	00170293          	addi	t0,a4,1 # ffffa001 <STACK+0xffb1a51>
ee0045d4:	0053c333          	xor	t1,t2,t0

ee0045d8 <.LVL1467>:
ee0045d8:	01031793          	slli	a5,t1,0x10
ee0045dc:	0107d393          	srli	t2,a5,0x10

ee0045e0 <.L1742>:
                x16 = (ee_u8)((data & 1) ^ ((ee_u8)crc & 1));
ee0045e0:	007f46b3          	xor	a3,t5,t2
                if (x16 == 1)
ee0045e4:	0016f813          	andi	a6,a3,1
                data >>= 1;
ee0045e8:	0020d613          	srli	a2,ra,0x2

ee0045ec <.LVL1469>:
                if (x16 == 1)
ee0045ec:	0013d893          	srli	a7,t2,0x1
ee0045f0:	00080b63          	beqz	a6,ee004606 <.L1743>

ee0045f4 <.LVL1470>:
                   crc |= 0x8000;
ee0045f4:	75e9                	lui	a1,0xffffa
ee0045f6:	00158413          	addi	s0,a1,1 # ffffa001 <STACK+0xffb1a51>
ee0045fa:	0088ce33          	xor	t3,a7,s0

ee0045fe <.LVL1471>:
ee0045fe:	010e1f93          	slli	t6,t3,0x10
ee004602:	010fd893          	srli	a7,t6,0x10

ee004606 <.L1743>:
                x16 = (ee_u8)((data & 1) ^ ((ee_u8)crc & 1));
ee004606:	01164f33          	xor	t5,a2,a7
                if (x16 == 1)
ee00460a:	001f7713          	andi	a4,t5,1
                data >>= 1;
ee00460e:	0030d293          	srli	t0,ra,0x3

ee004612 <.LVL1473>:
                if (x16 == 1)
ee004612:	0018d813          	srli	a6,a7,0x1
ee004616:	cb11                	beqz	a4,ee00462a <.L1744>

ee004618 <.LVL1474>:
                   crc |= 0x8000;
ee004618:	7369                	lui	t1,0xffffa
ee00461a:	00130393          	addi	t2,t1,1 # ffffa001 <STACK+0xffb1a51>
ee00461e:	007847b3          	xor	a5,a6,t2

ee004622 <.LVL1475>:
ee004622:	01079693          	slli	a3,a5,0x10
ee004626:	0106d813          	srli	a6,a3,0x10

ee00462a <.L1744>:
                x16 = (ee_u8)((data & 1) ^ ((ee_u8)crc & 1));
ee00462a:	0102c633          	xor	a2,t0,a6
                if (x16 == 1)
ee00462e:	00167593          	andi	a1,a2,1
                data >>= 1;
ee004632:	0040d413          	srli	s0,ra,0x4

ee004636 <.LVL1477>:
                if (x16 == 1)
ee004636:	00185713          	srli	a4,a6,0x1
ee00463a:	c991                	beqz	a1,ee00464e <.L1745>

ee00463c <.LVL1478>:
                   crc |= 0x8000;
ee00463c:	7e69                	lui	t3,0xffffa
ee00463e:	001e0f93          	addi	t6,t3,1 # ffffa001 <STACK+0xffb1a51>
ee004642:	01f748b3          	xor	a7,a4,t6

ee004646 <.LVL1479>:
ee004646:	01089f13          	slli	t5,a7,0x10
ee00464a:	010f5713          	srli	a4,t5,0x10

ee00464e <.L1745>:
                x16 = (ee_u8)((data & 1) ^ ((ee_u8)crc & 1));
ee00464e:	00e442b3          	xor	t0,s0,a4
                if (x16 == 1)
ee004652:	0012f313          	andi	t1,t0,1
                data >>= 1;
ee004656:	0050d393          	srli	t2,ra,0x5

ee00465a <.LVL1481>:
                if (x16 == 1)
ee00465a:	00175413          	srli	s0,a4,0x1
ee00465e:	00030b63          	beqz	t1,ee004674 <.L1746>

ee004662 <.LVL1482>:
                   crc |= 0x8000;
ee004662:	76e9                	lui	a3,0xffffa
ee004664:	00168813          	addi	a6,a3,1 # ffffa001 <STACK+0xffb1a51>
ee004668:	010447b3          	xor	a5,s0,a6

ee00466c <.LVL1483>:
ee00466c:	01079613          	slli	a2,a5,0x10
ee004670:	01065413          	srli	s0,a2,0x10

ee004674 <.L1746>:
                x16 = (ee_u8)((data & 1) ^ ((ee_u8)crc & 1));
ee004674:	007445b3          	xor	a1,s0,t2
                if (x16 == 1)
ee004678:	0015fe13          	andi	t3,a1,1
                data >>= 1;
ee00467c:	0060df93          	srli	t6,ra,0x6

ee004680 <.LVL1485>:
                if (x16 == 1)
ee004680:	00145313          	srli	t1,s0,0x1
ee004684:	000e0b63          	beqz	t3,ee00469a <.L1747>

ee004688 <.LVL1486>:
                   crc |= 0x8000;
ee004688:	78e9                	lui	a7,0xffffa
ee00468a:	00188f13          	addi	t5,a7,1 # ffffa001 <STACK+0xffb1a51>
ee00468e:	01e34733          	xor	a4,t1,t5

ee004692 <.LVL1487>:
ee004692:	01071293          	slli	t0,a4,0x10
ee004696:	0102d313          	srli	t1,t0,0x10

ee00469a <.L1747>:
                x16 = (ee_u8)((data & 1) ^ ((ee_u8)crc & 1));
ee00469a:	01f343b3          	xor	t2,t1,t6
                if (x16 == 1)
ee00469e:	0013f693          	andi	a3,t2,1
                data >>= 1;
ee0046a2:	0070d093          	srli	ra,ra,0x7

ee0046a6 <.LVL1489>:
                if (x16 == 1)
ee0046a6:	00135593          	srli	a1,t1,0x1
ee0046aa:	ca91                	beqz	a3,ee0046be <.L1748>

ee0046ac <.LVL1490>:
                   crc |= 0x8000;
ee0046ac:	7869                	lui	a6,0xffffa
ee0046ae:	00180613          	addi	a2,a6,1 # ffffa001 <STACK+0xffb1a51>
ee0046b2:	00c5c7b3          	xor	a5,a1,a2

ee0046b6 <.LVL1491>:
ee0046b6:	01079413          	slli	s0,a5,0x10
ee0046ba:	01045593          	srli	a1,s0,0x10

ee0046be <.L1748>:
                if (x16 == 1)
ee0046be:	0015fe13          	andi	t3,a1,1
ee0046c2:	0015d293          	srli	t0,a1,0x1
ee0046c6:	001e0b63          	beq	t3,ra,ee0046dc <.L1749>

ee0046ca <.LVL1493>:
                   crc |= 0x8000;
ee0046ca:	7fe9                	lui	t6,0xffffa
ee0046cc:	001f8893          	addi	a7,t6,1 # ffffa001 <STACK+0xffb1a51>
ee0046d0:	0112cf33          	xor	t5,t0,a7

ee0046d4 <.LVL1494>:
ee0046d4:	010f1713          	slli	a4,t5,0x10
ee0046d8:	01075293          	srli	t0,a4,0x10

ee0046dc <.L1749>:
        crc=crcu8( (ee_u8) ((newval)>>8)        ,crc);
ee0046dc:	8121                	srli	a0,a0,0x8

ee0046de <.LBB786>:
                x16 = (ee_u8)((data & 1) ^ ((ee_u8)crc & 1));
ee0046de:	00554333          	xor	t1,a0,t0

ee0046e2 <.LBE786>:
        crc=crcu8( (ee_u8) ((newval)>>8)        ,crc);
ee0046e2:	0ff57393          	andi	t2,a0,255

ee0046e6 <.LBB789>:
                if (x16 == 1)
ee0046e6:	00137693          	andi	a3,t1,1
                data >>= 1;
ee0046ea:	0013d093          	srli	ra,t2,0x1

ee0046ee <.LVL1497>:
                if (x16 == 1)
ee0046ee:	0012de13          	srli	t3,t0,0x1
ee0046f2:	ca91                	beqz	a3,ee004706 <.L1750>

ee0046f4 <.LVL1498>:
                   crc |= 0x8000;
ee0046f4:	7869                	lui	a6,0xffffa
ee0046f6:	00180613          	addi	a2,a6,1 # ffffa001 <STACK+0xffb1a51>
ee0046fa:	00ce47b3          	xor	a5,t3,a2

ee0046fe <.LVL1499>:
ee0046fe:	01079413          	slli	s0,a5,0x10
ee004702:	01045e13          	srli	t3,s0,0x10

ee004706 <.L1750>:
                x16 = (ee_u8)((data & 1) ^ ((ee_u8)crc & 1));
ee004706:	001e45b3          	xor	a1,t3,ra
                if (x16 == 1)
ee00470a:	0015ff93          	andi	t6,a1,1
                data >>= 1;
ee00470e:	0023d893          	srli	a7,t2,0x2

ee004712 <.LVL1501>:
                if (x16 == 1)
ee004712:	001e5313          	srli	t1,t3,0x1
ee004716:	000f8b63          	beqz	t6,ee00472c <.L1751>

ee00471a <.LVL1502>:
                   crc |= 0x8000;
ee00471a:	7f69                	lui	t5,0xffffa
ee00471c:	001f0713          	addi	a4,t5,1 # ffffa001 <STACK+0xffb1a51>
ee004720:	00e342b3          	xor	t0,t1,a4

ee004724 <.LVL1503>:
ee004724:	01029513          	slli	a0,t0,0x10
ee004728:	01055313          	srli	t1,a0,0x10

ee00472c <.L1751>:
                x16 = (ee_u8)((data & 1) ^ ((ee_u8)crc & 1));
ee00472c:	0068c6b3          	xor	a3,a7,t1
                if (x16 == 1)
ee004730:	0016f093          	andi	ra,a3,1
                data >>= 1;
ee004734:	0033d813          	srli	a6,t2,0x3

ee004738 <.LVL1505>:
                if (x16 == 1)
ee004738:	00135f93          	srli	t6,t1,0x1
ee00473c:	00008b63          	beqz	ra,ee004752 <.L1752>

ee004740 <.LVL1506>:
                   crc |= 0x8000;
ee004740:	7669                	lui	a2,0xffffa
ee004742:	00160413          	addi	s0,a2,1 # ffffa001 <STACK+0xffb1a51>
ee004746:	008fc7b3          	xor	a5,t6,s0

ee00474a <.LVL1507>:
ee00474a:	01079e13          	slli	t3,a5,0x10
ee00474e:	010e5f93          	srli	t6,t3,0x10

ee004752 <.L1752>:
                x16 = (ee_u8)((data & 1) ^ ((ee_u8)crc & 1));
ee004752:	01f845b3          	xor	a1,a6,t6
                if (x16 == 1)
ee004756:	0015f893          	andi	a7,a1,1
                data >>= 1;
ee00475a:	0043df13          	srli	t5,t2,0x4

ee00475e <.LVL1509>:
                if (x16 == 1)
ee00475e:	001fd693          	srli	a3,t6,0x1
ee004762:	00088b63          	beqz	a7,ee004778 <.L1753>

ee004766 <.LVL1510>:
                   crc |= 0x8000;
ee004766:	7769                	lui	a4,0xffffa
ee004768:	00170293          	addi	t0,a4,1 # ffffa001 <STACK+0xffb1a51>
ee00476c:	0056c533          	xor	a0,a3,t0

ee004770 <.LVL1511>:
ee004770:	01051313          	slli	t1,a0,0x10
ee004774:	01035693          	srli	a3,t1,0x10

ee004778 <.L1753>:
                x16 = (ee_u8)((data & 1) ^ ((ee_u8)crc & 1));
ee004778:	01e6c0b3          	xor	ra,a3,t5
                if (x16 == 1)
ee00477c:	0010f813          	andi	a6,ra,1
                data >>= 1;
ee004780:	0053d413          	srli	s0,t2,0x5

ee004784 <.LVL1513>:
                if (x16 == 1)
ee004784:	0016d893          	srli	a7,a3,0x1
ee004788:	00080b63          	beqz	a6,ee00479e <.L1754>

ee00478c <.LVL1514>:
                   crc |= 0x8000;
ee00478c:	7669                	lui	a2,0xffffa
ee00478e:	00160e13          	addi	t3,a2,1 # ffffa001 <STACK+0xffb1a51>
ee004792:	01c8c7b3          	xor	a5,a7,t3

ee004796 <.LVL1515>:
ee004796:	01079f93          	slli	t6,a5,0x10
ee00479a:	010fd893          	srli	a7,t6,0x10

ee00479e <.L1754>:
                x16 = (ee_u8)((data & 1) ^ ((ee_u8)crc & 1));
ee00479e:	0088c5b3          	xor	a1,a7,s0
                if (x16 == 1)
ee0047a2:	0015ff13          	andi	t5,a1,1
                data >>= 1;
ee0047a6:	0063d713          	srli	a4,t2,0x6

ee0047aa <.LVL1517>:
                if (x16 == 1)
ee0047aa:	0018d093          	srli	ra,a7,0x1
ee0047ae:	000f0b63          	beqz	t5,ee0047c4 <.L1755>

ee0047b2 <.LVL1518>:
                   crc |= 0x8000;
ee0047b2:	72e9                	lui	t0,0xffffa
ee0047b4:	00128513          	addi	a0,t0,1 # ffffa001 <STACK+0xffb1a51>
ee0047b8:	00a0c333          	xor	t1,ra,a0

ee0047bc <.LVL1519>:
ee0047bc:	01031693          	slli	a3,t1,0x10
ee0047c0:	0106d093          	srli	ra,a3,0x10

ee0047c4 <.L1755>:
                x16 = (ee_u8)((data & 1) ^ ((ee_u8)crc & 1));
ee0047c4:	00e0c833          	xor	a6,ra,a4
                if (x16 == 1)
ee0047c8:	00187413          	andi	s0,a6,1
                data >>= 1;
ee0047cc:	0073d393          	srli	t2,t2,0x7

ee0047d0 <.LVL1521>:
                if (x16 == 1)
ee0047d0:	0010d893          	srli	a7,ra,0x1
ee0047d4:	c811                	beqz	s0,ee0047e8 <.L1756>

ee0047d6 <.LVL1522>:
                   crc |= 0x8000;
ee0047d6:	7669                	lui	a2,0xffffa
ee0047d8:	00160e13          	addi	t3,a2,1 # ffffa001 <STACK+0xffb1a51>
ee0047dc:	01c8c7b3          	xor	a5,a7,t3

ee0047e0 <.LVL1523>:
ee0047e0:	01079f93          	slli	t6,a5,0x10
ee0047e4:	010fd893          	srli	a7,t6,0x10

ee0047e8 <.L1756>:
                x16 = (ee_u8)((data & 1) ^ ((ee_u8)crc & 1));
ee0047e8:	0113c5b3          	xor	a1,t2,a7
                if (x16 == 1)
ee0047ec:	0015ff13          	andi	t5,a1,1
ee0047f0:	0018d693          	srli	a3,a7,0x1
ee0047f4:	000f0b63          	beqz	t5,ee00480a <.L1757>

ee0047f8 <.LVL1525>:
                   crc |= 0x8000;
ee0047f8:	7769                	lui	a4,0xffffa
ee0047fa:	00170293          	addi	t0,a4,1 # ffffa001 <STACK+0xffb1a51>
ee0047fe:	0056c533          	xor	a0,a3,t0
ee004802:	01051313          	slli	t1,a0,0x10
ee004806:	01035693          	srli	a3,t1,0x10

ee00480a <.L1757>:
                retval &= 0x007f;
ee00480a:	07fef513          	andi	a0,t4,127
                *pdata = (data & 0xff00) | 0x0080 | retval; /* cache the result */
ee00480e:	f004f493          	andi	s1,s1,-256

ee004812 <.LBE759>:
}
ee004812:	40f2                	lw	ra,28(sp)
ee004814:	4462                	lw	s0,24(sp)

ee004816 <.LBB790>:
                *pdata = (data & 0xff00) | 0x0080 | retval; /* cache the result */
ee004816:	00956eb3          	or	t4,a0,s1

ee00481a <.LVL1528>:
                res->crc=crcu16(retval,res->crc);
ee00481a:	02d91c23          	sh	a3,56(s2)

ee00481e <.LVL1529>:
                *pdata = (data & 0xff00) | 0x0080 | retval; /* cache the result */
ee00481e:	080ee913          	ori	s2,t4,128

ee004822 <.LVL1530>:
ee004822:	01299023          	sh	s2,0(s3)

ee004826 <.LBE790>:
}
ee004826:	44d2                	lw	s1,20(sp)
ee004828:	4942                	lw	s2,16(sp)
ee00482a:	49b2                	lw	s3,12(sp)

ee00482c <.LVL1531>:
ee00482c:	6105                	addi	sp,sp,32
ee00482e:	8082                	ret

ee004830 <.L1855>:
                res->crc=crcu16(retval,res->crc);
ee004830:	01049513          	slli	a0,s1,0x10
ee004834:	8141                	srli	a0,a0,0x10
ee004836:	8ea6                	mv	t4,s1
ee004838:	bbbd                	j	ee0045b6 <.L1723>

ee00483a <.L1721>:
                                retval=core_bench_state(res->size,res->memblock[3],res->seed1,res->seed2,dtype,res->crc);
ee00483a:	02200393          	li	t2,34
ee00483e:	883a                	mv	a6,a4
ee004840:	00775463          	bge	a4,t2,ee004848 <.L1724>
ee004844:	02200813          	li	a6,34

ee004848 <.L1724>:
ee004848:	00091603          	lh	a2,0(s2)
ee00484c:	00291683          	lh	a3,2(s2)

ee004850 <.LVL1534>:
ee004850:	01492583          	lw	a1,20(s2)

ee004854 <.LVL1535>:
ee004854:	01892503          	lw	a0,24(s2)

ee004858 <.LVL1536>:
ee004858:	87a2                	mv	a5,s0
ee00485a:	0ff87713          	andi	a4,a6,255

ee00485e <.LVL1537>:
ee00485e:	848ff0ef          	jal	ra,ee0038a6 <core_bench_state>

ee004862 <.LVL1538>:
                                if (res->crcstate==0)
ee004862:	03e95603          	lhu	a2,62(s2)
                                retval=core_bench_state(res->size,res->memblock[3],res->seed1,res->seed2,dtype,res->crc);
ee004866:	01051413          	slli	s0,a0,0x10
ee00486a:	41045e93          	srai	t4,s0,0x10

ee00486e <.LVL1539>:
                res->crc=crcu16(retval,res->crc);
ee00486e:	03895403          	lhu	s0,56(s2)
                                if (res->crcstate==0)
ee004872:	d40612e3          	bnez	a2,ee0045b6 <.L1723>
                                        res->crcstate=retval;
ee004876:	02a91f23          	sh	a0,62(s2)
ee00487a:	bb35                	j	ee0045b6 <.L1723>

ee00487c <cmp_complex>:
ee_s32 cmp_complex(list_data *a, list_data *b, core_results *res) {
ee00487c:	1101                	addi	sp,sp,-32
ee00487e:	c84a                	sw	s2,16(sp)

ee004880 <.LBB830>:
        ee_s16 data=*pdata;
ee004880:	00051903          	lh	s2,0(a0)

ee004884 <.LBE830>:
ee_s32 cmp_complex(list_data *a, list_data *b, core_results *res) {
ee004884:	ce06                	sw	ra,28(sp)
ee004886:	ca26                	sw	s1,20(sp)

ee004888 <.LBB868>:
        ee_u8 optype=(data>>7) & 1; /* bit 7 indicates if the function result has been cached */
ee004888:	40795793          	srai	a5,s2,0x7

ee00488c <.LBE868>:
ee_s32 cmp_complex(list_data *a, list_data *b, core_results *res) {
ee00488c:	c64e                	sw	s3,12(sp)
ee00488e:	c452                	sw	s4,8(sp)
ee004890:	cc22                	sw	s0,24(sp)
ee004892:	c256                	sw	s5,4(sp)

ee004894 <.LBB869>:
        if (optype) /* if cached, use cache */
ee004894:	0017f093          	andi	ra,a5,1

ee004898 <.LBE869>:
ee_s32 cmp_complex(list_data *a, list_data *b, core_results *res) {
ee004898:	89ae                	mv	s3,a1
ee00489a:	84b2                	mv	s1,a2

ee00489c <.LBB870>:
                return (data & 0x007f);
ee00489c:	07f97a13          	andi	s4,s2,127
        if (optype) /* if cached, use cache */
ee0048a0:	2a009263          	bnez	ra,ee004b44 <.L1858>

ee0048a4 <.LBB832>:
                ee_s16 dtype=((data>>3) & 0xf); /* bits 3-6 is specific data for the operation */
ee0048a4:	40395713          	srai	a4,s2,0x3
ee0048a8:	00f77293          	andi	t0,a4,15
                dtype |= dtype << 4; /* replicate the lower 4 bits to get an 8b value */
ee0048ac:	00429693          	slli	a3,t0,0x4
                ee_s16 flag=data & 0x7; /* bits 0-2 is type of function to perform */
ee0048b0:	00797313          	andi	t1,s2,7

ee0048b4 <.LVL1542>:
                                retval=core_bench_state(res->size,res->memblock[3],res->seed1,res->seed2,dtype,res->crc);
ee0048b4:	03865403          	lhu	s0,56(a2)
ee0048b8:	8aaa                	mv	s5,a0
                dtype |= dtype << 4; /* replicate the lower 4 bits to get an 8b value */
ee0048ba:	00d2e733          	or	a4,t0,a3

ee0048be <.LVL1543>:
                switch (flag) {
ee0048be:	000308e3          	beqz	t1,ee0050ce <.L1859>
ee0048c2:	4505                	li	a0,1

ee0048c4 <.LVL1544>:
ee0048c4:	04a305e3          	beq	t1,a0,ee00510e <.L1860>
                res->crc=crcu16(retval,res->crc);
ee0048c8:	01091793          	slli	a5,s2,0x10
ee0048cc:	0107d513          	srli	a0,a5,0x10
ee0048d0:	834a                	mv	t1,s2

ee0048d2 <.L1861>:
                x16 = (ee_u8)((data & 1) ^ ((ee_u8)crc & 1));
ee0048d2:	006443b3          	xor	t2,s0,t1

ee0048d6 <.LBE835>:
        crc=crcu8( (ee_u8) (newval)                             ,crc);
ee0048d6:	0ff37813          	andi	a6,t1,255

ee0048da <.LBB838>:
                if (x16 == 1)
ee0048da:	0013f593          	andi	a1,t2,1
                data >>= 1;
ee0048de:	00185e93          	srli	t4,a6,0x1

ee0048e2 <.LVL1547>:
                if (x16 == 1)
ee0048e2:	00145893          	srli	a7,s0,0x1
ee0048e6:	c991                	beqz	a1,ee0048fa <.L1880>

ee0048e8 <.LVL1548>:
                   crc |= 0x8000;
ee0048e8:	7a69                	lui	s4,0xffffa
ee0048ea:	001a0e13          	addi	t3,s4,1 # ffffa001 <STACK+0xffb1a51>
ee0048ee:	01c8cf33          	xor	t5,a7,t3

ee0048f2 <.LVL1549>:
ee0048f2:	010f1613          	slli	a2,t5,0x10
ee0048f6:	01065893          	srli	a7,a2,0x10

ee0048fa <.L1880>:
                x16 = (ee_u8)((data & 1) ^ ((ee_u8)crc & 1));
ee0048fa:	01d8cfb3          	xor	t6,a7,t4
                if (x16 == 1)
ee0048fe:	001ff093          	andi	ra,t6,1
                data >>= 1;
ee004902:	00285293          	srli	t0,a6,0x2

ee004906 <.LVL1551>:
                if (x16 == 1)
ee004906:	0018d393          	srli	t2,a7,0x1
ee00490a:	00008b63          	beqz	ra,ee004920 <.L1881>

ee00490e <.LVL1552>:
                   crc |= 0x8000;
ee00490e:	7769                	lui	a4,0xffffa
ee004910:	00170413          	addi	s0,a4,1 # ffffa001 <STACK+0xffb1a51>
ee004914:	0083c6b3          	xor	a3,t2,s0

ee004918 <.LVL1553>:
ee004918:	01069793          	slli	a5,a3,0x10
ee00491c:	0107d393          	srli	t2,a5,0x10

ee004920 <.L1881>:
                x16 = (ee_u8)((data & 1) ^ ((ee_u8)crc & 1));
ee004920:	0053c5b3          	xor	a1,t2,t0
                if (x16 == 1)
ee004924:	0015fe93          	andi	t4,a1,1
                data >>= 1;
ee004928:	00385a13          	srli	s4,a6,0x3

ee00492c <.LVL1555>:
                if (x16 == 1)
ee00492c:	0013df93          	srli	t6,t2,0x1
ee004930:	000e8b63          	beqz	t4,ee004946 <.L1882>

ee004934 <.LVL1556>:
                   crc |= 0x8000;
ee004934:	7e69                	lui	t3,0xffffa
ee004936:	001e0f13          	addi	t5,t3,1 # ffffa001 <STACK+0xffb1a51>
ee00493a:	01efc633          	xor	a2,t6,t5

ee00493e <.LVL1557>:
ee00493e:	01061893          	slli	a7,a2,0x10
ee004942:	0108df93          	srli	t6,a7,0x10

ee004946 <.L1882>:
                x16 = (ee_u8)((data & 1) ^ ((ee_u8)crc & 1));
ee004946:	014fc0b3          	xor	ra,t6,s4
                if (x16 == 1)
ee00494a:	0010f293          	andi	t0,ra,1
                data >>= 1;
ee00494e:	00485713          	srli	a4,a6,0x4

ee004952 <.LVL1559>:
                if (x16 == 1)
ee004952:	001fd593          	srli	a1,t6,0x1
ee004956:	00028b63          	beqz	t0,ee00496c <.L1883>

ee00495a <.LVL1560>:
                   crc |= 0x8000;
ee00495a:	7469                	lui	s0,0xffffa
ee00495c:	00140693          	addi	a3,s0,1 # ffffa001 <STACK+0xffb1a51>
ee004960:	00d5c7b3          	xor	a5,a1,a3

ee004964 <.LVL1561>:
ee004964:	01079393          	slli	t2,a5,0x10
ee004968:	0103d593          	srli	a1,t2,0x10

ee00496c <.L1883>:
                x16 = (ee_u8)((data & 1) ^ ((ee_u8)crc & 1));
ee00496c:	00e5ceb3          	xor	t4,a1,a4
                if (x16 == 1)
ee004970:	001efa13          	andi	s4,t4,1
                data >>= 1;
ee004974:	00585e13          	srli	t3,a6,0x5

ee004978 <.LVL1563>:
                if (x16 == 1)
ee004978:	0015d093          	srli	ra,a1,0x1
ee00497c:	000a0b63          	beqz	s4,ee004992 <.L1884>

ee004980 <.LVL1564>:
                   crc |= 0x8000;
ee004980:	7f69                	lui	t5,0xffffa
ee004982:	001f0613          	addi	a2,t5,1 # ffffa001 <STACK+0xffb1a51>
ee004986:	00c0c8b3          	xor	a7,ra,a2

ee00498a <.LVL1565>:
ee00498a:	01089f93          	slli	t6,a7,0x10
ee00498e:	010fd093          	srli	ra,t6,0x10

ee004992 <.L1884>:
                x16 = (ee_u8)((data & 1) ^ ((ee_u8)crc & 1));
ee004992:	01c0c2b3          	xor	t0,ra,t3
                if (x16 == 1)
ee004996:	0012f413          	andi	s0,t0,1
                data >>= 1;
ee00499a:	00685713          	srli	a4,a6,0x6

ee00499e <.LVL1567>:
                if (x16 == 1)
ee00499e:	0010de93          	srli	t4,ra,0x1
ee0049a2:	c811                	beqz	s0,ee0049b6 <.L1885>

ee0049a4 <.LVL1568>:
                   crc |= 0x8000;
ee0049a4:	76e9                	lui	a3,0xffffa
ee0049a6:	00168393          	addi	t2,a3,1 # ffffa001 <STACK+0xffb1a51>
ee0049aa:	007ec7b3          	xor	a5,t4,t2

ee0049ae <.LVL1569>:
ee0049ae:	01079593          	slli	a1,a5,0x10
ee0049b2:	0105de93          	srli	t4,a1,0x10

ee0049b6 <.L1885>:
                x16 = (ee_u8)((data & 1) ^ ((ee_u8)crc & 1));
ee0049b6:	00eeca33          	xor	s4,t4,a4
                if (x16 == 1)
ee0049ba:	001a7e13          	andi	t3,s4,1
                data >>= 1;
ee0049be:	00785813          	srli	a6,a6,0x7

ee0049c2 <.LVL1571>:
                if (x16 == 1)
ee0049c2:	001ed093          	srli	ra,t4,0x1
ee0049c6:	000e0b63          	beqz	t3,ee0049dc <.L1886>

ee0049ca <.LVL1572>:
                   crc |= 0x8000;
ee0049ca:	7f69                	lui	t5,0xffffa
ee0049cc:	001f0613          	addi	a2,t5,1 # ffffa001 <STACK+0xffb1a51>
ee0049d0:	00c0c8b3          	xor	a7,ra,a2

ee0049d4 <.LVL1573>:
ee0049d4:	01089f93          	slli	t6,a7,0x10
ee0049d8:	010fd093          	srli	ra,t6,0x10

ee0049dc <.L1886>:
                if (x16 == 1)
ee0049dc:	0010f293          	andi	t0,ra,1
ee0049e0:	0010d793          	srli	a5,ra,0x1
ee0049e4:	01028b63          	beq	t0,a6,ee0049fa <.L1887>

ee0049e8 <.LVL1575>:
                   crc |= 0x8000;
ee0049e8:	7469                	lui	s0,0xffffa
ee0049ea:	00140713          	addi	a4,s0,1 # ffffa001 <STACK+0xffb1a51>
ee0049ee:	00e7c6b3          	xor	a3,a5,a4

ee0049f2 <.LVL1576>:
ee0049f2:	01069393          	slli	t2,a3,0x10
ee0049f6:	0103d793          	srli	a5,t2,0x10

ee0049fa <.L1887>:
        crc=crcu8( (ee_u8) ((newval)>>8)        ,crc);
ee0049fa:	8121                	srli	a0,a0,0x8

ee0049fc <.LBB839>:
                x16 = (ee_u8)((data & 1) ^ ((ee_u8)crc & 1));
ee0049fc:	00f545b3          	xor	a1,a0,a5

ee004a00 <.LBE839>:
        crc=crcu8( (ee_u8) ((newval)>>8)        ,crc);
ee004a00:	0ff57e93          	andi	t4,a0,255

ee004a04 <.LBB842>:
                if (x16 == 1)
ee004a04:	0015fa13          	andi	s4,a1,1
                data >>= 1;
ee004a08:	001ede13          	srli	t3,t4,0x1

ee004a0c <.LVL1579>:
                if (x16 == 1)
ee004a0c:	0017df93          	srli	t6,a5,0x1
ee004a10:	000a0b63          	beqz	s4,ee004a26 <.L1888>

ee004a14 <.LVL1580>:
                   crc |= 0x8000;
ee004a14:	7869                	lui	a6,0xffffa
ee004a16:	00180f13          	addi	t5,a6,1 # ffffa001 <STACK+0xffb1a51>
ee004a1a:	01efc633          	xor	a2,t6,t5

ee004a1e <.LVL1581>:
ee004a1e:	01061893          	slli	a7,a2,0x10
ee004a22:	0108df93          	srli	t6,a7,0x10

ee004a26 <.L1888>:
                x16 = (ee_u8)((data & 1) ^ ((ee_u8)crc & 1));
ee004a26:	01cfc0b3          	xor	ra,t6,t3
                if (x16 == 1)
ee004a2a:	0010f293          	andi	t0,ra,1
                data >>= 1;
ee004a2e:	002ed413          	srli	s0,t4,0x2

ee004a32 <.LVL1583>:
                if (x16 == 1)
ee004a32:	001fd513          	srli	a0,t6,0x1
ee004a36:	00028b63          	beqz	t0,ee004a4c <.L1889>

ee004a3a <.LVL1584>:
                   crc |= 0x8000;
ee004a3a:	7769                	lui	a4,0xffffa
ee004a3c:	00170693          	addi	a3,a4,1 # ffffa001 <STACK+0xffb1a51>
ee004a40:	00d543b3          	xor	t2,a0,a3

ee004a44 <.LVL1585>:
ee004a44:	01039793          	slli	a5,t2,0x10
ee004a48:	0107d513          	srli	a0,a5,0x10

ee004a4c <.L1889>:
                x16 = (ee_u8)((data & 1) ^ ((ee_u8)crc & 1));
ee004a4c:	008545b3          	xor	a1,a0,s0
                if (x16 == 1)
ee004a50:	0015fa13          	andi	s4,a1,1
                data >>= 1;
ee004a54:	003ede13          	srli	t3,t4,0x3

ee004a58 <.LVL1587>:
                if (x16 == 1)
ee004a58:	00155f93          	srli	t6,a0,0x1
ee004a5c:	000a0b63          	beqz	s4,ee004a72 <.L1890>

ee004a60 <.LVL1588>:
                   crc |= 0x8000;
ee004a60:	7869                	lui	a6,0xffffa
ee004a62:	00180f13          	addi	t5,a6,1 # ffffa001 <STACK+0xffb1a51>
ee004a66:	01efc633          	xor	a2,t6,t5

ee004a6a <.LVL1589>:
ee004a6a:	01061893          	slli	a7,a2,0x10
ee004a6e:	0108df93          	srli	t6,a7,0x10

ee004a72 <.L1890>:
                x16 = (ee_u8)((data & 1) ^ ((ee_u8)crc & 1));
ee004a72:	01cfc0b3          	xor	ra,t6,t3
                if (x16 == 1)
ee004a76:	0010f293          	andi	t0,ra,1
                data >>= 1;
ee004a7a:	004ed413          	srli	s0,t4,0x4

ee004a7e <.LVL1591>:
                if (x16 == 1)
ee004a7e:	001fd513          	srli	a0,t6,0x1
ee004a82:	00028b63          	beqz	t0,ee004a98 <.L1891>

ee004a86 <.LVL1592>:
                   crc |= 0x8000;
ee004a86:	7769                	lui	a4,0xffffa
ee004a88:	00170693          	addi	a3,a4,1 # ffffa001 <STACK+0xffb1a51>
ee004a8c:	00d543b3          	xor	t2,a0,a3

ee004a90 <.LVL1593>:
ee004a90:	01039793          	slli	a5,t2,0x10
ee004a94:	0107d513          	srli	a0,a5,0x10

ee004a98 <.L1891>:
                x16 = (ee_u8)((data & 1) ^ ((ee_u8)crc & 1));
ee004a98:	008545b3          	xor	a1,a0,s0
                if (x16 == 1)
ee004a9c:	0015fa13          	andi	s4,a1,1
                data >>= 1;
ee004aa0:	005ede13          	srli	t3,t4,0x5

ee004aa4 <.LVL1595>:
                if (x16 == 1)
ee004aa4:	00155f93          	srli	t6,a0,0x1
ee004aa8:	000a0b63          	beqz	s4,ee004abe <.L1892>

ee004aac <.LVL1596>:
                   crc |= 0x8000;
ee004aac:	7869                	lui	a6,0xffffa
ee004aae:	00180f13          	addi	t5,a6,1 # ffffa001 <STACK+0xffb1a51>
ee004ab2:	01efc633          	xor	a2,t6,t5

ee004ab6 <.LVL1597>:
ee004ab6:	01061893          	slli	a7,a2,0x10
ee004aba:	0108df93          	srli	t6,a7,0x10

ee004abe <.L1892>:
                x16 = (ee_u8)((data & 1) ^ ((ee_u8)crc & 1));
ee004abe:	01cfc0b3          	xor	ra,t6,t3
                if (x16 == 1)
ee004ac2:	0010f293          	andi	t0,ra,1
                data >>= 1;
ee004ac6:	006ed413          	srli	s0,t4,0x6

ee004aca <.LVL1599>:
                if (x16 == 1)
ee004aca:	001fd513          	srli	a0,t6,0x1
ee004ace:	00028b63          	beqz	t0,ee004ae4 <.L1893>

ee004ad2 <.LVL1600>:
                   crc |= 0x8000;
ee004ad2:	7769                	lui	a4,0xffffa
ee004ad4:	00170693          	addi	a3,a4,1 # ffffa001 <STACK+0xffb1a51>
ee004ad8:	00d543b3          	xor	t2,a0,a3

ee004adc <.LVL1601>:
ee004adc:	01039793          	slli	a5,t2,0x10
ee004ae0:	0107d513          	srli	a0,a5,0x10

ee004ae4 <.L1893>:
                x16 = (ee_u8)((data & 1) ^ ((ee_u8)crc & 1));
ee004ae4:	008545b3          	xor	a1,a0,s0
                if (x16 == 1)
ee004ae8:	0015fa13          	andi	s4,a1,1
                data >>= 1;
ee004aec:	007ede93          	srli	t4,t4,0x7

ee004af0 <.LVL1603>:
                if (x16 == 1)
ee004af0:	00155893          	srli	a7,a0,0x1
ee004af4:	000a0b63          	beqz	s4,ee004b0a <.L1894>

ee004af8 <.LVL1604>:
                   crc |= 0x8000;
ee004af8:	7e69                	lui	t3,0xffffa
ee004afa:	001e0813          	addi	a6,t3,1 # ffffa001 <STACK+0xffb1a51>
ee004afe:	0108cf33          	xor	t5,a7,a6

ee004b02 <.LVL1605>:
ee004b02:	010f1613          	slli	a2,t5,0x10
ee004b06:	01065893          	srli	a7,a2,0x10

ee004b0a <.L1894>:
                x16 = (ee_u8)((data & 1) ^ ((ee_u8)crc & 1));
ee004b0a:	011ecfb3          	xor	t6,t4,a7
                if (x16 == 1)
ee004b0e:	001ff093          	andi	ra,t6,1
ee004b12:	0018d393          	srli	t2,a7,0x1
ee004b16:	00008b63          	beqz	ra,ee004b2c <.L1895>

ee004b1a <.LVL1607>:
                   crc |= 0x8000;
ee004b1a:	72e9                	lui	t0,0xffffa
ee004b1c:	00128413          	addi	s0,t0,1 # ffffa001 <STACK+0xffb1a51>
ee004b20:	0083c733          	xor	a4,t2,s0
ee004b24:	01071693          	slli	a3,a4,0x10
ee004b28:	0106d393          	srli	t2,a3,0x10

ee004b2c <.L1895>:
                retval &= 0x007f;
ee004b2c:	07f37a13          	andi	s4,t1,127
                *pdata = (data & 0xff00) | 0x0080 | retval; /* cache the result */
ee004b30:	f0097913          	andi	s2,s2,-256

ee004b34 <.LVL1609>:
ee004b34:	012a6333          	or	t1,s4,s2

ee004b38 <.LVL1610>:
                res->crc=crcu16(retval,res->crc);
ee004b38:	02749c23          	sh	t2,56(s1)

ee004b3c <.LVL1611>:
                *pdata = (data & 0xff00) | 0x0080 | retval; /* cache the result */
ee004b3c:	08036793          	ori	a5,t1,128
ee004b40:	00fa9023          	sh	a5,0(s5)

ee004b44 <.L1858>:
        ee_s16 data=*pdata;
ee004b44:	00099a83          	lh	s5,0(s3)

ee004b48 <.LVL1613>:
        ee_u8 optype=(data>>7) & 1; /* bit 7 indicates if the function result has been cached */
ee004b48:	407ad513          	srai	a0,s5,0x7
        if (optype) /* if cached, use cache */
ee004b4c:	00157593          	andi	a1,a0,1
                return (data & 0x007f);
ee004b50:	07faf893          	andi	a7,s5,127
        if (optype) /* if cached, use cache */
ee004b54:	50059c63          	bnez	a1,ee00506c <.L1897>

ee004b58 <.LBB873>:
                ee_s16 dtype=((data>>3) & 0xf); /* bits 3-6 is specific data for the operation */
ee004b58:	403ade93          	srai	t4,s5,0x3
ee004b5c:	00fefe13          	andi	t3,t4,15
                dtype |= dtype << 4; /* replicate the lower 4 bits to get an 8b value */
ee004b60:	004e1813          	slli	a6,t3,0x4
                ee_s16 flag=data & 0x7; /* bits 0-2 is type of function to perform */
ee004b64:	007aff13          	andi	t5,s5,7

ee004b68 <.LVL1614>:
                                retval=core_bench_state(res->size,res->memblock[3],res->seed1,res->seed2,dtype,res->crc);
ee004b68:	0384d403          	lhu	s0,56(s1)
                dtype |= dtype << 4; /* replicate the lower 4 bits to get an 8b value */
ee004b6c:	010e6733          	or	a4,t3,a6

ee004b70 <.LVL1615>:
                switch (flag) {
ee004b70:	500f0f63          	beqz	t5,ee00508e <.L1898>
ee004b74:	4085                	li	ra,1
ee004b76:	501f1663          	bne	t5,ra,ee005082 <.L2128>

ee004b7a <.LBB874>:
        crc=crc16(matrix_test(N,C,A,B,val),crc);
ee004b7a:	5894                	lw	a3,48(s1)
ee004b7c:	54d0                	lw	a2,44(s1)
ee004b7e:	58cc                	lw	a1,52(s1)
ee004b80:	5488                	lw	a0,40(s1)
ee004b82:	b87fb0ef          	jal	ra,ee000708 <matrix_test>

ee004b86 <.LBB876>:
                x16 = (ee_u8)((data & 1) ^ ((ee_u8)crc & 1));
ee004b86:	00854733          	xor	a4,a0,s0

ee004b8a <.LBE878>:
        return crcu16((ee_u16)newval, crc);
ee004b8a:	01051913          	slli	s2,a0,0x10

ee004b8e <.LBB892>:
        crc=crcu8( (ee_u8) (newval)                             ,crc);
ee004b8e:	0ff57693          	andi	a3,a0,255

ee004b92 <.LBB884>:
                if (x16 == 1)
ee004b92:	00177393          	andi	t2,a4,1

ee004b96 <.LBE884>:
        return crcu16((ee_u16)newval, crc);
ee004b96:	01095313          	srli	t1,s2,0x10

ee004b9a <.LBB885>:
                data >>= 1;
ee004b9a:	0016d513          	srli	a0,a3,0x1

ee004b9e <.LVL1619>:
                if (x16 == 1)
ee004b9e:	00145e13          	srli	t3,s0,0x1
ee004ba2:	00038b63          	beqz	t2,ee004bb8 <.L1903>

ee004ba6 <.LVL1620>:
                   crc |= 0x8000;
ee004ba6:	7469                	lui	s0,0xffffa

ee004ba8 <.LVL1621>:
ee004ba8:	00140593          	addi	a1,s0,1 # ffffa001 <STACK+0xffb1a51>
ee004bac:	00be47b3          	xor	a5,t3,a1

ee004bb0 <.LVL1622>:
ee004bb0:	01079e93          	slli	t4,a5,0x10
ee004bb4:	010ede13          	srli	t3,t4,0x10

ee004bb8 <.L1903>:
                x16 = (ee_u8)((data & 1) ^ ((ee_u8)crc & 1));
ee004bb8:	01c54833          	xor	a6,a0,t3
                if (x16 == 1)
ee004bbc:	00187f13          	andi	t5,a6,1
                data >>= 1;
ee004bc0:	0026d613          	srli	a2,a3,0x2

ee004bc4 <.LVL1624>:
                if (x16 == 1)
ee004bc4:	001e5713          	srli	a4,t3,0x1
ee004bc8:	000f0b63          	beqz	t5,ee004bde <.L1904>

ee004bcc <.LVL1625>:
                   crc |= 0x8000;
ee004bcc:	78e9                	lui	a7,0xffffa
ee004bce:	00188f93          	addi	t6,a7,1 # ffffa001 <STACK+0xffb1a51>
ee004bd2:	01f742b3          	xor	t0,a4,t6

ee004bd6 <.LVL1626>:
ee004bd6:	01029093          	slli	ra,t0,0x10
ee004bda:	0100d713          	srli	a4,ra,0x10

ee004bde <.L1904>:
                x16 = (ee_u8)((data & 1) ^ ((ee_u8)crc & 1));
ee004bde:	00e643b3          	xor	t2,a2,a4
                if (x16 == 1)
ee004be2:	0013f913          	andi	s2,t2,1
                data >>= 1;
ee004be6:	0036d513          	srli	a0,a3,0x3

ee004bea <.LVL1628>:
                if (x16 == 1)
ee004bea:	00175e13          	srli	t3,a4,0x1
ee004bee:	00090b63          	beqz	s2,ee004c04 <.L1905>

ee004bf2 <.LVL1629>:
                   crc |= 0x8000;
ee004bf2:	7469                	lui	s0,0xffffa
ee004bf4:	00140593          	addi	a1,s0,1 # ffffa001 <STACK+0xffb1a51>
ee004bf8:	00be47b3          	xor	a5,t3,a1

ee004bfc <.LVL1630>:
ee004bfc:	01079e93          	slli	t4,a5,0x10
ee004c00:	010ede13          	srli	t3,t4,0x10

ee004c04 <.L1905>:
                x16 = (ee_u8)((data & 1) ^ ((ee_u8)crc & 1));
ee004c04:	01c54833          	xor	a6,a0,t3
                if (x16 == 1)
ee004c08:	00187f13          	andi	t5,a6,1
                data >>= 1;
ee004c0c:	0046d613          	srli	a2,a3,0x4

ee004c10 <.LVL1632>:
                if (x16 == 1)
ee004c10:	001e5713          	srli	a4,t3,0x1
ee004c14:	000f0b63          	beqz	t5,ee004c2a <.L1906>

ee004c18 <.LVL1633>:
                   crc |= 0x8000;
ee004c18:	78e9                	lui	a7,0xffffa
ee004c1a:	00188f93          	addi	t6,a7,1 # ffffa001 <STACK+0xffb1a51>
ee004c1e:	01f742b3          	xor	t0,a4,t6

ee004c22 <.LVL1634>:
ee004c22:	01029093          	slli	ra,t0,0x10
ee004c26:	0100d713          	srli	a4,ra,0x10

ee004c2a <.L1906>:
                x16 = (ee_u8)((data & 1) ^ ((ee_u8)crc & 1));
ee004c2a:	00e643b3          	xor	t2,a2,a4
                if (x16 == 1)
ee004c2e:	0013f913          	andi	s2,t2,1
                data >>= 1;
ee004c32:	0056d513          	srli	a0,a3,0x5

ee004c36 <.LVL1636>:
                if (x16 == 1)
ee004c36:	00175e13          	srli	t3,a4,0x1
ee004c3a:	00090b63          	beqz	s2,ee004c50 <.L1907>

ee004c3e <.LVL1637>:
                   crc |= 0x8000;
ee004c3e:	7469                	lui	s0,0xffffa
ee004c40:	00140593          	addi	a1,s0,1 # ffffa001 <STACK+0xffb1a51>
ee004c44:	00be47b3          	xor	a5,t3,a1

ee004c48 <.LVL1638>:
ee004c48:	01079e93          	slli	t4,a5,0x10
ee004c4c:	010ede13          	srli	t3,t4,0x10

ee004c50 <.L1907>:
                x16 = (ee_u8)((data & 1) ^ ((ee_u8)crc & 1));
ee004c50:	00ae4833          	xor	a6,t3,a0
                if (x16 == 1)
ee004c54:	00187f13          	andi	t5,a6,1
                data >>= 1;
ee004c58:	0066d613          	srli	a2,a3,0x6

ee004c5c <.LVL1640>:
                if (x16 == 1)
ee004c5c:	001e5713          	srli	a4,t3,0x1
ee004c60:	000f0b63          	beqz	t5,ee004c76 <.L1908>

ee004c64 <.LVL1641>:
                   crc |= 0x8000;
ee004c64:	78e9                	lui	a7,0xffffa
ee004c66:	00188f93          	addi	t6,a7,1 # ffffa001 <STACK+0xffb1a51>
ee004c6a:	01f742b3          	xor	t0,a4,t6

ee004c6e <.LVL1642>:
ee004c6e:	01029093          	slli	ra,t0,0x10
ee004c72:	0100d713          	srli	a4,ra,0x10

ee004c76 <.L1908>:
                x16 = (ee_u8)((data & 1) ^ ((ee_u8)crc & 1));
ee004c76:	00c743b3          	xor	t2,a4,a2
                if (x16 == 1)
ee004c7a:	0013f913          	andi	s2,t2,1
                data >>= 1;
ee004c7e:	829d                	srli	a3,a3,0x7

ee004c80 <.LVL1644>:
                if (x16 == 1)
ee004c80:	00175e93          	srli	t4,a4,0x1
ee004c84:	00090b63          	beqz	s2,ee004c9a <.L1909>

ee004c88 <.LVL1645>:
                   crc |= 0x8000;
ee004c88:	7569                	lui	a0,0xffffa
ee004c8a:	00150413          	addi	s0,a0,1 # ffffa001 <STACK+0xffb1a51>
ee004c8e:	008ec5b3          	xor	a1,t4,s0

ee004c92 <.LVL1646>:
ee004c92:	01059793          	slli	a5,a1,0x10
ee004c96:	0107de93          	srli	t4,a5,0x10

ee004c9a <.L1909>:
                if (x16 == 1)
ee004c9a:	001efe13          	andi	t3,t4,1
ee004c9e:	001edf93          	srli	t6,t4,0x1
ee004ca2:	00de0b63          	beq	t3,a3,ee004cb8 <.L1910>

ee004ca6 <.LVL1648>:
                   crc |= 0x8000;
ee004ca6:	7869                	lui	a6,0xffffa
ee004ca8:	00180f13          	addi	t5,a6,1 # ffffa001 <STACK+0xffb1a51>
ee004cac:	01efc633          	xor	a2,t6,t5

ee004cb0 <.LVL1649>:
ee004cb0:	01061893          	slli	a7,a2,0x10
ee004cb4:	0108df93          	srli	t6,a7,0x10

ee004cb8 <.L1910>:
        crc=crcu8( (ee_u8) ((newval)>>8)        ,crc);
ee004cb8:	00835293          	srli	t0,t1,0x8

ee004cbc <.LBB886>:
                x16 = (ee_u8)((data & 1) ^ ((ee_u8)crc & 1));
ee004cbc:	01f2c0b3          	xor	ra,t0,t6
                if (x16 == 1)
ee004cc0:	0010f393          	andi	t2,ra,1

ee004cc4 <.LBE886>:
        crc=crcu8( (ee_u8) ((newval)>>8)        ,crc);
ee004cc4:	00835913          	srli	s2,t1,0x8

ee004cc8 <.LBB889>:
                data >>= 1;
ee004cc8:	001fd593          	srli	a1,t6,0x1
ee004ccc:	00935313          	srli	t1,t1,0x9

ee004cd0 <.LVL1652>:
                if (x16 == 1)
ee004cd0:	00038b63          	beqz	t2,ee004ce6 <.L1911>

ee004cd4 <.LVL1653>:
                   crc |= 0x8000;
ee004cd4:	7769                	lui	a4,0xffffa
ee004cd6:	00170693          	addi	a3,a4,1 # ffffa001 <STACK+0xffb1a51>
ee004cda:	00d5c533          	xor	a0,a1,a3

ee004cde <.LVL1654>:
ee004cde:	01051413          	slli	s0,a0,0x10
ee004ce2:	01045593          	srli	a1,s0,0x10

ee004ce6 <.L1911>:
                x16 = (ee_u8)((data & 1) ^ ((ee_u8)crc & 1));
ee004ce6:	00b347b3          	xor	a5,t1,a1
                if (x16 == 1)
ee004cea:	0017fe93          	andi	t4,a5,1
                data >>= 1;
ee004cee:	00295e13          	srli	t3,s2,0x2

ee004cf2 <.LVL1656>:
                if (x16 == 1)
ee004cf2:	0015df93          	srli	t6,a1,0x1
ee004cf6:	000e8b63          	beqz	t4,ee004d0c <.L1912>

ee004cfa <.LVL1657>:
                   crc |= 0x8000;
ee004cfa:	7869                	lui	a6,0xffffa
ee004cfc:	00180f13          	addi	t5,a6,1 # ffffa001 <STACK+0xffb1a51>
ee004d00:	01efc633          	xor	a2,t6,t5

ee004d04 <.LVL1658>:
ee004d04:	01061893          	slli	a7,a2,0x10
ee004d08:	0108df93          	srli	t6,a7,0x10

ee004d0c <.L1912>:
                x16 = (ee_u8)((data & 1) ^ ((ee_u8)crc & 1));
ee004d0c:	01fe42b3          	xor	t0,t3,t6
                if (x16 == 1)
ee004d10:	0012f093          	andi	ra,t0,1
                data >>= 1;
ee004d14:	00395393          	srli	t2,s2,0x3

ee004d18 <.LVL1660>:
                if (x16 == 1)
ee004d18:	001fd413          	srli	s0,t6,0x1
ee004d1c:	00008b63          	beqz	ra,ee004d32 <.L1913>

ee004d20 <.LVL1661>:
                   crc |= 0x8000;
ee004d20:	7369                	lui	t1,0xffffa
ee004d22:	00130713          	addi	a4,t1,1 # ffffa001 <STACK+0xffb1a51>
ee004d26:	00e446b3          	xor	a3,s0,a4

ee004d2a <.LVL1662>:
ee004d2a:	01069513          	slli	a0,a3,0x10
ee004d2e:	01055413          	srli	s0,a0,0x10

ee004d32 <.L1913>:
                x16 = (ee_u8)((data & 1) ^ ((ee_u8)crc & 1));
ee004d32:	0083c5b3          	xor	a1,t2,s0
                if (x16 == 1)
ee004d36:	0015fe93          	andi	t4,a1,1
                data >>= 1;
ee004d3a:	00495e13          	srli	t3,s2,0x4

ee004d3e <.LVL1664>:
                if (x16 == 1)
ee004d3e:	00145893          	srli	a7,s0,0x1
ee004d42:	000e8b63          	beqz	t4,ee004d58 <.L1914>

ee004d46 <.LVL1665>:
                   crc |= 0x8000;
ee004d46:	7869                	lui	a6,0xffffa
ee004d48:	00180f13          	addi	t5,a6,1 # ffffa001 <STACK+0xffb1a51>
ee004d4c:	01e8c7b3          	xor	a5,a7,t5

ee004d50 <.LVL1666>:
ee004d50:	01079613          	slli	a2,a5,0x10
ee004d54:	01065893          	srli	a7,a2,0x10

ee004d58 <.L1914>:
                x16 = (ee_u8)((data & 1) ^ ((ee_u8)crc & 1));
ee004d58:	011e4fb3          	xor	t6,t3,a7
                if (x16 == 1)
ee004d5c:	001ff293          	andi	t0,t6,1
                data >>= 1;
ee004d60:	00595093          	srli	ra,s2,0x5

ee004d64 <.LVL1668>:
                if (x16 == 1)
ee004d64:	0018d513          	srli	a0,a7,0x1
ee004d68:	00028b63          	beqz	t0,ee004d7e <.L1915>

ee004d6c <.LVL1669>:
                   crc |= 0x8000;
ee004d6c:	73e9                	lui	t2,0xffffa
ee004d6e:	00138313          	addi	t1,t2,1 # ffffa001 <STACK+0xffb1a51>
ee004d72:	00654733          	xor	a4,a0,t1

ee004d76 <.LVL1670>:
ee004d76:	01071693          	slli	a3,a4,0x10
ee004d7a:	0106d513          	srli	a0,a3,0x10

ee004d7e <.L1915>:
                x16 = (ee_u8)((data & 1) ^ ((ee_u8)crc & 1));
ee004d7e:	00a0c433          	xor	s0,ra,a0
                if (x16 == 1)
ee004d82:	00147593          	andi	a1,s0,1
                data >>= 1;
ee004d86:	00695e93          	srli	t4,s2,0x6

ee004d8a <.LVL1672>:
                if (x16 == 1)
ee004d8a:	00155893          	srli	a7,a0,0x1
ee004d8e:	c991                	beqz	a1,ee004da2 <.L1916>

ee004d90 <.LVL1673>:
                   crc |= 0x8000;
ee004d90:	7e69                	lui	t3,0xffffa
ee004d92:	001e0813          	addi	a6,t3,1 # ffffa001 <STACK+0xffb1a51>
ee004d96:	0108cf33          	xor	t5,a7,a6

ee004d9a <.LVL1674>:
ee004d9a:	010f1793          	slli	a5,t5,0x10
ee004d9e:	0107d893          	srli	a7,a5,0x10

ee004da2 <.L1916>:
                x16 = (ee_u8)((data & 1) ^ ((ee_u8)crc & 1));
ee004da2:	011ec633          	xor	a2,t4,a7
                if (x16 == 1)
ee004da6:	00167f93          	andi	t6,a2,1
                data >>= 1;
ee004daa:	00795913          	srli	s2,s2,0x7

ee004dae <.LVL1676>:
                if (x16 == 1)
ee004dae:	0018d713          	srli	a4,a7,0x1
ee004db2:	000f8b63          	beqz	t6,ee004dc8 <.L1917>

ee004db6 <.LVL1677>:
                   crc |= 0x8000;
ee004db6:	72e9                	lui	t0,0xffffa
ee004db8:	00128093          	addi	ra,t0,1 # ffffa001 <STACK+0xffb1a51>
ee004dbc:	001743b3          	xor	t2,a4,ra

ee004dc0 <.LVL1678>:
ee004dc0:	01039313          	slli	t1,t2,0x10
ee004dc4:	01035713          	srli	a4,t1,0x10

ee004dc8 <.L1917>:
                if (x16 == 1)
ee004dc8:	00177513          	andi	a0,a4,1
ee004dcc:	00175e13          	srli	t3,a4,0x1
ee004dd0:	01250b63          	beq	a0,s2,ee004de6 <.L1918>

ee004dd4 <.LVL1680>:
                   crc |= 0x8000;
ee004dd4:	7469                	lui	s0,0xffffa
ee004dd6:	00140593          	addi	a1,s0,1 # ffffa001 <STACK+0xffb1a51>
ee004dda:	00be46b3          	xor	a3,t3,a1
ee004dde:	01069e93          	slli	t4,a3,0x10
ee004de2:	010ede13          	srli	t3,t4,0x10

ee004de6 <.L1918>:
                                if (res->crcmatrix==0)
ee004de6:	03c4d803          	lhu	a6,60(s1)
                                retval=core_bench_matrix(&(res->mat),dtype,res->crc);
ee004dea:	010e1f13          	slli	t5,t3,0x10
                res->crc=crcu16(retval,res->crc);
ee004dee:	0384d403          	lhu	s0,56(s1)
                                retval=core_bench_matrix(&(res->mat),dtype,res->crc);
ee004df2:	410f5893          	srai	a7,t5,0x10

ee004df6 <.LVL1682>:
                                if (res->crcmatrix==0)
ee004df6:	00081463          	bnez	a6,ee004dfe <.L1900>
                                        res->crcmatrix=retval;
ee004dfa:	03c49e23          	sh	t3,60(s1)

ee004dfe <.L1900>:
                x16 = (ee_u8)((data & 1) ^ ((ee_u8)crc & 1));
ee004dfe:	0088cfb3          	xor	t6,a7,s0

ee004e02 <.LBE896>:
        crc=crcu8( (ee_u8) (newval)                             ,crc);
ee004e02:	0ff8f613          	andi	a2,a7,255

ee004e06 <.LBB899>:
                if (x16 == 1)
ee004e06:	001ff913          	andi	s2,t6,1
                data >>= 1;
ee004e0a:	00165293          	srli	t0,a2,0x1

ee004e0e <.LVL1685>:
                if (x16 == 1)
ee004e0e:	00145693          	srli	a3,s0,0x1
ee004e12:	00090b63          	beqz	s2,ee004e28 <.L1919>

ee004e16 <.LVL1686>:
                   crc |= 0x8000;
ee004e16:	70e9                	lui	ra,0xffffa
ee004e18:	00108393          	addi	t2,ra,1 # ffffa001 <STACK+0xffb1a51>
ee004e1c:	0076c333          	xor	t1,a3,t2

ee004e20 <.LVL1687>:
ee004e20:	01031713          	slli	a4,t1,0x10
ee004e24:	01075693          	srli	a3,a4,0x10

ee004e28 <.L1919>:
                x16 = (ee_u8)((data & 1) ^ ((ee_u8)crc & 1));
ee004e28:	0056c533          	xor	a0,a3,t0
                if (x16 == 1)
ee004e2c:	00157e93          	andi	t4,a0,1
                data >>= 1;
ee004e30:	00265593          	srli	a1,a2,0x2

ee004e34 <.LVL1689>:
                if (x16 == 1)
ee004e34:	0016df93          	srli	t6,a3,0x1
ee004e38:	000e8b63          	beqz	t4,ee004e4e <.L1920>

ee004e3c <.LVL1690>:
                   crc |= 0x8000;
ee004e3c:	7869                	lui	a6,0xffffa
ee004e3e:	00180413          	addi	s0,a6,1 # ffffa001 <STACK+0xffb1a51>
ee004e42:	008fcf33          	xor	t5,t6,s0

ee004e46 <.LVL1691>:
ee004e46:	010f1793          	slli	a5,t5,0x10
ee004e4a:	0107df93          	srli	t6,a5,0x10

ee004e4e <.L1920>:
                x16 = (ee_u8)((data & 1) ^ ((ee_u8)crc & 1));
ee004e4e:	00bfc933          	xor	s2,t6,a1
                if (x16 == 1)
ee004e52:	00197293          	andi	t0,s2,1
                data >>= 1;
ee004e56:	00365093          	srli	ra,a2,0x3

ee004e5a <.LVL1693>:
                if (x16 == 1)
ee004e5a:	001fde93          	srli	t4,t6,0x1
ee004e5e:	00028b63          	beqz	t0,ee004e74 <.L1921>

ee004e62 <.LVL1694>:
                   crc |= 0x8000;
ee004e62:	73e9                	lui	t2,0xffffa
ee004e64:	00138313          	addi	t1,t2,1 # ffffa001 <STACK+0xffb1a51>
ee004e68:	006ec733          	xor	a4,t4,t1

ee004e6c <.LVL1695>:
ee004e6c:	01071693          	slli	a3,a4,0x10
ee004e70:	0106de93          	srli	t4,a3,0x10

ee004e74 <.L1921>:
                x16 = (ee_u8)((data & 1) ^ ((ee_u8)crc & 1));
ee004e74:	001ec533          	xor	a0,t4,ra
                if (x16 == 1)
ee004e78:	00157813          	andi	a6,a0,1
                data >>= 1;
ee004e7c:	00465593          	srli	a1,a2,0x4

ee004e80 <.LVL1697>:
                if (x16 == 1)
ee004e80:	001ed913          	srli	s2,t4,0x1
ee004e84:	00080b63          	beqz	a6,ee004e9a <.L1922>

ee004e88 <.LVL1698>:
                   crc |= 0x8000;
ee004e88:	7469                	lui	s0,0xffffa
ee004e8a:	00140f13          	addi	t5,s0,1 # ffffa001 <STACK+0xffb1a51>
ee004e8e:	01e947b3          	xor	a5,s2,t5

ee004e92 <.LVL1699>:
ee004e92:	01079f93          	slli	t6,a5,0x10
ee004e96:	010fd913          	srli	s2,t6,0x10

ee004e9a <.L1922>:
                x16 = (ee_u8)((data & 1) ^ ((ee_u8)crc & 1));
ee004e9a:	00b942b3          	xor	t0,s2,a1
                if (x16 == 1)
ee004e9e:	0012f093          	andi	ra,t0,1
                data >>= 1;
ee004ea2:	00565393          	srli	t2,a2,0x5

ee004ea6 <.LVL1701>:
                if (x16 == 1)
ee004ea6:	00195813          	srli	a6,s2,0x1
ee004eaa:	00008b63          	beqz	ra,ee004ec0 <.L1923>

ee004eae <.LVL1702>:
                   crc |= 0x8000;
ee004eae:	7369                	lui	t1,0xffffa
ee004eb0:	00130713          	addi	a4,t1,1 # ffffa001 <STACK+0xffb1a51>
ee004eb4:	00e846b3          	xor	a3,a6,a4

ee004eb8 <.LVL1703>:
ee004eb8:	01069e93          	slli	t4,a3,0x10
ee004ebc:	010ed813          	srli	a6,t4,0x10

ee004ec0 <.L1923>:
                x16 = (ee_u8)((data & 1) ^ ((ee_u8)crc & 1));
ee004ec0:	00784533          	xor	a0,a6,t2
                if (x16 == 1)
ee004ec4:	00157413          	andi	s0,a0,1
                data >>= 1;
ee004ec8:	00665593          	srli	a1,a2,0x6

ee004ecc <.LVL1705>:
                if (x16 == 1)
ee004ecc:	00185293          	srli	t0,a6,0x1
ee004ed0:	c811                	beqz	s0,ee004ee4 <.L1924>

ee004ed2 <.LVL1706>:
                   crc |= 0x8000;
ee004ed2:	7f69                	lui	t5,0xffffa
ee004ed4:	001f0f93          	addi	t6,t5,1 # ffffa001 <STACK+0xffb1a51>
ee004ed8:	01f2c7b3          	xor	a5,t0,t6

ee004edc <.LVL1707>:
ee004edc:	01079913          	slli	s2,a5,0x10
ee004ee0:	01095293          	srli	t0,s2,0x10

ee004ee4 <.L1924>:
                x16 = (ee_u8)((data & 1) ^ ((ee_u8)crc & 1));
ee004ee4:	0055c0b3          	xor	ra,a1,t0
                if (x16 == 1)
ee004ee8:	0010f393          	andi	t2,ra,1
                data >>= 1;
ee004eec:	821d                	srli	a2,a2,0x7

ee004eee <.LVL1709>:
                if (x16 == 1)
ee004eee:	0012d813          	srli	a6,t0,0x1
ee004ef2:	00038b63          	beqz	t2,ee004f08 <.L1925>

ee004ef6 <.LVL1710>:
                   crc |= 0x8000;
ee004ef6:	7369                	lui	t1,0xffffa
ee004ef8:	00130713          	addi	a4,t1,1 # ffffa001 <STACK+0xffb1a51>
ee004efc:	00e846b3          	xor	a3,a6,a4

ee004f00 <.LVL1711>:
ee004f00:	01069e93          	slli	t4,a3,0x10
ee004f04:	010ed813          	srli	a6,t4,0x10

ee004f08 <.L1925>:
                if (x16 == 1)
ee004f08:	00187513          	andi	a0,a6,1
ee004f0c:	00185793          	srli	a5,a6,0x1
ee004f10:	00c50b63          	beq	a0,a2,ee004f26 <.L1926>

ee004f14 <.LVL1713>:
                   crc |= 0x8000;
ee004f14:	7469                	lui	s0,0xffffa
ee004f16:	00140593          	addi	a1,s0,1 # ffffa001 <STACK+0xffb1a51>
ee004f1a:	00b7cf33          	xor	t5,a5,a1

ee004f1e <.LVL1714>:
ee004f1e:	010f1f93          	slli	t6,t5,0x10
ee004f22:	010fd793          	srli	a5,t6,0x10

ee004f26 <.L1926>:
        crc=crcu8( (ee_u8) ((newval)>>8)        ,crc);
ee004f26:	008e5e13          	srli	t3,t3,0x8

ee004f2a <.LBB900>:
                x16 = (ee_u8)((data & 1) ^ ((ee_u8)crc & 1));
ee004f2a:	00fe4933          	xor	s2,t3,a5

ee004f2e <.LBE900>:
        crc=crcu8( (ee_u8) ((newval)>>8)        ,crc);
ee004f2e:	0ffe7293          	andi	t0,t3,255

ee004f32 <.LBB903>:
                if (x16 == 1)
ee004f32:	00197093          	andi	ra,s2,1
                data >>= 1;
ee004f36:	0012d393          	srli	t2,t0,0x1

ee004f3a <.LVL1717>:
                if (x16 == 1)
ee004f3a:	0017de93          	srli	t4,a5,0x1
ee004f3e:	00008b63          	beqz	ra,ee004f54 <.L1927>

ee004f42 <.LVL1718>:
                   crc |= 0x8000;
ee004f42:	7669                	lui	a2,0xffffa
ee004f44:	00160313          	addi	t1,a2,1 # ffffa001 <STACK+0xffb1a51>
ee004f48:	006ec733          	xor	a4,t4,t1

ee004f4c <.LVL1719>:
ee004f4c:	01071693          	slli	a3,a4,0x10
ee004f50:	0106de93          	srli	t4,a3,0x10

ee004f54 <.L1927>:
                x16 = (ee_u8)((data & 1) ^ ((ee_u8)crc & 1));
ee004f54:	01d3c833          	xor	a6,t2,t4
                if (x16 == 1)
ee004f58:	00187513          	andi	a0,a6,1
                data >>= 1;
ee004f5c:	0022d413          	srli	s0,t0,0x2

ee004f60 <.LVL1721>:
                if (x16 == 1)
ee004f60:	001ede13          	srli	t3,t4,0x1
ee004f64:	c911                	beqz	a0,ee004f78 <.L1928>

ee004f66 <.LVL1722>:
                   crc |= 0x8000;
ee004f66:	75e9                	lui	a1,0xffffa
ee004f68:	00158f13          	addi	t5,a1,1 # ffffa001 <STACK+0xffb1a51>
ee004f6c:	01ee4fb3          	xor	t6,t3,t5

ee004f70 <.LVL1723>:
ee004f70:	010f9793          	slli	a5,t6,0x10
ee004f74:	0107de13          	srli	t3,a5,0x10

ee004f78 <.L1928>:
                x16 = (ee_u8)((data & 1) ^ ((ee_u8)crc & 1));
ee004f78:	008e4933          	xor	s2,t3,s0
                if (x16 == 1)
ee004f7c:	00197093          	andi	ra,s2,1
                data >>= 1;
ee004f80:	0032d393          	srli	t2,t0,0x3

ee004f84 <.LVL1725>:
                if (x16 == 1)
ee004f84:	001e5e93          	srli	t4,t3,0x1
ee004f88:	00008b63          	beqz	ra,ee004f9e <.L1929>

ee004f8c <.LVL1726>:
                   crc |= 0x8000;
ee004f8c:	7669                	lui	a2,0xffffa
ee004f8e:	00160313          	addi	t1,a2,1 # ffffa001 <STACK+0xffb1a51>
ee004f92:	006ec733          	xor	a4,t4,t1

ee004f96 <.LVL1727>:
ee004f96:	01071693          	slli	a3,a4,0x10
ee004f9a:	0106de93          	srli	t4,a3,0x10

ee004f9e <.L1929>:
                x16 = (ee_u8)((data & 1) ^ ((ee_u8)crc & 1));
ee004f9e:	01d3c833          	xor	a6,t2,t4
                if (x16 == 1)
ee004fa2:	00187513          	andi	a0,a6,1
                data >>= 1;
ee004fa6:	0042d413          	srli	s0,t0,0x4

ee004faa <.LVL1729>:
                if (x16 == 1)
ee004faa:	001ede13          	srli	t3,t4,0x1
ee004fae:	c911                	beqz	a0,ee004fc2 <.L1930>

ee004fb0 <.LVL1730>:
                   crc |= 0x8000;
ee004fb0:	75e9                	lui	a1,0xffffa
ee004fb2:	00158f13          	addi	t5,a1,1 # ffffa001 <STACK+0xffb1a51>
ee004fb6:	01ee4fb3          	xor	t6,t3,t5

ee004fba <.LVL1731>:
ee004fba:	010f9793          	slli	a5,t6,0x10
ee004fbe:	0107de13          	srli	t3,a5,0x10

ee004fc2 <.L1930>:
                x16 = (ee_u8)((data & 1) ^ ((ee_u8)crc & 1));
ee004fc2:	01c44933          	xor	s2,s0,t3
                if (x16 == 1)
ee004fc6:	00197093          	andi	ra,s2,1
                data >>= 1;
ee004fca:	0052d393          	srli	t2,t0,0x5

ee004fce <.LVL1733>:
                if (x16 == 1)
ee004fce:	001e5e93          	srli	t4,t3,0x1
ee004fd2:	00008b63          	beqz	ra,ee004fe8 <.L1931>

ee004fd6 <.LVL1734>:
                   crc |= 0x8000;
ee004fd6:	7669                	lui	a2,0xffffa
ee004fd8:	00160313          	addi	t1,a2,1 # ffffa001 <STACK+0xffb1a51>
ee004fdc:	006ec733          	xor	a4,t4,t1

ee004fe0 <.LVL1735>:
ee004fe0:	01071693          	slli	a3,a4,0x10
ee004fe4:	0106de93          	srli	t4,a3,0x10

ee004fe8 <.L1931>:
                x16 = (ee_u8)((data & 1) ^ ((ee_u8)crc & 1));
ee004fe8:	01d3c833          	xor	a6,t2,t4
                if (x16 == 1)
ee004fec:	00187513          	andi	a0,a6,1
                data >>= 1;
ee004ff0:	0062d413          	srli	s0,t0,0x6

ee004ff4 <.LVL1737>:
                if (x16 == 1)
ee004ff4:	001ede13          	srli	t3,t4,0x1
ee004ff8:	c911                	beqz	a0,ee00500c <.L1932>

ee004ffa <.LVL1738>:
                   crc |= 0x8000;
ee004ffa:	75e9                	lui	a1,0xffffa
ee004ffc:	00158f13          	addi	t5,a1,1 # ffffa001 <STACK+0xffb1a51>
ee005000:	01ee4fb3          	xor	t6,t3,t5

ee005004 <.LVL1739>:
ee005004:	010f9793          	slli	a5,t6,0x10
ee005008:	0107de13          	srli	t3,a5,0x10

ee00500c <.L1932>:
                x16 = (ee_u8)((data & 1) ^ ((ee_u8)crc & 1));
ee00500c:	01c44933          	xor	s2,s0,t3
                if (x16 == 1)
ee005010:	00197093          	andi	ra,s2,1
                data >>= 1;
ee005014:	0072d293          	srli	t0,t0,0x7

ee005018 <.LVL1741>:
                if (x16 == 1)
ee005018:	001e5e93          	srli	t4,t3,0x1
ee00501c:	00008b63          	beqz	ra,ee005032 <.L1933>

ee005020 <.LVL1742>:
                   crc |= 0x8000;
ee005020:	73e9                	lui	t2,0xffffa
ee005022:	00138613          	addi	a2,t2,1 # ffffa001 <STACK+0xffb1a51>
ee005026:	00cec333          	xor	t1,t4,a2

ee00502a <.LVL1743>:
ee00502a:	01031713          	slli	a4,t1,0x10
ee00502e:	01075e93          	srli	t4,a4,0x10

ee005032 <.L1933>:
                x16 = (ee_u8)((data & 1) ^ ((ee_u8)crc & 1));
ee005032:	01d2c6b3          	xor	a3,t0,t4
                if (x16 == 1)
ee005036:	0016f813          	andi	a6,a3,1
ee00503a:	001edf93          	srli	t6,t4,0x1
ee00503e:	00080b63          	beqz	a6,ee005054 <.L1934>

ee005042 <.LVL1745>:
                   crc |= 0x8000;
ee005042:	7569                	lui	a0,0xffffa
ee005044:	00150413          	addi	s0,a0,1 # ffffa001 <STACK+0xffb1a51>
ee005048:	008fc5b3          	xor	a1,t6,s0
ee00504c:	01059f13          	slli	t5,a1,0x10
ee005050:	010f5f93          	srli	t6,t5,0x10

ee005054 <.L1934>:
                retval &= 0x007f;
ee005054:	07f8f893          	andi	a7,a7,127

ee005058 <.LVL1747>:
                *pdata = (data & 0xff00) | 0x0080 | retval; /* cache the result */
ee005058:	f00afa93          	andi	s5,s5,-256

ee00505c <.LVL1748>:
ee00505c:	0158e7b3          	or	a5,a7,s5
                res->crc=crcu16(retval,res->crc);
ee005060:	03f49c23          	sh	t6,56(s1)

ee005064 <.LVL1749>:
                *pdata = (data & 0xff00) | 0x0080 | retval; /* cache the result */
ee005064:	0807e493          	ori	s1,a5,128

ee005068 <.LVL1750>:
ee005068:	00999023          	sh	s1,0(s3)

ee00506c <.L1897>:
}
ee00506c:	40f2                	lw	ra,28(sp)
ee00506e:	4462                	lw	s0,24(sp)
ee005070:	44d2                	lw	s1,20(sp)
ee005072:	4942                	lw	s2,16(sp)
ee005074:	49b2                	lw	s3,12(sp)

ee005076 <.LVL1752>:
ee005076:	4a92                	lw	s5,4(sp)
ee005078:	411a0533          	sub	a0,s4,a7
ee00507c:	4a22                	lw	s4,8(sp)

ee00507e <.LVL1753>:
ee00507e:	6105                	addi	sp,sp,32
ee005080:	8082                	ret

ee005082 <.L2128>:
                res->crc=crcu16(retval,res->crc);
ee005082:	010a9793          	slli	a5,s5,0x10
ee005086:	0107de13          	srli	t3,a5,0x10
ee00508a:	88d6                	mv	a7,s5
ee00508c:	bb8d                	j	ee004dfe <.L1900>

ee00508e <.L1898>:
                                retval=core_bench_state(res->size,res->memblock[3],res->seed1,res->seed2,dtype,res->crc);
ee00508e:	02200613          	li	a2,34
ee005092:	88ba                	mv	a7,a4
ee005094:	00c75463          	bge	a4,a2,ee00509c <.L1901>
ee005098:	02200893          	li	a7,34

ee00509c <.L1901>:
ee00509c:	00249683          	lh	a3,2(s1)
ee0050a0:	00049603          	lh	a2,0(s1)
ee0050a4:	48cc                	lw	a1,20(s1)
ee0050a6:	4c88                	lw	a0,24(s1)
ee0050a8:	87a2                	mv	a5,s0
ee0050aa:	0ff8f713          	andi	a4,a7,255

ee0050ae <.LVL1756>:
ee0050ae:	ff8fe0ef          	jal	ra,ee0038a6 <core_bench_state>

ee0050b2 <.LVL1757>:
                                if (res->crcstate==0)
ee0050b2:	03e4df83          	lhu	t6,62(s1)
                                retval=core_bench_state(res->size,res->memblock[3],res->seed1,res->seed2,dtype,res->crc);
ee0050b6:	01051293          	slli	t0,a0,0x10
                res->crc=crcu16(retval,res->crc);
ee0050ba:	0384d403          	lhu	s0,56(s1)
                                retval=core_bench_state(res->size,res->memblock[3],res->seed1,res->seed2,dtype,res->crc);
ee0050be:	8e2a                	mv	t3,a0
ee0050c0:	4102d893          	srai	a7,t0,0x10

ee0050c4 <.LVL1758>:
                                if (res->crcstate==0)
ee0050c4:	d20f9de3          	bnez	t6,ee004dfe <.L1900>
                                        res->crcstate=retval;
ee0050c8:	02a49f23          	sh	a0,62(s1)
ee0050cc:	bb0d                	j	ee004dfe <.L1900>

ee0050ce <.L1859>:
                                retval=core_bench_state(res->size,res->memblock[3],res->seed1,res->seed2,dtype,res->crc);
ee0050ce:	02200393          	li	t2,34
ee0050d2:	883a                	mv	a6,a4
ee0050d4:	00775463          	bge	a4,t2,ee0050dc <.L1862>
ee0050d8:	02200813          	li	a6,34

ee0050dc <.L1862>:
ee0050dc:	48cc                	lw	a1,20(s1)

ee0050de <.LVL1760>:
ee0050de:	00249683          	lh	a3,2(s1)
ee0050e2:	00049603          	lh	a2,0(s1)
ee0050e6:	4c88                	lw	a0,24(s1)

ee0050e8 <.LVL1761>:
ee0050e8:	87a2                	mv	a5,s0
ee0050ea:	0ff87713          	andi	a4,a6,255

ee0050ee <.LVL1762>:
ee0050ee:	fb8fe0ef          	jal	ra,ee0038a6 <core_bench_state>

ee0050f2 <.LVL1763>:
                                if (res->crcstate==0)
ee0050f2:	03e4d583          	lhu	a1,62(s1)
                                retval=core_bench_state(res->size,res->memblock[3],res->seed1,res->seed2,dtype,res->crc);
ee0050f6:	01051a13          	slli	s4,a0,0x10
                res->crc=crcu16(retval,res->crc);
ee0050fa:	0384d403          	lhu	s0,56(s1)
                                retval=core_bench_state(res->size,res->memblock[3],res->seed1,res->seed2,dtype,res->crc);
ee0050fe:	410a5313          	srai	t1,s4,0x10

ee005102 <.LVL1764>:
                                if (res->crcstate==0)
ee005102:	fc059863          	bnez	a1,ee0048d2 <.L1861>
                                        res->crcstate=retval;
ee005106:	02a49f23          	sh	a0,62(s1)
ee00510a:	fc8ff06f          	j	ee0048d2 <.L1861>

ee00510e <.L1860>:
        crc=crc16(matrix_test(N,C,A,B,val),crc);
ee00510e:	5a14                	lw	a3,48(a2)
ee005110:	58cc                	lw	a1,52(s1)

ee005112 <.LVL1766>:
ee005112:	5650                	lw	a2,44(a2)
ee005114:	5488                	lw	a0,40(s1)
ee005116:	df2fb0ef          	jal	ra,ee000708 <matrix_test>

ee00511a <.LBB845>:
                x16 = (ee_u8)((data & 1) ^ ((ee_u8)crc & 1));
ee00511a:	00a44633          	xor	a2,s0,a0

ee00511e <.LBE849>:
        crc=crcu8( (ee_u8) (newval)                             ,crc);
ee00511e:	0ff57893          	andi	a7,a0,255

ee005122 <.LBE847>:
        return crcu16((ee_u16)newval, crc);
ee005122:	01051e93          	slli	t4,a0,0x10

ee005126 <.LBB853>:
                if (x16 == 1)
ee005126:	00167e13          	andi	t3,a2,1

ee00512a <.LBE853>:
        return crcu16((ee_u16)newval, crc);
ee00512a:	010edf13          	srli	t5,t4,0x10

ee00512e <.LBB854>:
                data >>= 1;
ee00512e:	0018df93          	srli	t6,a7,0x1

ee005132 <.LVL1769>:
                crc >>= 1;
ee005132:	00145293          	srli	t0,s0,0x1
                if (x16 == 1)
ee005136:	000e0b63          	beqz	t3,ee00514c <.L1864>

ee00513a <.LVL1770>:
                   crc |= 0x8000;
ee00513a:	7469                	lui	s0,0xffffa

ee00513c <.LVL1771>:
ee00513c:	00140093          	addi	ra,s0,1 # ffffa001 <STACK+0xffb1a51>
ee005140:	0012c7b3          	xor	a5,t0,ra

ee005144 <.LVL1772>:
ee005144:	01079713          	slli	a4,a5,0x10
ee005148:	01075293          	srli	t0,a4,0x10

ee00514c <.L1864>:
                x16 = (ee_u8)((data & 1) ^ ((ee_u8)crc & 1));
ee00514c:	01f2c6b3          	xor	a3,t0,t6
                if (x16 == 1)
ee005150:	0016f313          	andi	t1,a3,1
                data >>= 1;
ee005154:	0028d393          	srli	t2,a7,0x2

ee005158 <.LVL1774>:
                crc >>= 1;
ee005158:	0012de13          	srli	t3,t0,0x1
                if (x16 == 1)
ee00515c:	00030b63          	beqz	t1,ee005172 <.L1865>

ee005160 <.LVL1775>:
                   crc |= 0x8000;
ee005160:	7869                	lui	a6,0xffffa
ee005162:	00180593          	addi	a1,a6,1 # ffffa001 <STACK+0xffb1a51>
ee005166:	00be4a33          	xor	s4,t3,a1

ee00516a <.LVL1776>:
ee00516a:	010a1513          	slli	a0,s4,0x10

ee00516e <.LVL1777>:
ee00516e:	01055e13          	srli	t3,a0,0x10

ee005172 <.L1865>:
                x16 = (ee_u8)((data & 1) ^ ((ee_u8)crc & 1));
ee005172:	007e4633          	xor	a2,t3,t2
                if (x16 == 1)
ee005176:	00167e93          	andi	t4,a2,1
                data >>= 1;
ee00517a:	0038df93          	srli	t6,a7,0x3

ee00517e <.LVL1779>:
                crc >>= 1;
ee00517e:	001e5293          	srli	t0,t3,0x1
                if (x16 == 1)
ee005182:	000e8b63          	beqz	t4,ee005198 <.L1866>

ee005186 <.LVL1780>:
                   crc |= 0x8000;
ee005186:	7469                	lui	s0,0xffffa
ee005188:	00140093          	addi	ra,s0,1 # ffffa001 <STACK+0xffb1a51>
ee00518c:	0012c7b3          	xor	a5,t0,ra

ee005190 <.LVL1781>:
ee005190:	01079713          	slli	a4,a5,0x10
ee005194:	01075293          	srli	t0,a4,0x10

ee005198 <.L1866>:
                x16 = (ee_u8)((data & 1) ^ ((ee_u8)crc & 1));
ee005198:	01f2c6b3          	xor	a3,t0,t6
                if (x16 == 1)
ee00519c:	0016f313          	andi	t1,a3,1
                data >>= 1;
ee0051a0:	0048d393          	srli	t2,a7,0x4

ee0051a4 <.LVL1783>:
                crc >>= 1;
ee0051a4:	0012de13          	srli	t3,t0,0x1
                if (x16 == 1)
ee0051a8:	00030b63          	beqz	t1,ee0051be <.L1867>

ee0051ac <.LVL1784>:
                   crc |= 0x8000;
ee0051ac:	7869                	lui	a6,0xffffa
ee0051ae:	00180593          	addi	a1,a6,1 # ffffa001 <STACK+0xffb1a51>
ee0051b2:	00be4a33          	xor	s4,t3,a1

ee0051b6 <.LVL1785>:
ee0051b6:	010a1513          	slli	a0,s4,0x10
ee0051ba:	01055e13          	srli	t3,a0,0x10

ee0051be <.L1867>:
                x16 = (ee_u8)((data & 1) ^ ((ee_u8)crc & 1));
ee0051be:	007e4633          	xor	a2,t3,t2
                if (x16 == 1)
ee0051c2:	00167e93          	andi	t4,a2,1
                data >>= 1;
ee0051c6:	0058df93          	srli	t6,a7,0x5

ee0051ca <.LVL1787>:
                crc >>= 1;
ee0051ca:	001e5293          	srli	t0,t3,0x1
                if (x16 == 1)
ee0051ce:	000e8b63          	beqz	t4,ee0051e4 <.L1868>

ee0051d2 <.LVL1788>:
                   crc |= 0x8000;
ee0051d2:	7469                	lui	s0,0xffffa
ee0051d4:	00140093          	addi	ra,s0,1 # ffffa001 <STACK+0xffb1a51>
ee0051d8:	0012c7b3          	xor	a5,t0,ra

ee0051dc <.LVL1789>:
ee0051dc:	01079713          	slli	a4,a5,0x10
ee0051e0:	01075293          	srli	t0,a4,0x10

ee0051e4 <.L1868>:
                x16 = (ee_u8)((data & 1) ^ ((ee_u8)crc & 1));
ee0051e4:	01f2c6b3          	xor	a3,t0,t6
                if (x16 == 1)
ee0051e8:	0016f313          	andi	t1,a3,1
                data >>= 1;
ee0051ec:	0068d393          	srli	t2,a7,0x6

ee0051f0 <.LVL1791>:
                crc >>= 1;
ee0051f0:	0012de13          	srli	t3,t0,0x1
                if (x16 == 1)
ee0051f4:	00030b63          	beqz	t1,ee00520a <.L1869>

ee0051f8 <.LVL1792>:
                   crc |= 0x8000;
ee0051f8:	7869                	lui	a6,0xffffa
ee0051fa:	00180593          	addi	a1,a6,1 # ffffa001 <STACK+0xffb1a51>
ee0051fe:	00be4a33          	xor	s4,t3,a1

ee005202 <.LVL1793>:
ee005202:	010a1513          	slli	a0,s4,0x10
ee005206:	01055e13          	srli	t3,a0,0x10

ee00520a <.L1869>:
                x16 = (ee_u8)((data & 1) ^ ((ee_u8)crc & 1));
ee00520a:	007e4633          	xor	a2,t3,t2
                if (x16 == 1)
ee00520e:	00167e93          	andi	t4,a2,1
                data >>= 1;
ee005212:	0078d893          	srli	a7,a7,0x7

ee005216 <.LVL1795>:
                crc >>= 1;
ee005216:	001e5713          	srli	a4,t3,0x1
                if (x16 == 1)
ee00521a:	000e8b63          	beqz	t4,ee005230 <.L1870>

ee00521e <.LVL1796>:
                   crc |= 0x8000;
ee00521e:	7fe9                	lui	t6,0xffffa
ee005220:	001f8413          	addi	s0,t6,1 # ffffa001 <STACK+0xffb1a51>
ee005224:	008740b3          	xor	ra,a4,s0

ee005228 <.LVL1797>:
ee005228:	01009793          	slli	a5,ra,0x10
ee00522c:	0107d713          	srli	a4,a5,0x10

ee005230 <.L1870>:
                if (x16 == 1)
ee005230:	00177293          	andi	t0,a4,1
                crc >>= 1;
ee005234:	00175593          	srli	a1,a4,0x1
                if (x16 == 1)
ee005238:	01128b63          	beq	t0,a7,ee00524e <.L1871>

ee00523c <.LVL1799>:
                   crc |= 0x8000;
ee00523c:	76e9                	lui	a3,0xffffa
ee00523e:	00168313          	addi	t1,a3,1 # ffffa001 <STACK+0xffb1a51>
ee005242:	0065c3b3          	xor	t2,a1,t1

ee005246 <.LVL1800>:
ee005246:	01039813          	slli	a6,t2,0x10
ee00524a:	01085593          	srli	a1,a6,0x10

ee00524e <.L1871>:
        crc=crcu8( (ee_u8) ((newval)>>8)        ,crc);
ee00524e:	008f5a13          	srli	s4,t5,0x8

ee005252 <.LBB855>:
                x16 = (ee_u8)((data & 1) ^ ((ee_u8)crc & 1));
ee005252:	0145c533          	xor	a0,a1,s4
                if (x16 == 1)
ee005256:	00157e13          	andi	t3,a0,1

ee00525a <.LBE855>:
        crc=crcu8( (ee_u8) ((newval)>>8)        ,crc);
ee00525a:	008f5e93          	srli	t4,t5,0x8

ee00525e <.LBB858>:
                data >>= 1;
ee00525e:	0015d093          	srli	ra,a1,0x1
ee005262:	009f5f13          	srli	t5,t5,0x9

ee005266 <.LVL1803>:
                if (x16 == 1)
ee005266:	000e0b63          	beqz	t3,ee00527c <.L1872>

ee00526a <.LVL1804>:
                   crc |= 0x8000;
ee00526a:	7669                	lui	a2,0xffffa
ee00526c:	00160893          	addi	a7,a2,1 # ffffa001 <STACK+0xffb1a51>
ee005270:	0110cfb3          	xor	t6,ra,a7

ee005274 <.LVL1805>:
ee005274:	010f9413          	slli	s0,t6,0x10
ee005278:	01045093          	srli	ra,s0,0x10

ee00527c <.L1872>:
                x16 = (ee_u8)((data & 1) ^ ((ee_u8)crc & 1));
ee00527c:	01e0c7b3          	xor	a5,ra,t5
                if (x16 == 1)
ee005280:	0017f713          	andi	a4,a5,1
                data >>= 1;
ee005284:	002ed293          	srli	t0,t4,0x2

ee005288 <.LVL1807>:
                if (x16 == 1)
ee005288:	0010d593          	srli	a1,ra,0x1
ee00528c:	cb11                	beqz	a4,ee0052a0 <.L1873>

ee00528e <.LVL1808>:
                   crc |= 0x8000;
ee00528e:	76e9                	lui	a3,0xffffa
ee005290:	00168313          	addi	t1,a3,1 # ffffa001 <STACK+0xffb1a51>
ee005294:	0065c3b3          	xor	t2,a1,t1

ee005298 <.LVL1809>:
ee005298:	01039813          	slli	a6,t2,0x10
ee00529c:	01085593          	srli	a1,a6,0x10

ee0052a0 <.L1873>:
                x16 = (ee_u8)((data & 1) ^ ((ee_u8)crc & 1));
ee0052a0:	0055ca33          	xor	s4,a1,t0
                if (x16 == 1)
ee0052a4:	001a7513          	andi	a0,s4,1
                data >>= 1;
ee0052a8:	003ede13          	srli	t3,t4,0x3

ee0052ac <.LVL1811>:
                if (x16 == 1)
ee0052ac:	0015d413          	srli	s0,a1,0x1
ee0052b0:	c911                	beqz	a0,ee0052c4 <.L1874>

ee0052b2 <.LVL1812>:
                   crc |= 0x8000;
ee0052b2:	7f69                	lui	t5,0xffffa
ee0052b4:	001f0613          	addi	a2,t5,1 # ffffa001 <STACK+0xffb1a51>
ee0052b8:	00c448b3          	xor	a7,s0,a2

ee0052bc <.LVL1813>:
ee0052bc:	01089f93          	slli	t6,a7,0x10
ee0052c0:	010fd413          	srli	s0,t6,0x10

ee0052c4 <.L1874>:
                x16 = (ee_u8)((data & 1) ^ ((ee_u8)crc & 1));
ee0052c4:	01c440b3          	xor	ra,s0,t3
                if (x16 == 1)
ee0052c8:	0010f293          	andi	t0,ra,1
                data >>= 1;
ee0052cc:	004ed713          	srli	a4,t4,0x4

ee0052d0 <.LVL1815>:
                if (x16 == 1)
ee0052d0:	00145813          	srli	a6,s0,0x1
ee0052d4:	00028b63          	beqz	t0,ee0052ea <.L1875>

ee0052d8 <.LVL1816>:
                   crc |= 0x8000;
ee0052d8:	76e9                	lui	a3,0xffffa
ee0052da:	00168313          	addi	t1,a3,1 # ffffa001 <STACK+0xffb1a51>
ee0052de:	006847b3          	xor	a5,a6,t1

ee0052e2 <.LVL1817>:
ee0052e2:	01079393          	slli	t2,a5,0x10
ee0052e6:	0103d813          	srli	a6,t2,0x10

ee0052ea <.L1875>:
                x16 = (ee_u8)((data & 1) ^ ((ee_u8)crc & 1));
ee0052ea:	00e845b3          	xor	a1,a6,a4
                if (x16 == 1)
ee0052ee:	0015fa13          	andi	s4,a1,1
                data >>= 1;
ee0052f2:	005ed513          	srli	a0,t4,0x5

ee0052f6 <.LVL1819>:
                if (x16 == 1)
ee0052f6:	00185f93          	srli	t6,a6,0x1
ee0052fa:	000a0b63          	beqz	s4,ee005310 <.L1876>

ee0052fe <.LVL1820>:
                   crc |= 0x8000;
ee0052fe:	7e69                	lui	t3,0xffffa
ee005300:	001e0f13          	addi	t5,t3,1 # ffffa001 <STACK+0xffb1a51>
ee005304:	01efc633          	xor	a2,t6,t5

ee005308 <.LVL1821>:
ee005308:	01061893          	slli	a7,a2,0x10
ee00530c:	0108df93          	srli	t6,a7,0x10

ee005310 <.L1876>:
                x16 = (ee_u8)((data & 1) ^ ((ee_u8)crc & 1));
ee005310:	00afc433          	xor	s0,t6,a0
                if (x16 == 1)
ee005314:	00147093          	andi	ra,s0,1
                data >>= 1;
ee005318:	006ed293          	srli	t0,t4,0x6

ee00531c <.LVL1823>:
                if (x16 == 1)
ee00531c:	001fd393          	srli	t2,t6,0x1
ee005320:	00008b63          	beqz	ra,ee005336 <.L1877>

ee005324 <.LVL1824>:
                   crc |= 0x8000;
ee005324:	7769                	lui	a4,0xffffa
ee005326:	00170693          	addi	a3,a4,1 # ffffa001 <STACK+0xffb1a51>
ee00532a:	00d3c333          	xor	t1,t2,a3

ee00532e <.LVL1825>:
ee00532e:	01031793          	slli	a5,t1,0x10
ee005332:	0107d393          	srli	t2,a5,0x10

ee005336 <.L1877>:
                x16 = (ee_u8)((data & 1) ^ ((ee_u8)crc & 1));
ee005336:	0053c833          	xor	a6,t2,t0
                if (x16 == 1)
ee00533a:	00187593          	andi	a1,a6,1
                data >>= 1;
ee00533e:	007ede93          	srli	t4,t4,0x7

ee005342 <.LVL1827>:
                if (x16 == 1)
ee005342:	0013d613          	srli	a2,t2,0x1
ee005346:	c991                	beqz	a1,ee00535a <.L1878>

ee005348 <.LVL1828>:
                   crc |= 0x8000;
ee005348:	7a69                	lui	s4,0xffffa
ee00534a:	001a0513          	addi	a0,s4,1 # ffffa001 <STACK+0xffb1a51>
ee00534e:	00a64e33          	xor	t3,a2,a0

ee005352 <.LVL1829>:
ee005352:	010e1f13          	slli	t5,t3,0x10
ee005356:	010f5613          	srli	a2,t5,0x10

ee00535a <.L1878>:
                if (x16 == 1)
ee00535a:	00167893          	andi	a7,a2,1
ee00535e:	00165513          	srli	a0,a2,0x1
ee005362:	01d88b63          	beq	a7,t4,ee005378 <.L1879>

ee005366 <.LVL1831>:
                   crc |= 0x8000;
ee005366:	7fe9                	lui	t6,0xffffa
ee005368:	001f8413          	addi	s0,t6,1 # ffffa001 <STACK+0xffb1a51>
ee00536c:	008540b3          	xor	ra,a0,s0
ee005370:	01009293          	slli	t0,ra,0x10
ee005374:	0102d513          	srli	a0,t0,0x10

ee005378 <.L1879>:
                                if (res->crcmatrix==0)
ee005378:	03c4d703          	lhu	a4,60(s1)
                                retval=core_bench_matrix(&(res->mat),dtype,res->crc);
ee00537c:	01051693          	slli	a3,a0,0x10
                res->crc=crcu16(retval,res->crc);
ee005380:	0384d403          	lhu	s0,56(s1)
                                retval=core_bench_matrix(&(res->mat),dtype,res->crc);
ee005384:	4106d313          	srai	t1,a3,0x10

ee005388 <.LVL1833>:
                                if (res->crcmatrix==0)
ee005388:	d4071563          	bnez	a4,ee0048d2 <.L1861>
                                        res->crcmatrix=retval;
ee00538c:	02a49e23          	sh	a0,60(s1)
ee005390:	d42ff06f          	j	ee0048d2 <.L1861>

ee005394 <core_bench_list>:
        ee_s16 find_num=res->seed3;
ee005394:	00451e03          	lh	t3,4(a0)
ee_u16 core_bench_list(core_results *res, ee_s16 finder_idx) {
ee005398:	7139                	addi	sp,sp,-64
ee00539a:	dc22                	sw	s0,56(sp)
ee00539c:	c66e                	sw	s11,12(sp)
ee00539e:	de06                	sw	ra,60(sp)
ee0053a0:	da26                	sw	s1,52(sp)
ee0053a2:	d84a                	sw	s2,48(sp)
ee0053a4:	d64e                	sw	s3,44(sp)
ee0053a6:	d452                	sw	s4,40(sp)
ee0053a8:	d256                	sw	s5,36(sp)
ee0053aa:	d05a                	sw	s6,32(sp)
ee0053ac:	ce5e                	sw	s7,28(sp)
ee0053ae:	cc62                	sw	s8,24(sp)
ee0053b0:	ca66                	sw	s9,20(sp)
ee0053b2:	c86a                	sw	s10,16(sp)
        list_head *list=res->list;
ee0053b4:	5140                	lw	s0,36(a0)
ee_u16 core_bench_list(core_results *res, ee_s16 finder_idx) {
ee0053b6:	8daa                	mv	s11,a0

ee0053b8 <.LVL1835>:
ee0053b8:	832e                	mv	t1,a1

ee0053ba <.LVL1836>:
        for (i=0; i<find_num; i++) {
ee0053ba:	0fc05de3          	blez	t3,ee005cb4 <.L2222>
        info.idx=finder_idx;
ee0053be:	8bae                	mv	s7,a1
        for (i=0; i<find_num; i++) {
ee0053c0:	4501                	li	a0,0

ee0053c2 <.LVL1837>:
        ee_u16 found=0,missed=0;
ee0053c2:	4e81                	li	t4,0
ee0053c4:	4c01                	li	s8,0
        ee_u16 retval=0;
ee0053c6:	4f01                	li	t5,0

ee0053c8 <.L2143>:
                info.data16= (i & 0xff) ;
ee0053c8:	0ff57c93          	andi	s9,a0,255

ee0053cc <.LBB944>:
        if (info->idx>=0) {
ee0053cc:	3a0bc163          	bltz	s7,ee00576e <.L2474>
                while (list && (list->info->idx != info->idx))
ee0053d0:	0e0406e3          	beqz	s0,ee005cbc <.L2132>
ee0053d4:	87a2                	mv	a5,s0
ee0053d6:	a019                	j	ee0053dc <.L2134>

ee0053d8 <.L2136>:
                        list=list->next;
ee0053d8:	439c                	lw	a5,0(a5)
                while (list && (list->info->idx != info->idx))
ee0053da:	c799                	beqz	a5,ee0053e8 <.L2135>

ee0053dc <.L2134>:
ee0053dc:	0047a283          	lw	t0,4(a5)
ee0053e0:	00229383          	lh	t2,2(t0)
ee0053e4:	ff739ae3          	bne	t2,s7,ee0053d8 <.L2136>

ee0053e8 <.L2135>:
                while (list && ((list->info->data16 & 0xff) != info->data16))
ee0053e8:	8a22                	mv	s4,s0

ee0053ea <.LBB956>:
                tmp=list->next;
ee0053ea:	000a2603          	lw	a2,0(s4)
        list_head *next=NULL, *tmp;
ee0053ee:	4b01                	li	s6,0

ee0053f0 <.LVL1844>:
                list->next=next;
ee0053f0:	016a2023          	sw	s6,0(s4)
ee0053f4:	8452                	mv	s0,s4

ee0053f6 <.LVL1845>:
        while (list) {
ee0053f6:	c63d                	beqz	a2,ee005464 <.L2464>

ee0053f8 <.L2224>:
                tmp=list->next;
ee0053f8:	420c                	lw	a1,0(a2)
                list->next=next;
ee0053fa:	01462023          	sw	s4,0(a2)
ee0053fe:	8b52                	mv	s6,s4
                tmp=list->next;
ee005400:	8432                	mv	s0,a2
        while (list) {
ee005402:	c1ad                	beqz	a1,ee005464 <.L2464>
                tmp=list->next;
ee005404:	4194                	lw	a3,0(a1)
                list->next=next;
ee005406:	c190                	sw	a2,0(a1)
ee005408:	8b32                	mv	s6,a2
                tmp=list->next;
ee00540a:	842e                	mv	s0,a1
        while (list) {
ee00540c:	cea1                	beqz	a3,ee005464 <.L2464>
                tmp=list->next;
ee00540e:	4284                	lw	s1,0(a3)
                list->next=next;
ee005410:	c28c                	sw	a1,0(a3)
ee005412:	8b2e                	mv	s6,a1
                tmp=list->next;
ee005414:	8436                	mv	s0,a3
        while (list) {
ee005416:	c4b9                	beqz	s1,ee005464 <.L2464>
                tmp=list->next;
ee005418:	0004a903          	lw	s2,0(s1)
                list->next=next;
ee00541c:	c094                	sw	a3,0(s1)
ee00541e:	8b36                	mv	s6,a3
                tmp=list->next;
ee005420:	8426                	mv	s0,s1
        while (list) {
ee005422:	04090163          	beqz	s2,ee005464 <.L2464>
                tmp=list->next;
ee005426:	00092803          	lw	a6,0(s2)
                list->next=next;
ee00542a:	00992023          	sw	s1,0(s2)
ee00542e:	8b26                	mv	s6,s1
                tmp=list->next;
ee005430:	844a                	mv	s0,s2
        while (list) {
ee005432:	02080963          	beqz	a6,ee005464 <.L2464>
                tmp=list->next;
ee005436:	00082983          	lw	s3,0(a6)
                list->next=next;
ee00543a:	01282023          	sw	s2,0(a6)
ee00543e:	8b4a                	mv	s6,s2
                tmp=list->next;
ee005440:	8442                	mv	s0,a6
        while (list) {
ee005442:	02098163          	beqz	s3,ee005464 <.L2464>
                tmp=list->next;
ee005446:	0009aa03          	lw	s4,0(s3)
                list->next=next;
ee00544a:	0109a023          	sw	a6,0(s3)
ee00544e:	8b42                	mv	s6,a6
                tmp=list->next;
ee005450:	844e                	mv	s0,s3
        while (list) {
ee005452:	000a0963          	beqz	s4,ee005464 <.L2464>
                tmp=list->next;
ee005456:	000a2603          	lw	a2,0(s4)
ee00545a:	8b4e                	mv	s6,s3

ee00545c <.LVL1847>:
                list->next=next;
ee00545c:	016a2023          	sw	s6,0(s4)
ee005460:	8452                	mv	s0,s4

ee005462 <.LVL1848>:
        while (list) {
ee005462:	fa59                	bnez	a2,ee0053f8 <.L2224>

ee005464 <.L2464>:
                if (this_find==NULL) {
ee005464:	32078263          	beqz	a5,ee005788 <.L2475>
                        if (this_find->info->data16 & 0x1) /* use found value */
ee005468:	0047aa83          	lw	s5,4(a5)
                        found++;
ee00546c:	001c0893          	addi	a7,s8,1
ee005470:	01089b13          	slli	s6,a7,0x10
                        if (this_find->info->data16 & 0x1) /* use found value */
ee005474:	000a9d03          	lh	s10,0(s5)
                        found++;
ee005478:	010b5c13          	srli	s8,s6,0x10
                        if (this_find->info->data16 & 0x1) /* use found value */
ee00547c:	001d7f93          	andi	t6,s10,1
ee005480:	000f8b63          	beqz	t6,ee005496 <.L2141>
                                retval+=(this_find->info->data16 >> 9) & 1;
ee005484:	409d5713          	srai	a4,s10,0x9
ee005488:	00177093          	andi	ra,a4,1
ee00548c:	9f06                	add	t5,t5,ra

ee00548e <.LVL1850>:
ee00548e:	010f1293          	slli	t0,t5,0x10
ee005492:	0102df13          	srli	t5,t0,0x10

ee005496 <.L2141>:
                        if (this_find->next != NULL) {
ee005496:	0007a383          	lw	t2,0(a5)
ee00549a:	00038a63          	beqz	t2,ee0054ae <.L2140>

ee00549e <.LVL1852>:
                                this_find->next = finder->next;
ee00549e:	0003a603          	lw	a2,0(t2)
ee0054a2:	c390                	sw	a2,0(a5)
                                finder->next=list->next;
ee0054a4:	401c                	lw	a5,0(s0)

ee0054a6 <.LVL1853>:
ee0054a6:	00f3a023          	sw	a5,0(t2)
                                list->next=finder;
ee0054aa:	00742023          	sw	t2,0(s0)

ee0054ae <.L2140>:
                if (info.idx>=0)
ee0054ae:	000bc763          	bltz	s7,ee0054bc <.L2142>
                        info.idx++;
ee0054b2:	0b85                	addi	s7,s7,1

ee0054b4 <.LVL1855>:
ee0054b4:	010b9a13          	slli	s4,s7,0x10
ee0054b8:	410a5b93          	srai	s7,s4,0x10

ee0054bc <.L2142>:
        for (i=0; i<find_num; i++) {
ee0054bc:	0505                	addi	a0,a0,1

ee0054be <.LVL1857>:
ee0054be:	01051a93          	slli	s5,a0,0x10
ee0054c2:	410ad513          	srai	a0,s5,0x10

ee0054c6 <.LVL1858>:
ee0054c6:	f0ae11e3          	bne	t3,a0,ee0053c8 <.L2143>
        retval+=found*4-missed;
ee0054ca:	002c1e13          	slli	t3,s8,0x2

ee0054ce <.LVL1859>:
ee0054ce:	41de08b3          	sub	a7,t3,t4
ee0054d2:	011f0b33          	add	s6,t5,a7
ee0054d6:	010b1c13          	slli	s8,s6,0x10

ee0054da <.LVL1860>:
ee0054da:	010c5493          	srli	s1,s8,0x10

ee0054de <.L2130>:
        if (finder_idx>0)
ee0054de:	6c604163          	bgtz	t1,ee005ba0 <.L2476>

ee0054e2 <.L2144>:
        remover=core_list_remove(list->next);
ee0054e2:	00042d83          	lw	s11,0(s0)

ee0054e6 <.LBB957>:
        list_head *ret=item->next;
ee0054e6:	87a2                	mv	a5,s0

ee0054e8 <.LBB966>:
ee0054e8:	000da503          	lw	a0,0(s11)

ee0054ec <.LVL1864>:
        tmp=item->info;
ee0054ec:	004daa03          	lw	s4,4(s11)

ee0054f0 <.LVL1865>:
        item->info=ret->info;
ee0054f0:	414c                	lw	a1,4(a0)
        item->next=item->next->next;
ee0054f2:	00052e83          	lw	t4,0(a0)
        item->info=ret->info;
ee0054f6:	00bda223          	sw	a1,4(s11)
        ret->info=tmp;
ee0054fa:	01452223          	sw	s4,4(a0)
        item->next=item->next->next;
ee0054fe:	01dda023          	sw	t4,0(s11)
        ret->next=NULL;
ee005502:	00052023          	sw	zero,0(a0)

ee005506 <.LBB967>:
        if (info->idx>=0) {
ee005506:	240bc163          	bltz	s7,ee005748 <.L2477>

ee00550a <.L2161>:
                while (list && (list->info->idx != info->idx))
ee00550a:	0047ac83          	lw	s9,4(a5)
                        list=list->next;
ee00550e:	439c                	lw	a5,0(a5)

ee005510 <.LVL1868>:
                while (list && (list->info->idx != info->idx))
ee005510:	002c9803          	lh	a6,2(s9)
ee005514:	25780863          	beq	a6,s7,ee005764 <.L2165>

ee005518 <.LVL1869>:
ee005518:	fbed                	bnez	a5,ee00550a <.L2161>

ee00551a <.L2163>:
                finder=list->next;
ee00551a:	00042d03          	lw	s10,0(s0)

ee00551e <.LBB968>:
        item_removed->next=item_modified->next;
ee00551e:	000d2783          	lw	a5,0(s10)
ee005522:	80be                	mv	ra,a5

ee005524 <.L2221>:
                retval=crc16(list->info->data16,retval);
ee005524:	00442a83          	lw	s5,4(s0)

ee005528 <.LBB973>:
                   crc |= 0x8000;
ee005528:	7e69                	lui	t3,0xffffa
ee00552a:	001e0713          	addi	a4,t3,1 # ffffa001 <STACK+0xffb1a51>

ee00552e <.LBE973>:
                retval=crc16(list->info->data16,retval);
ee00552e:	000a9c03          	lh	s8,0(s5)

ee005532 <.LBB993>:
        crc=crcu8( (ee_u8) ((newval)>>8)        ,crc);
ee005532:	010c1893          	slli	a7,s8,0x10
ee005536:	0108db13          	srli	s6,a7,0x10
ee00553a:	008b5f93          	srli	t6,s6,0x8
        crc=crcu8( (ee_u8) (newval)                             ,crc);
ee00553e:	0ffc7313          	andi	t1,s8,255

ee005542 <.LBB982>:
                x16 = (ee_u8)((data & 1) ^ ((ee_u8)crc & 1));
ee005542:	018c1293          	slli	t0,s8,0x18

ee005546 <.LBB983>:
ee005546:	018f9f13          	slli	t5,t6,0x18

ee00554a <.LBB987>:
ee00554a:	00135593          	srli	a1,t1,0x1
ee00554e:	00235813          	srli	a6,t1,0x2
ee005552:	00335b93          	srli	s7,t1,0x3

ee005556 <.LVL1873>:
ee005556:	00435993          	srli	s3,t1,0x4
ee00555a:	00535913          	srli	s2,t1,0x5
ee00555e:	00635393          	srli	t2,t1,0x6
ee005562:	00735613          	srli	a2,t1,0x7
ee005566:	4182dd93          	srai	s11,t0,0x18

ee00556a <.LBB988>:
ee00556a:	418f5a93          	srai	s5,t5,0x18
ee00556e:	009b5c13          	srli	s8,s6,0x9
ee005572:	00ab5893          	srli	a7,s6,0xa
ee005576:	00bb5f93          	srli	t6,s6,0xb
ee00557a:	00cb5e93          	srli	t4,s6,0xc
ee00557e:	00db5e13          	srli	t3,s6,0xd
ee005582:	00eb5313          	srli	t1,s6,0xe
ee005586:	00fb5693          	srli	a3,s6,0xf

ee00558a <.L2184>:
ee00558a:	009dccb3          	xor	s9,s11,s1
                if (x16 == 1)
ee00558e:	001cfb13          	andi	s6,s9,1
                crc >>= 1;
ee005592:	0014df13          	srli	t5,s1,0x1
                if (x16 == 1)
ee005596:	000b0863          	beqz	s6,ee0055a6 <.L2167>

ee00559a <.LVL1875>:
                   crc |= 0x8000;
ee00559a:	00ef44b3          	xor	s1,t5,a4

ee00559e <.LVL1876>:
ee00559e:	01049293          	slli	t0,s1,0x10
ee0055a2:	0102df13          	srli	t5,t0,0x10

ee0055a6 <.L2167>:
                x16 = (ee_u8)((data & 1) ^ ((ee_u8)crc & 1));
ee0055a6:	01e5ccb3          	xor	s9,a1,t5
                if (x16 == 1)
ee0055aa:	001cfb13          	andi	s6,s9,1
ee0055ae:	001f5f13          	srli	t5,t5,0x1
ee0055b2:	000b0863          	beqz	s6,ee0055c2 <.L2168>

ee0055b6 <.LVL1878>:
                   crc |= 0x8000;
ee0055b6:	00ef44b3          	xor	s1,t5,a4

ee0055ba <.LVL1879>:
ee0055ba:	01049293          	slli	t0,s1,0x10
ee0055be:	0102df13          	srli	t5,t0,0x10

ee0055c2 <.L2168>:
                x16 = (ee_u8)((data & 1) ^ ((ee_u8)crc & 1));
ee0055c2:	01e84cb3          	xor	s9,a6,t5
                if (x16 == 1)
ee0055c6:	001cfb13          	andi	s6,s9,1
ee0055ca:	001f5f13          	srli	t5,t5,0x1
ee0055ce:	000b0863          	beqz	s6,ee0055de <.L2169>

ee0055d2 <.LVL1881>:
                   crc |= 0x8000;
ee0055d2:	00ef44b3          	xor	s1,t5,a4

ee0055d6 <.LVL1882>:
ee0055d6:	01049293          	slli	t0,s1,0x10
ee0055da:	0102df13          	srli	t5,t0,0x10

ee0055de <.L2169>:
                x16 = (ee_u8)((data & 1) ^ ((ee_u8)crc & 1));
ee0055de:	01ebccb3          	xor	s9,s7,t5
                if (x16 == 1)
ee0055e2:	001cfb13          	andi	s6,s9,1
ee0055e6:	001f5f13          	srli	t5,t5,0x1
ee0055ea:	000b0863          	beqz	s6,ee0055fa <.L2170>

ee0055ee <.LVL1884>:
                   crc |= 0x8000;
ee0055ee:	00ef44b3          	xor	s1,t5,a4

ee0055f2 <.LVL1885>:
ee0055f2:	01049293          	slli	t0,s1,0x10
ee0055f6:	0102df13          	srli	t5,t0,0x10

ee0055fa <.L2170>:
                x16 = (ee_u8)((data & 1) ^ ((ee_u8)crc & 1));
ee0055fa:	01e9ccb3          	xor	s9,s3,t5
                if (x16 == 1)
ee0055fe:	001cfb13          	andi	s6,s9,1
ee005602:	001f5f13          	srli	t5,t5,0x1
ee005606:	000b0863          	beqz	s6,ee005616 <.L2171>

ee00560a <.LVL1887>:
                   crc |= 0x8000;
ee00560a:	00ef44b3          	xor	s1,t5,a4

ee00560e <.LVL1888>:
ee00560e:	01049293          	slli	t0,s1,0x10
ee005612:	0102df13          	srli	t5,t0,0x10

ee005616 <.L2171>:
                x16 = (ee_u8)((data & 1) ^ ((ee_u8)crc & 1));
ee005616:	01e94cb3          	xor	s9,s2,t5
                if (x16 == 1)
ee00561a:	001cfb13          	andi	s6,s9,1
ee00561e:	001f5f13          	srli	t5,t5,0x1
ee005622:	000b0863          	beqz	s6,ee005632 <.L2172>

ee005626 <.LVL1890>:
                   crc |= 0x8000;
ee005626:	00ef44b3          	xor	s1,t5,a4

ee00562a <.LVL1891>:
ee00562a:	01049293          	slli	t0,s1,0x10
ee00562e:	0102df13          	srli	t5,t0,0x10

ee005632 <.L2172>:
                x16 = (ee_u8)((data & 1) ^ ((ee_u8)crc & 1));
ee005632:	01e3ccb3          	xor	s9,t2,t5
                if (x16 == 1)
ee005636:	001cfb13          	andi	s6,s9,1
ee00563a:	001f5f13          	srli	t5,t5,0x1
ee00563e:	000b0863          	beqz	s6,ee00564e <.L2173>

ee005642 <.LVL1893>:
                   crc |= 0x8000;
ee005642:	00ef44b3          	xor	s1,t5,a4

ee005646 <.LVL1894>:
ee005646:	01049293          	slli	t0,s1,0x10
ee00564a:	0102df13          	srli	t5,t0,0x10

ee00564e <.L2173>:
                if (x16 == 1)
ee00564e:	001f7c93          	andi	s9,t5,1
ee005652:	001f5293          	srli	t0,t5,0x1
ee005656:	00cc8863          	beq	s9,a2,ee005666 <.L2174>

ee00565a <.LVL1896>:
                   crc |= 0x8000;
ee00565a:	00e2cb33          	xor	s6,t0,a4

ee00565e <.LVL1897>:
ee00565e:	010b1493          	slli	s1,s6,0x10
ee005662:	0104d293          	srli	t0,s1,0x10

ee005666 <.L2174>:
                x16 = (ee_u8)((data & 1) ^ ((ee_u8)crc & 1));
ee005666:	005acf33          	xor	t5,s5,t0
                if (x16 == 1)
ee00566a:	001f7c93          	andi	s9,t5,1
ee00566e:	0012d293          	srli	t0,t0,0x1
ee005672:	000c8863          	beqz	s9,ee005682 <.L2175>

ee005676 <.LVL1899>:
                   crc |= 0x8000;
ee005676:	00e2cb33          	xor	s6,t0,a4

ee00567a <.LVL1900>:
ee00567a:	010b1493          	slli	s1,s6,0x10
ee00567e:	0104d293          	srli	t0,s1,0x10

ee005682 <.L2175>:
                x16 = (ee_u8)((data & 1) ^ ((ee_u8)crc & 1));
ee005682:	005c4f33          	xor	t5,s8,t0
                if (x16 == 1)
ee005686:	001f7c93          	andi	s9,t5,1
ee00568a:	0012d293          	srli	t0,t0,0x1
ee00568e:	000c8863          	beqz	s9,ee00569e <.L2176>

ee005692 <.LVL1902>:
                   crc |= 0x8000;
ee005692:	00e2cb33          	xor	s6,t0,a4

ee005696 <.LVL1903>:
ee005696:	010b1493          	slli	s1,s6,0x10
ee00569a:	0104d293          	srli	t0,s1,0x10

ee00569e <.L2176>:
                x16 = (ee_u8)((data & 1) ^ ((ee_u8)crc & 1));
ee00569e:	0058cf33          	xor	t5,a7,t0
                if (x16 == 1)
ee0056a2:	001f7c93          	andi	s9,t5,1
ee0056a6:	0012d293          	srli	t0,t0,0x1
ee0056aa:	000c8863          	beqz	s9,ee0056ba <.L2177>

ee0056ae <.LVL1905>:
                   crc |= 0x8000;
ee0056ae:	00e2cb33          	xor	s6,t0,a4

ee0056b2 <.LVL1906>:
ee0056b2:	010b1493          	slli	s1,s6,0x10
ee0056b6:	0104d293          	srli	t0,s1,0x10

ee0056ba <.L2177>:
                x16 = (ee_u8)((data & 1) ^ ((ee_u8)crc & 1));
ee0056ba:	005fcf33          	xor	t5,t6,t0
                if (x16 == 1)
ee0056be:	001f7c93          	andi	s9,t5,1
ee0056c2:	0012d293          	srli	t0,t0,0x1
ee0056c6:	000c8863          	beqz	s9,ee0056d6 <.L2178>

ee0056ca <.LVL1908>:
                   crc |= 0x8000;
ee0056ca:	00e2cb33          	xor	s6,t0,a4

ee0056ce <.LVL1909>:
ee0056ce:	010b1493          	slli	s1,s6,0x10
ee0056d2:	0104d293          	srli	t0,s1,0x10

ee0056d6 <.L2178>:
                x16 = (ee_u8)((data & 1) ^ ((ee_u8)crc & 1));
ee0056d6:	005ecf33          	xor	t5,t4,t0
                if (x16 == 1)
ee0056da:	001f7c93          	andi	s9,t5,1
ee0056de:	0012d293          	srli	t0,t0,0x1
ee0056e2:	000c8863          	beqz	s9,ee0056f2 <.L2179>

ee0056e6 <.LVL1911>:
                   crc |= 0x8000;
ee0056e6:	00e2cb33          	xor	s6,t0,a4

ee0056ea <.LVL1912>:
ee0056ea:	010b1493          	slli	s1,s6,0x10
ee0056ee:	0104d293          	srli	t0,s1,0x10

ee0056f2 <.L2179>:
                x16 = (ee_u8)((data & 1) ^ ((ee_u8)crc & 1));
ee0056f2:	005e4f33          	xor	t5,t3,t0
                if (x16 == 1)
ee0056f6:	001f7c93          	andi	s9,t5,1
ee0056fa:	0012d293          	srli	t0,t0,0x1
ee0056fe:	000c8863          	beqz	s9,ee00570e <.L2180>

ee005702 <.LVL1914>:
                   crc |= 0x8000;
ee005702:	00e2cb33          	xor	s6,t0,a4

ee005706 <.LVL1915>:
ee005706:	010b1493          	slli	s1,s6,0x10
ee00570a:	0104d293          	srli	t0,s1,0x10

ee00570e <.L2180>:
                x16 = (ee_u8)((data & 1) ^ ((ee_u8)crc & 1));
ee00570e:	00534f33          	xor	t5,t1,t0
                if (x16 == 1)
ee005712:	001f7c93          	andi	s9,t5,1
ee005716:	0012d293          	srli	t0,t0,0x1
ee00571a:	000c8863          	beqz	s9,ee00572a <.L2181>

ee00571e <.LVL1917>:
                   crc |= 0x8000;
ee00571e:	00e2cb33          	xor	s6,t0,a4

ee005722 <.LVL1918>:
ee005722:	010b1493          	slli	s1,s6,0x10
ee005726:	0104d293          	srli	t0,s1,0x10

ee00572a <.L2181>:
                if (x16 == 1)
ee00572a:	0012ff13          	andi	t5,t0,1
ee00572e:	0012d493          	srli	s1,t0,0x1

ee005732 <.LVL1920>:
ee005732:	00df0863          	beq	t5,a3,ee005742 <.L2182>

ee005736 <.LVL1921>:
                   crc |= 0x8000;
ee005736:	00e4ccb3          	xor	s9,s1,a4

ee00573a <.LVL1922>:
ee00573a:	010c9b13          	slli	s6,s9,0x10
ee00573e:	010b5493          	srli	s1,s6,0x10

ee005742 <.L2182>:
        while (finder) {
ee005742:	c7ad                	beqz	a5,ee0057ac <.L2183>
                finder=finder->next;
ee005744:	439c                	lw	a5,0(a5)
ee005746:	b591                	j	ee00558a <.L2184>

ee005748 <.L2477>:
                while (list && ((list->info->data16 & 0xff) != info->data16))
ee005748:	43d4                	lw	a3,4(a5)
                        list=list->next;
ee00574a:	439c                	lw	a5,0(a5)
                while (list && ((list->info->data16 & 0xff) != info->data16))
ee00574c:	0006c903          	lbu	s2,0(a3)
ee005750:	01990a63          	beq	s2,s9,ee005764 <.L2165>

ee005754 <.L2166>:
ee005754:	dc0783e3          	beqz	a5,ee00551a <.L2163>

ee005758 <.LVL1926>:
ee005758:	43d4                	lw	a3,4(a5)
                        list=list->next;
ee00575a:	439c                	lw	a5,0(a5)

ee00575c <.LVL1927>:
                while (list && ((list->info->data16 & 0xff) != info->data16))
ee00575c:	0006c903          	lbu	s2,0(a3)
ee005760:	ff991ae3          	bne	s2,s9,ee005754 <.L2166>

ee005764 <.L2165>:
        remover=core_list_undo_remove(remover,list->next);
ee005764:	00042d03          	lw	s10,0(s0)

ee005768 <.LBB1000>:
        item_removed->next=item_modified->next;
ee005768:	000d2083          	lw	ra,0(s10)
ee00576c:	bb65                	j	ee005524 <.L2221>

ee00576e <.L2474>:
                while (list && ((list->info->data16 & 0xff) != info->data16))
ee00576e:	54040763          	beqz	s0,ee005cbc <.L2132>
ee005772:	87a2                	mv	a5,s0
ee005774:	a021                	j	ee00577c <.L2133>

ee005776 <.L2137>:
                        list=list->next;
ee005776:	439c                	lw	a5,0(a5)
                while (list && ((list->info->data16 & 0xff) != info->data16))
ee005778:	c60788e3          	beqz	a5,ee0053e8 <.L2135>

ee00577c <.L2133>:
ee00577c:	43d8                	lw	a4,4(a5)
ee00577e:	00074083          	lbu	ra,0(a4)
ee005782:	ff909ae3          	bne	ra,s9,ee005776 <.L2137>
ee005786:	b18d                	j	ee0053e8 <.L2135>

ee005788 <.L2475>:
                        retval+=(list->next->info->data16 >> 8) & 1;
ee005788:	004b2583          	lw	a1,4(s6)
                        missed++;
ee00578c:	0e85                	addi	t4,t4,1

ee00578e <.LVL1934>:
ee00578e:	010e9693          	slli	a3,t4,0x10
                        retval+=(list->next->info->data16 >> 8) & 1;
ee005792:	00158483          	lb	s1,1(a1)
                        missed++;
ee005796:	0106de93          	srli	t4,a3,0x10

ee00579a <.LVL1935>:
                        retval+=(list->next->info->data16 >> 8) & 1;
ee00579a:	0014f913          	andi	s2,s1,1
ee00579e:	012f0833          	add	a6,t5,s2
ee0057a2:	01081993          	slli	s3,a6,0x10
ee0057a6:	0109df13          	srli	t5,s3,0x10
ee0057aa:	b311                	j	ee0054ae <.L2140>

ee0057ac <.L2183>:
        item_removed->info=item_modified->info;
ee0057ac:	004d2783          	lw	a5,4(s10)

ee0057b0 <.LBB1003>:
        tail = NULL;
ee0057b0:	4681                	li	a3,0
        list = NULL;
ee0057b2:	4e81                	li	t4,0

ee0057b4 <.LBB1008>:
        item_removed->info=item_modified->info;
ee0057b4:	c15c                	sw	a5,4(a0)
        item_modified->info=tmp;
ee0057b6:	014d2223          	sw	s4,4(s10)
        item_removed->next=item_modified->next;
ee0057ba:	00152023          	sw	ra,0(a0)
        item_modified->next=item_removed;
ee0057be:	00ad2023          	sw	a0,0(s10)

ee0057c2 <.LBB1009>:
    insize = 1;
ee0057c2:	4905                	li	s2,1
        nmerges = 0;  /* count number of merges we do in this pass */
ee0057c4:	4b01                	li	s6,0
        if (nmerges <= 1)   /* allow for nmerges==0, the empty list case */
ee0057c6:	4a85                	li	s5,1

ee0057c8 <.L2185>:
            nmerges++;  /* there exists a merge to be done */
ee0057c8:	00797513          	andi	a0,s2,7
ee0057cc:	0b05                	addi	s6,s6,1

ee0057ce <.LVL1940>:
ee0057ce:	8ba2                	mv	s7,s0
            psize = 0;
ee0057d0:	4981                	li	s3,0
ee0057d2:	c925                	beqz	a0,ee005842 <.L2188>
ee0057d4:	4a05                	li	s4,1
ee0057d6:	05450f63          	beq	a0,s4,ee005834 <.L2402>
ee0057da:	4d09                	li	s10,2
ee0057dc:	05a50763          	beq	a0,s10,ee00582a <.L2403>
ee0057e0:	408d                	li	ra,3
ee0057e2:	02150f63          	beq	a0,ra,ee005820 <.L2404>
ee0057e6:	4711                	li	a4,4
ee0057e8:	02e50763          	beq	a0,a4,ee005816 <.L2405>
ee0057ec:	4d95                	li	s11,5
ee0057ee:	01b50f63          	beq	a0,s11,ee00580c <.L2406>
ee0057f2:	4599                	li	a1,6
ee0057f4:	00b50763          	beq	a0,a1,ee005802 <.L2407>

ee0057f8 <.LVL1941>:
                            q = q->next;
ee0057f8:	00042b83          	lw	s7,0(s0)
                psize++;
ee0057fc:	4985                	li	s3,1

ee0057fe <.LVL1942>:
                if (!q) break;
ee0057fe:	0a0b8163          	beqz	s7,ee0058a0 <.L2189>

ee005802 <.L2407>:
                            q = q->next;
ee005802:	000bab83          	lw	s7,0(s7)

ee005806 <.LVL1944>:
                psize++;
ee005806:	0985                	addi	s3,s3,1

ee005808 <.LVL1945>:
                if (!q) break;
ee005808:	080b8c63          	beqz	s7,ee0058a0 <.L2189>

ee00580c <.L2406>:
                            q = q->next;
ee00580c:	000bab83          	lw	s7,0(s7)

ee005810 <.LVL1947>:
                psize++;
ee005810:	0985                	addi	s3,s3,1

ee005812 <.LVL1948>:
                if (!q) break;
ee005812:	080b8763          	beqz	s7,ee0058a0 <.L2189>

ee005816 <.L2405>:
                            q = q->next;
ee005816:	000bab83          	lw	s7,0(s7)

ee00581a <.LVL1950>:
                psize++;
ee00581a:	0985                	addi	s3,s3,1

ee00581c <.LVL1951>:
                if (!q) break;
ee00581c:	080b8263          	beqz	s7,ee0058a0 <.L2189>

ee005820 <.L2404>:
                            q = q->next;
ee005820:	000bab83          	lw	s7,0(s7)

ee005824 <.LVL1953>:
                psize++;
ee005824:	0985                	addi	s3,s3,1

ee005826 <.LVL1954>:
                if (!q) break;
ee005826:	060b8d63          	beqz	s7,ee0058a0 <.L2189>

ee00582a <.L2403>:
                            q = q->next;
ee00582a:	000bab83          	lw	s7,0(s7)

ee00582e <.LVL1956>:
                psize++;
ee00582e:	0985                	addi	s3,s3,1

ee005830 <.LVL1957>:
                if (!q) break;
ee005830:	060b8863          	beqz	s7,ee0058a0 <.L2189>

ee005834 <.L2402>:
                            q = q->next;
ee005834:	000bab83          	lw	s7,0(s7)

ee005838 <.LVL1959>:
                psize++;
ee005838:	0985                	addi	s3,s3,1

ee00583a <.LVL1960>:
                if (!q) break;
ee00583a:	060b8363          	beqz	s7,ee0058a0 <.L2189>

ee00583e <.L2472>:
            for (i = 0; i < insize; i++) {
ee00583e:	07390163          	beq	s2,s3,ee0058a0 <.L2189>

ee005842 <.L2188>:
                            q = q->next;
ee005842:	000bab83          	lw	s7,0(s7)

ee005846 <.LVL1963>:
                psize++;
ee005846:	0985                	addi	s3,s3,1
ee005848:	884e                	mv	a6,s3

ee00584a <.LVL1964>:
                if (!q) break;
ee00584a:	040b8b63          	beqz	s7,ee0058a0 <.L2189>

ee00584e <.LVL1965>:
                            q = q->next;
ee00584e:	000bab83          	lw	s7,0(s7)

ee005852 <.LVL1966>:
                psize++;
ee005852:	0985                	addi	s3,s3,1

ee005854 <.LVL1967>:
                if (!q) break;
ee005854:	040b8663          	beqz	s7,ee0058a0 <.L2189>

ee005858 <.LVL1968>:
                            q = q->next;
ee005858:	000bab83          	lw	s7,0(s7)

ee00585c <.LVL1969>:
                psize++;
ee00585c:	00280993          	addi	s3,a6,2

ee005860 <.LVL1970>:
                if (!q) break;
ee005860:	040b8063          	beqz	s7,ee0058a0 <.L2189>

ee005864 <.LVL1971>:
                            q = q->next;
ee005864:	000bab83          	lw	s7,0(s7)

ee005868 <.LVL1972>:
                psize++;
ee005868:	00380993          	addi	s3,a6,3

ee00586c <.LVL1973>:
                if (!q) break;
ee00586c:	020b8a63          	beqz	s7,ee0058a0 <.L2189>

ee005870 <.LVL1974>:
                            q = q->next;
ee005870:	000bab83          	lw	s7,0(s7)

ee005874 <.LVL1975>:
                psize++;
ee005874:	00480993          	addi	s3,a6,4

ee005878 <.LVL1976>:
                if (!q) break;
ee005878:	020b8463          	beqz	s7,ee0058a0 <.L2189>

ee00587c <.LVL1977>:
                            q = q->next;
ee00587c:	000bab83          	lw	s7,0(s7)

ee005880 <.LVL1978>:
                psize++;
ee005880:	00580993          	addi	s3,a6,5

ee005884 <.LVL1979>:
                if (!q) break;
ee005884:	000b8e63          	beqz	s7,ee0058a0 <.L2189>

ee005888 <.LVL1980>:
                            q = q->next;
ee005888:	000bab83          	lw	s7,0(s7)

ee00588c <.LVL1981>:
                psize++;
ee00588c:	00680993          	addi	s3,a6,6

ee005890 <.LVL1982>:
                if (!q) break;
ee005890:	000b8863          	beqz	s7,ee0058a0 <.L2189>

ee005894 <.LVL1983>:
                            q = q->next;
ee005894:	000bab83          	lw	s7,0(s7)

ee005898 <.LVL1984>:
                psize++;
ee005898:	00780993          	addi	s3,a6,7

ee00589c <.LVL1985>:
                if (!q) break;
ee00589c:	fa0b91e3          	bnez	s7,ee00583e <.L2472>

ee0058a0 <.L2189>:
                                    list = e;
ee0058a0:	85ca                	mv	a1,s2

ee0058a2 <.LVL1987>:
            while (psize > 0 || (qsize > 0 && q)) {
ee0058a2:	06098663          	beqz	s3,ee00590e <.L2478>

ee0058a6 <.L2195>:
                                } else if (qsize == 0 || !q) {
ee0058a6:	cdbd                	beqz	a1,ee005924 <.L2473>
ee0058a8:	060b8e63          	beqz	s7,ee005924 <.L2473>
                                } else if (cmp(p->info,q->info,res) <= 0) {
ee0058ac:	405c                	lw	a5,4(s0)
ee0058ae:	004bad03          	lw	s10,4(s7)

ee0058b2 <.LBB1005>:
                a->data16 = (a->data16 & 0xff00) | (0x00ff & (a->data16>>8));
ee0058b2:	00079083          	lh	ra,0(a5)
        return a->idx - b->idx;
ee0058b6:	002d1283          	lh	t0,2(s10)
ee0058ba:	00279d83          	lh	s11,2(a5)
                a->data16 = (a->data16 & 0xff00) | (0x00ff & (a->data16>>8));
ee0058be:	01009513          	slli	a0,ra,0x10
ee0058c2:	01055f13          	srli	t5,a0,0x10
ee0058c6:	f000f813          	andi	a6,ra,-256
ee0058ca:	008f5313          	srli	t1,t5,0x8
ee0058ce:	00686733          	or	a4,a6,t1
ee0058d2:	00e79023          	sh	a4,0(a5)
                b->data16 = (b->data16 & 0xff00) | (0x00ff & (b->data16>>8));
ee0058d6:	000d1f83          	lh	t6,0(s10)
        return a->idx - b->idx;
ee0058da:	405d8e33          	sub	t3,s11,t0
                b->data16 = (b->data16 & 0xff00) | (0x00ff & (b->data16>>8));
ee0058de:	010f9a13          	slli	s4,t6,0x10
ee0058e2:	010a5393          	srli	t2,s4,0x10
ee0058e6:	f00ffc13          	andi	s8,t6,-256
ee0058ea:	0083d613          	srli	a2,t2,0x8
ee0058ee:	00cc6cb3          	or	s9,s8,a2
ee0058f2:	019d1023          	sh	s9,0(s10)

ee0058f6 <.LBE1005>:
                                } else if (cmp(p->info,q->info,res) <= 0) {
ee0058f6:	03c05763          	blez	t3,ee005924 <.L2473>

ee0058fa <.LVL1990>:
                                    e = q; q = q->next; qsize--;
ee0058fa:	88de                	mv	a7,s7
ee0058fc:	000bab83          	lw	s7,0(s7)

ee005900 <.LVL1991>:
ee005900:	15fd                	addi	a1,a1,-1

ee005902 <.L2190>:
                                if (tail) {
ee005902:	ce91                	beqz	a3,ee00591e <.L2228>

ee005904 <.L2479>:
                                    tail->next = e;
ee005904:	0116a023          	sw	a7,0(a3)
                                    list = e;
ee005908:	86c6                	mv	a3,a7

ee00590a <.L2480>:
            while (psize > 0 || (qsize > 0 && q)) {
ee00590a:	f8099ee3          	bnez	s3,ee0058a6 <.L2195>

ee00590e <.L2478>:
ee00590e:	cd99                	beqz	a1,ee00592c <.L2196>
ee005910:	020b8263          	beqz	s7,ee005934 <.L2198>

ee005914 <.LVL1995>:
                                    e = q; q = q->next; qsize--;
ee005914:	88de                	mv	a7,s7
ee005916:	15fd                	addi	a1,a1,-1
ee005918:	000bab83          	lw	s7,0(s7)

ee00591c <.LVL1997>:
                                if (tail) {
ee00591c:	f6e5                	bnez	a3,ee005904 <.L2479>

ee00591e <.L2228>:
                                    list = e;
ee00591e:	8ec6                	mv	t4,a7
ee005920:	86c6                	mv	a3,a7

ee005922 <.LVL1998>:
ee005922:	b7e5                	j	ee00590a <.L2480>

ee005924 <.L2473>:
                                    e = p; p = p->next; psize--;
ee005924:	88a2                	mv	a7,s0
ee005926:	19fd                	addi	s3,s3,-1

ee005928 <.LVL2000>:
ee005928:	4000                	lw	s0,0(s0)

ee00592a <.LVL2001>:
ee00592a:	bfe1                	j	ee005902 <.L2190>

ee00592c <.L2196>:
        while (p) {
ee00592c:	000b8463          	beqz	s7,ee005934 <.L2198>

ee005930 <.LVL2003>:
        nmerges = 0;  /* count number of merges we do in this pass */
ee005930:	845e                	mv	s0,s7
ee005932:	bd59                	j	ee0057c8 <.L2185>

ee005934 <.L2198>:
            tail->next = NULL;
ee005934:	0006a023          	sw	zero,0(a3)
        if (nmerges <= 1)   /* allow for nmerges==0, the empty list case */
ee005938:	015b0e63          	beq	s6,s5,ee005954 <.L2481>
        insize *= 2;
ee00593c:	0906                	slli	s2,s2,0x1

ee00593e <.LVL2005>:
        while (p) {
ee00593e:	000e8863          	beqz	t4,ee00594e <.L2468>
ee005942:	8bf6                	mv	s7,t4

ee005944 <.LVL2006>:
        tail = NULL;
ee005944:	4681                	li	a3,0
        list = NULL;
ee005946:	4e81                	li	t4,0

ee005948 <.LVL2007>:
        nmerges = 0;  /* count number of merges we do in this pass */
ee005948:	4b01                	li	s6,0

ee00594a <.LVL2008>:
ee00594a:	845e                	mv	s0,s7
ee00594c:	bdb5                	j	ee0057c8 <.L2185>

ee00594e <.L2468>:
            tail->next = NULL;
ee00594e:	00002023          	sw	zero,0(zero) # 0 <_start>
ee005952:	9002                	ebreak

ee005954 <.L2481>:
        finder=list->next;
ee005954:	000ea683          	lw	a3,0(t4)

ee005958 <.LVL2011>:
        while (finder) {
ee005958:	22068463          	beqz	a3,ee005b80 <.L2467>
                retval=crc16(list->info->data16,retval);
ee00595c:	004ea403          	lw	s0,4(t4)

ee005960 <.LBB1010>:
                   crc |= 0x8000;
ee005960:	73e9                	lui	t2,0xffffa
ee005962:	00138a93          	addi	s5,t2,1 # ffffa001 <STACK+0xffb1a51>

ee005966 <.LBE1010>:
                retval=crc16(list->info->data16,retval);
ee005966:	00041c03          	lh	s8,0(s0)

ee00596a <.LBB1030>:
        crc=crcu8( (ee_u8) ((newval)>>8)        ,crc);
ee00596a:	010c1613          	slli	a2,s8,0x10
ee00596e:	01065c93          	srli	s9,a2,0x10
ee005972:	008cde93          	srli	t4,s9,0x8

ee005976 <.LVL2012>:
        crc=crcu8( (ee_u8) (newval)                             ,crc);
ee005976:	0ffc7893          	andi	a7,s8,255

ee00597a <.LBB1019>:
                x16 = (ee_u8)((data & 1) ^ ((ee_u8)crc & 1));
ee00597a:	018c1f93          	slli	t6,s8,0x18

ee00597e <.LBB1020>:
ee00597e:	018e9e13          	slli	t3,t4,0x18

ee005982 <.LBB1024>:
ee005982:	418fdb13          	srai	s6,t6,0x18
ee005986:	0018d793          	srli	a5,a7,0x1
ee00598a:	0028dd13          	srli	s10,a7,0x2
ee00598e:	0038d093          	srli	ra,a7,0x3
ee005992:	0048dd93          	srli	s11,a7,0x4
ee005996:	0058d293          	srli	t0,a7,0x5
ee00599a:	0068d593          	srli	a1,a7,0x6
ee00599e:	0078db93          	srli	s7,a7,0x7

ee0059a2 <.LBB1025>:
ee0059a2:	418e5513          	srai	a0,t3,0x18
ee0059a6:	009cdf13          	srli	t5,s9,0x9
ee0059aa:	00acd993          	srli	s3,s9,0xa
ee0059ae:	00bcd913          	srli	s2,s9,0xb
ee0059b2:	00ccd313          	srli	t1,s9,0xc
ee0059b6:	00dcd413          	srli	s0,s9,0xd
ee0059ba:	00ecd813          	srli	a6,s9,0xe
ee0059be:	00fcd713          	srli	a4,s9,0xf

ee0059c2 <.L2220>:
ee0059c2:	009b4a33          	xor	s4,s6,s1
                if (x16 == 1)
ee0059c6:	001a7393          	andi	t2,s4,1
ee0059ca:	0014d613          	srli	a2,s1,0x1
ee0059ce:	00038863          	beqz	t2,ee0059de <.L2204>

ee0059d2 <.LVL2014>:
                   crc |= 0x8000;
ee0059d2:	015644b3          	xor	s1,a2,s5

ee0059d6 <.LVL2015>:
ee0059d6:	01049c13          	slli	s8,s1,0x10
ee0059da:	010c5613          	srli	a2,s8,0x10

ee0059de <.L2204>:
                x16 = (ee_u8)((data & 1) ^ ((ee_u8)crc & 1));
ee0059de:	00c7ccb3          	xor	s9,a5,a2
                if (x16 == 1)
ee0059e2:	001cf893          	andi	a7,s9,1
ee0059e6:	00165e13          	srli	t3,a2,0x1
ee0059ea:	00088863          	beqz	a7,ee0059fa <.L2205>

ee0059ee <.LVL2017>:
                   crc |= 0x8000;
ee0059ee:	015e4eb3          	xor	t4,t3,s5

ee0059f2 <.LVL2018>:
ee0059f2:	010e9f93          	slli	t6,t4,0x10
ee0059f6:	010fde13          	srli	t3,t6,0x10

ee0059fa <.L2205>:
                x16 = (ee_u8)((data & 1) ^ ((ee_u8)crc & 1));
ee0059fa:	01cd4a33          	xor	s4,s10,t3
                if (x16 == 1)
ee0059fe:	001a7393          	andi	t2,s4,1
ee005a02:	001e5613          	srli	a2,t3,0x1
ee005a06:	00038863          	beqz	t2,ee005a16 <.L2206>

ee005a0a <.LVL2020>:
                   crc |= 0x8000;
ee005a0a:	015644b3          	xor	s1,a2,s5

ee005a0e <.LVL2021>:
ee005a0e:	01049c13          	slli	s8,s1,0x10
ee005a12:	010c5613          	srli	a2,s8,0x10

ee005a16 <.L2206>:
                x16 = (ee_u8)((data & 1) ^ ((ee_u8)crc & 1));
ee005a16:	00c0ccb3          	xor	s9,ra,a2
                if (x16 == 1)
ee005a1a:	001cf893          	andi	a7,s9,1
ee005a1e:	00165e13          	srli	t3,a2,0x1
ee005a22:	00088863          	beqz	a7,ee005a32 <.L2207>

ee005a26 <.LVL2023>:
                   crc |= 0x8000;
ee005a26:	015e4eb3          	xor	t4,t3,s5

ee005a2a <.LVL2024>:
ee005a2a:	010e9f93          	slli	t6,t4,0x10
ee005a2e:	010fde13          	srli	t3,t6,0x10

ee005a32 <.L2207>:
                x16 = (ee_u8)((data & 1) ^ ((ee_u8)crc & 1));
ee005a32:	01cdca33          	xor	s4,s11,t3
                if (x16 == 1)
ee005a36:	001a7393          	andi	t2,s4,1
ee005a3a:	001e5613          	srli	a2,t3,0x1
ee005a3e:	00038863          	beqz	t2,ee005a4e <.L2208>

ee005a42 <.LVL2026>:
                   crc |= 0x8000;
ee005a42:	015644b3          	xor	s1,a2,s5

ee005a46 <.LVL2027>:
ee005a46:	01049c13          	slli	s8,s1,0x10
ee005a4a:	010c5613          	srli	a2,s8,0x10

ee005a4e <.L2208>:
                x16 = (ee_u8)((data & 1) ^ ((ee_u8)crc & 1));
ee005a4e:	00c2ccb3          	xor	s9,t0,a2
                if (x16 == 1)
ee005a52:	001cf893          	andi	a7,s9,1
ee005a56:	00165e13          	srli	t3,a2,0x1
ee005a5a:	00088863          	beqz	a7,ee005a6a <.L2209>

ee005a5e <.LVL2029>:
                   crc |= 0x8000;
ee005a5e:	015e4eb3          	xor	t4,t3,s5

ee005a62 <.LVL2030>:
ee005a62:	010e9f93          	slli	t6,t4,0x10
ee005a66:	010fde13          	srli	t3,t6,0x10

ee005a6a <.L2209>:
                x16 = (ee_u8)((data & 1) ^ ((ee_u8)crc & 1));
ee005a6a:	01c5ca33          	xor	s4,a1,t3
                if (x16 == 1)
ee005a6e:	001a7393          	andi	t2,s4,1
ee005a72:	001e5613          	srli	a2,t3,0x1
ee005a76:	00038863          	beqz	t2,ee005a86 <.L2210>

ee005a7a <.LVL2032>:
                   crc |= 0x8000;
ee005a7a:	015644b3          	xor	s1,a2,s5

ee005a7e <.LVL2033>:
ee005a7e:	01049c13          	slli	s8,s1,0x10
ee005a82:	010c5613          	srli	a2,s8,0x10

ee005a86 <.L2210>:
                if (x16 == 1)
ee005a86:	00167c93          	andi	s9,a2,1
ee005a8a:	00165f93          	srli	t6,a2,0x1
ee005a8e:	017c8863          	beq	s9,s7,ee005a9e <.L2211>

ee005a92 <.LVL2035>:
                   crc |= 0x8000;
ee005a92:	015fc8b3          	xor	a7,t6,s5

ee005a96 <.LVL2036>:
ee005a96:	01089e93          	slli	t4,a7,0x10
ee005a9a:	010edf93          	srli	t6,t4,0x10

ee005a9e <.L2211>:
                x16 = (ee_u8)((data & 1) ^ ((ee_u8)crc & 1));
ee005a9e:	01f54e33          	xor	t3,a0,t6
                if (x16 == 1)
ee005aa2:	001e7a13          	andi	s4,t3,1
ee005aa6:	001fdc13          	srli	s8,t6,0x1
ee005aaa:	000a0863          	beqz	s4,ee005aba <.L2212>

ee005aae <.LVL2038>:
                   crc |= 0x8000;
ee005aae:	015c43b3          	xor	t2,s8,s5

ee005ab2 <.LVL2039>:
ee005ab2:	01039493          	slli	s1,t2,0x10
ee005ab6:	0104dc13          	srli	s8,s1,0x10

ee005aba <.L2212>:
                x16 = (ee_u8)((data & 1) ^ ((ee_u8)crc & 1));
ee005aba:	018f4633          	xor	a2,t5,s8
                if (x16 == 1)
ee005abe:	00167c93          	andi	s9,a2,1
ee005ac2:	001c5f93          	srli	t6,s8,0x1
ee005ac6:	000c8863          	beqz	s9,ee005ad6 <.L2213>

ee005aca <.LVL2041>:
                   crc |= 0x8000;
ee005aca:	015fc8b3          	xor	a7,t6,s5

ee005ace <.LVL2042>:
ee005ace:	01089e93          	slli	t4,a7,0x10
ee005ad2:	010edf93          	srli	t6,t4,0x10

ee005ad6 <.L2213>:
                x16 = (ee_u8)((data & 1) ^ ((ee_u8)crc & 1));
ee005ad6:	01f9ce33          	xor	t3,s3,t6
                if (x16 == 1)
ee005ada:	001e7a13          	andi	s4,t3,1
ee005ade:	001fdc13          	srli	s8,t6,0x1
ee005ae2:	000a0863          	beqz	s4,ee005af2 <.L2214>

ee005ae6 <.LVL2044>:
                   crc |= 0x8000;
ee005ae6:	015c43b3          	xor	t2,s8,s5

ee005aea <.LVL2045>:
ee005aea:	01039493          	slli	s1,t2,0x10
ee005aee:	0104dc13          	srli	s8,s1,0x10

ee005af2 <.L2214>:
                x16 = (ee_u8)((data & 1) ^ ((ee_u8)crc & 1));
ee005af2:	01894633          	xor	a2,s2,s8
                if (x16 == 1)
ee005af6:	00167c93          	andi	s9,a2,1
ee005afa:	001c5f93          	srli	t6,s8,0x1
ee005afe:	000c8863          	beqz	s9,ee005b0e <.L2215>

ee005b02 <.LVL2047>:
                   crc |= 0x8000;
ee005b02:	015fc8b3          	xor	a7,t6,s5

ee005b06 <.LVL2048>:
ee005b06:	01089e93          	slli	t4,a7,0x10
ee005b0a:	010edf93          	srli	t6,t4,0x10

ee005b0e <.L2215>:
                x16 = (ee_u8)((data & 1) ^ ((ee_u8)crc & 1));
ee005b0e:	01f34e33          	xor	t3,t1,t6
                if (x16 == 1)
ee005b12:	001e7a13          	andi	s4,t3,1
ee005b16:	001fdc13          	srli	s8,t6,0x1
ee005b1a:	000a0863          	beqz	s4,ee005b2a <.L2216>

ee005b1e <.LVL2050>:
                   crc |= 0x8000;
ee005b1e:	015c43b3          	xor	t2,s8,s5

ee005b22 <.LVL2051>:
ee005b22:	01039493          	slli	s1,t2,0x10
ee005b26:	0104dc13          	srli	s8,s1,0x10

ee005b2a <.L2216>:
                x16 = (ee_u8)((data & 1) ^ ((ee_u8)crc & 1));
ee005b2a:	01844633          	xor	a2,s0,s8
                if (x16 == 1)
ee005b2e:	00167c93          	andi	s9,a2,1
ee005b32:	001c5f93          	srli	t6,s8,0x1
ee005b36:	000c8863          	beqz	s9,ee005b46 <.L2217>

ee005b3a <.LVL2053>:
                   crc |= 0x8000;
ee005b3a:	015fc8b3          	xor	a7,t6,s5

ee005b3e <.LVL2054>:
ee005b3e:	01089e93          	slli	t4,a7,0x10
ee005b42:	010edf93          	srli	t6,t4,0x10

ee005b46 <.L2217>:
                x16 = (ee_u8)((data & 1) ^ ((ee_u8)crc & 1));
ee005b46:	01f84e33          	xor	t3,a6,t6
                if (x16 == 1)
ee005b4a:	001e7a13          	andi	s4,t3,1
ee005b4e:	001fdc13          	srli	s8,t6,0x1
ee005b52:	000a0863          	beqz	s4,ee005b62 <.L2218>

ee005b56 <.LVL2056>:
                   crc |= 0x8000;
ee005b56:	015c43b3          	xor	t2,s8,s5

ee005b5a <.LVL2057>:
ee005b5a:	01039493          	slli	s1,t2,0x10
ee005b5e:	0104dc13          	srli	s8,s1,0x10

ee005b62 <.L2218>:
                if (x16 == 1)
ee005b62:	001c7613          	andi	a2,s8,1
ee005b66:	001c5493          	srli	s1,s8,0x1

ee005b6a <.LVL2059>:
ee005b6a:	00e60863          	beq	a2,a4,ee005b7a <.L2219>

ee005b6e <.LVL2060>:
                   crc |= 0x8000;
ee005b6e:	0154ccb3          	xor	s9,s1,s5

ee005b72 <.LVL2061>:
ee005b72:	010c9893          	slli	a7,s9,0x10
ee005b76:	0108d493          	srli	s1,a7,0x10

ee005b7a <.L2219>:
                finder=finder->next;
ee005b7a:	4294                	lw	a3,0(a3)
        while (finder) {
ee005b7c:	e40693e3          	bnez	a3,ee0059c2 <.L2220>

ee005b80 <.L2467>:
}
ee005b80:	50f2                	lw	ra,60(sp)
ee005b82:	5462                	lw	s0,56(sp)
ee005b84:	5942                	lw	s2,48(sp)
ee005b86:	59b2                	lw	s3,44(sp)
ee005b88:	5a22                	lw	s4,40(sp)
ee005b8a:	5a92                	lw	s5,36(sp)
ee005b8c:	5b02                	lw	s6,32(sp)
ee005b8e:	4bf2                	lw	s7,28(sp)
ee005b90:	4c62                	lw	s8,24(sp)
ee005b92:	4cd2                	lw	s9,20(sp)
ee005b94:	4d42                	lw	s10,16(sp)
ee005b96:	4db2                	lw	s11,12(sp)
ee005b98:	8526                	mv	a0,s1
ee005b9a:	54d2                	lw	s1,52(sp)
ee005b9c:	6121                	addi	sp,sp,64
ee005b9e:	8082                	ret

ee005ba0 <.L2476>:
    insize = 1;
ee005ba0:	4b05                	li	s6,1

ee005ba2 <.L2160>:
        while (p) {
ee005ba2:	da0406e3          	beqz	s0,ee00594e <.L2468>
        tail = NULL;
ee005ba6:	4901                	li	s2,0
        list = NULL;
ee005ba8:	4a81                	li	s5,0
        nmerges = 0;  /* count number of merges we do in this pass */
ee005baa:	4c01                	li	s8,0

ee005bac <.L2159>:
            nmerges++;  /* there exists a merge to be done */
ee005bac:	007b7313          	andi	t1,s6,7
ee005bb0:	0c05                	addi	s8,s8,1

ee005bb2 <.LVL2067>:
ee005bb2:	8622                	mv	a2,s0
            psize = 0;
ee005bb4:	4981                	li	s3,0
ee005bb6:	04030b63          	beqz	t1,ee005c0c <.L2148>
ee005bba:	4d05                	li	s10,1
ee005bbc:	05a30363          	beq	t1,s10,ee005c02 <.L2395>
ee005bc0:	4f89                	li	t6,2
ee005bc2:	03f30d63          	beq	t1,t6,ee005bfc <.L2396>
ee005bc6:	470d                	li	a4,3
ee005bc8:	02e30763          	beq	t1,a4,ee005bf6 <.L2397>
ee005bcc:	4091                	li	ra,4
ee005bce:	02130163          	beq	t1,ra,ee005bf0 <.L2398>
ee005bd2:	4295                	li	t0,5
ee005bd4:	00530b63          	beq	t1,t0,ee005bea <.L2399>
ee005bd8:	4f19                	li	t5,6
ee005bda:	01e30563          	beq	t1,t5,ee005be4 <.L2400>

ee005bde <.LVL2068>:
                            q = q->next;
ee005bde:	4010                	lw	a2,0(s0)
                psize++;
ee005be0:	4985                	li	s3,1

ee005be2 <.LVL2069>:
                if (!q) break;
ee005be2:	c625                	beqz	a2,ee005c4a <.L2149>

ee005be4 <.L2400>:
                            q = q->next;
ee005be4:	4210                	lw	a2,0(a2)

ee005be6 <.LVL2071>:
                psize++;
ee005be6:	0985                	addi	s3,s3,1

ee005be8 <.LVL2072>:
                if (!q) break;
ee005be8:	c22d                	beqz	a2,ee005c4a <.L2149>

ee005bea <.L2399>:
                            q = q->next;
ee005bea:	4210                	lw	a2,0(a2)

ee005bec <.LVL2074>:
                psize++;
ee005bec:	0985                	addi	s3,s3,1

ee005bee <.LVL2075>:
                if (!q) break;
ee005bee:	ce31                	beqz	a2,ee005c4a <.L2149>

ee005bf0 <.L2398>:
                            q = q->next;
ee005bf0:	4210                	lw	a2,0(a2)

ee005bf2 <.LVL2077>:
                psize++;
ee005bf2:	0985                	addi	s3,s3,1

ee005bf4 <.LVL2078>:
                if (!q) break;
ee005bf4:	ca39                	beqz	a2,ee005c4a <.L2149>

ee005bf6 <.L2397>:
                            q = q->next;
ee005bf6:	4210                	lw	a2,0(a2)

ee005bf8 <.LVL2080>:
                psize++;
ee005bf8:	0985                	addi	s3,s3,1

ee005bfa <.LVL2081>:
                if (!q) break;
ee005bfa:	ca21                	beqz	a2,ee005c4a <.L2149>

ee005bfc <.L2396>:
                            q = q->next;
ee005bfc:	4210                	lw	a2,0(a2)

ee005bfe <.LVL2083>:
                psize++;
ee005bfe:	0985                	addi	s3,s3,1

ee005c00 <.LVL2084>:
                if (!q) break;
ee005c00:	c629                	beqz	a2,ee005c4a <.L2149>

ee005c02 <.L2395>:
                            q = q->next;
ee005c02:	4210                	lw	a2,0(a2)

ee005c04 <.LVL2086>:
                psize++;
ee005c04:	0985                	addi	s3,s3,1

ee005c06 <.LVL2087>:
                if (!q) break;
ee005c06:	c231                	beqz	a2,ee005c4a <.L2149>

ee005c08 <.L2470>:
            for (i = 0; i < insize; i++) {
ee005c08:	05698163          	beq	s3,s6,ee005c4a <.L2149>

ee005c0c <.L2148>:
                            q = q->next;
ee005c0c:	4210                	lw	a2,0(a2)

ee005c0e <.LVL2090>:
                psize++;
ee005c0e:	0985                	addi	s3,s3,1
ee005c10:	83ce                	mv	t2,s3

ee005c12 <.LVL2091>:
                if (!q) break;
ee005c12:	ce05                	beqz	a2,ee005c4a <.L2149>

ee005c14 <.LVL2092>:
                            q = q->next;
ee005c14:	4210                	lw	a2,0(a2)

ee005c16 <.LVL2093>:
                psize++;
ee005c16:	0985                	addi	s3,s3,1

ee005c18 <.LVL2094>:
                if (!q) break;
ee005c18:	ca0d                	beqz	a2,ee005c4a <.L2149>

ee005c1a <.LVL2095>:
                            q = q->next;
ee005c1a:	4210                	lw	a2,0(a2)

ee005c1c <.LVL2096>:
                psize++;
ee005c1c:	00238993          	addi	s3,t2,2

ee005c20 <.LVL2097>:
                if (!q) break;
ee005c20:	c60d                	beqz	a2,ee005c4a <.L2149>

ee005c22 <.LVL2098>:
                            q = q->next;
ee005c22:	4210                	lw	a2,0(a2)

ee005c24 <.LVL2099>:
                psize++;
ee005c24:	00338993          	addi	s3,t2,3

ee005c28 <.LVL2100>:
                if (!q) break;
ee005c28:	c20d                	beqz	a2,ee005c4a <.L2149>

ee005c2a <.LVL2101>:
                            q = q->next;
ee005c2a:	4210                	lw	a2,0(a2)

ee005c2c <.LVL2102>:
                psize++;
ee005c2c:	00438993          	addi	s3,t2,4

ee005c30 <.LVL2103>:
                if (!q) break;
ee005c30:	ce09                	beqz	a2,ee005c4a <.L2149>

ee005c32 <.LVL2104>:
                            q = q->next;
ee005c32:	4210                	lw	a2,0(a2)

ee005c34 <.LVL2105>:
                psize++;
ee005c34:	00538993          	addi	s3,t2,5

ee005c38 <.LVL2106>:
                if (!q) break;
ee005c38:	ca09                	beqz	a2,ee005c4a <.L2149>

ee005c3a <.LVL2107>:
                            q = q->next;
ee005c3a:	4210                	lw	a2,0(a2)

ee005c3c <.LVL2108>:
                psize++;
ee005c3c:	00638993          	addi	s3,t2,6

ee005c40 <.LVL2109>:
                if (!q) break;
ee005c40:	c609                	beqz	a2,ee005c4a <.L2149>

ee005c42 <.LVL2110>:
                            q = q->next;
ee005c42:	4210                	lw	a2,0(a2)

ee005c44 <.LVL2111>:
                psize++;
ee005c44:	00738993          	addi	s3,t2,7

ee005c48 <.LVL2112>:
                if (!q) break;
ee005c48:	f261                	bnez	a2,ee005c08 <.L2470>

ee005c4a <.L2149>:
                                    list = e;
ee005c4a:	8d22                	mv	s10,s0

ee005c4c <.LVL2114>:
ee005c4c:	8a5a                	mv	s4,s6
ee005c4e:	8432                	mv	s0,a2

ee005c50 <.LVL2115>:
            while (psize > 0 || (qsize > 0 && q)) {
ee005c50:	02098763          	beqz	s3,ee005c7e <.L2482>

ee005c54 <.L2155>:
                                } else if (qsize == 0 || !q) {
ee005c54:	040a0063          	beqz	s4,ee005c94 <.L2471>
ee005c58:	cc15                	beqz	s0,ee005c94 <.L2471>
                                } else if (cmp(p->info,q->info,res) <= 0) {
ee005c5a:	404c                	lw	a1,4(s0)
ee005c5c:	004d2503          	lw	a0,4(s10)
ee005c60:	866e                	mv	a2,s11
ee005c62:	c1bfe0ef          	jal	ra,ee00487c <cmp_complex>

ee005c66 <.LVL2117>:
ee005c66:	02a05763          	blez	a0,ee005c94 <.L2471>

ee005c6a <.LVL2118>:
                                    e = q; q = q->next; qsize--;
ee005c6a:	87a2                	mv	a5,s0
ee005c6c:	4000                	lw	s0,0(s0)

ee005c6e <.LVL2119>:
ee005c6e:	1a7d                	addi	s4,s4,-1

ee005c70 <.L2150>:
                                if (tail) {
ee005c70:	00090f63          	beqz	s2,ee005c8e <.L2225>

ee005c74 <.L2483>:
                                    tail->next = e;
ee005c74:	00f92023          	sw	a5,0(s2)
                                    list = e;
ee005c78:	893e                	mv	s2,a5

ee005c7a <.L2484>:
            while (psize > 0 || (qsize > 0 && q)) {
ee005c7a:	fc099de3          	bnez	s3,ee005c54 <.L2155>

ee005c7e <.L2482>:
ee005c7e:	020a0063          	beqz	s4,ee005c9e <.L2156>
ee005c82:	cc19                	beqz	s0,ee005ca0 <.L2158>

ee005c84 <.LVL2123>:
                                    e = q; q = q->next; qsize--;
ee005c84:	87a2                	mv	a5,s0
ee005c86:	1a7d                	addi	s4,s4,-1

ee005c88 <.LVL2124>:
ee005c88:	4000                	lw	s0,0(s0)

ee005c8a <.LVL2125>:
                                if (tail) {
ee005c8a:	fe0915e3          	bnez	s2,ee005c74 <.L2483>

ee005c8e <.L2225>:
                                    list = e;
ee005c8e:	8abe                	mv	s5,a5
ee005c90:	893e                	mv	s2,a5

ee005c92 <.LVL2127>:
ee005c92:	b7e5                	j	ee005c7a <.L2484>

ee005c94 <.L2471>:
                                    e = p; p = p->next; psize--;
ee005c94:	87ea                	mv	a5,s10
ee005c96:	19fd                	addi	s3,s3,-1

ee005c98 <.LVL2129>:
ee005c98:	000d2d03          	lw	s10,0(s10)

ee005c9c <.LVL2130>:
ee005c9c:	bfd1                	j	ee005c70 <.L2150>

ee005c9e <.L2156>:
        while (p) {
ee005c9e:	f419                	bnez	s0,ee005bac <.L2159>

ee005ca0 <.L2158>:
            tail->next = NULL;
ee005ca0:	00092023          	sw	zero,0(s2)
        if (nmerges <= 1)   /* allow for nmerges==0, the empty list case */
ee005ca4:	4405                	li	s0,1
ee005ca6:	008c0563          	beq	s8,s0,ee005cb0 <.L2226>
        insize *= 2;
ee005caa:	0b06                	slli	s6,s6,0x1

ee005cac <.LVL2133>:
        p = list;
ee005cac:	8456                	mv	s0,s5
ee005cae:	bdd5                	j	ee005ba2 <.L2160>

ee005cb0 <.L2226>:
ee005cb0:	8456                	mv	s0,s5
ee005cb2:	b805                	j	ee0054e2 <.L2144>

ee005cb4 <.L2222>:
ee005cb4:	4c81                	li	s9,0

ee005cb6 <.LBE1036>:
        info.idx=finder_idx;
ee005cb6:	8bae                	mv	s7,a1
        for (i=0; i<find_num; i++) {
ee005cb8:	4481                	li	s1,0
ee005cba:	b015                	j	ee0054de <.L2130>

ee005cbc <.L2132>:
                        retval+=(list->next->info->data16 >> 8) & 1;
ee005cbc:	00002783          	lw	a5,0(zero) # 0 <_start>
ee005cc0:	9002                	ebreak

ee005cc2 <iterate>:
void *iterate(void *pres) {
ee005cc2:	1101                	addi	sp,sp,-32
ee005cc4:	ca26                	sw	s1,20(sp)
        ee_u32 iterations=res->iterations;
ee005cc6:	4d44                	lw	s1,28(a0)
void *iterate(void *pres) {
ee005cc8:	cc22                	sw	s0,24(sp)
ee005cca:	c84a                	sw	s2,16(sp)
ee005ccc:	c64e                	sw	s3,12(sp)
ee005cce:	ce06                	sw	ra,28(sp)

ee005cd0 <.LBB1050>:
                   crc |= 0x8000;
ee005cd0:	7969                	lui	s2,0xffffa

ee005cd2 <.LBE1050>:
        res->crc=0;
ee005cd2:	02052c23          	sw	zero,56(a0)
ee005cd6:	02052e23          	sw	zero,60(a0)
void *iterate(void *pres) {
ee005cda:	89aa                	mv	s3,a0

ee005cdc <.LVL2138>:
        for (i=0; i<iterations; i++) {
ee005cdc:	4401                	li	s0,0

ee005cde <.LBB1056>:
                   crc |= 0x8000;
ee005cde:	0905                	addi	s2,s2,1

ee005ce0 <.LBE1056>:
        for (i=0; i<iterations; i++) {
ee005ce0:	40048e63          	beqz	s1,ee0060fc <.L2556>

ee005ce4 <.L2486>:
                crc=core_bench_list(res,1);
ee005ce4:	4585                	li	a1,1
ee005ce6:	854e                	mv	a0,s3
ee005ce8:	eacff0ef          	jal	ra,ee005394 <core_bench_list>

ee005cec <.LVL2140>:
                res->crc=crcu16(crc,res->crc);
ee005cec:	0389d783          	lhu	a5,56(s3)

ee005cf0 <.LBB1065>:
        crc=crcu8( (ee_u8) (newval)                             ,crc);
ee005cf0:	0ff57693          	andi	a3,a0,255

ee005cf4 <.LBB1057>:
                data >>= 1;
ee005cf4:	0016d613          	srli	a2,a3,0x1

ee005cf8 <.LVL2143>:
                x16 = (ee_u8)((data & 1) ^ ((ee_u8)crc & 1));
ee005cf8:	00a7c733          	xor	a4,a5,a0
                if (x16 == 1)
ee005cfc:	00177293          	andi	t0,a4,1
                   crc |= 0x8000;
ee005d00:	0017d393          	srli	t2,a5,0x1
                if (x16 == 1)
ee005d04:	00028863          	beqz	t0,ee005d14 <.L2488>

ee005d08 <.LVL2144>:
                   crc |= 0x8000;
ee005d08:	0123c0b3          	xor	ra,t2,s2
ee005d0c:	01009313          	slli	t1,ra,0x10
ee005d10:	01035393          	srli	t2,t1,0x10

ee005d14 <.L2488>:
                x16 = (ee_u8)((data & 1) ^ ((ee_u8)crc & 1));
ee005d14:	00c3c5b3          	xor	a1,t2,a2
                if (x16 == 1)
ee005d18:	0015f813          	andi	a6,a1,1
                data >>= 1;
ee005d1c:	0026d893          	srli	a7,a3,0x2

ee005d20 <.LVL2146>:
                if (x16 == 1)
ee005d20:	0013df13          	srli	t5,t2,0x1
ee005d24:	00080863          	beqz	a6,ee005d34 <.L2489>

ee005d28 <.LVL2147>:
                   crc |= 0x8000;
ee005d28:	012f4e33          	xor	t3,t5,s2

ee005d2c <.LVL2148>:
ee005d2c:	010e1e93          	slli	t4,t3,0x10
ee005d30:	010edf13          	srli	t5,t4,0x10

ee005d34 <.L2489>:
                x16 = (ee_u8)((data & 1) ^ ((ee_u8)crc & 1));
ee005d34:	011f4fb3          	xor	t6,t5,a7
                if (x16 == 1)
ee005d38:	001ff713          	andi	a4,t6,1
                data >>= 1;
ee005d3c:	0036d293          	srli	t0,a3,0x3

ee005d40 <.LVL2150>:
                if (x16 == 1)
ee005d40:	001f5093          	srli	ra,t5,0x1
ee005d44:	c719                	beqz	a4,ee005d52 <.L2490>

ee005d46 <.LVL2151>:
                   crc |= 0x8000;
ee005d46:	0120c7b3          	xor	a5,ra,s2

ee005d4a <.LVL2152>:
ee005d4a:	01079613          	slli	a2,a5,0x10
ee005d4e:	01065093          	srli	ra,a2,0x10

ee005d52 <.L2490>:
                x16 = (ee_u8)((data & 1) ^ ((ee_u8)crc & 1));
ee005d52:	0050c333          	xor	t1,ra,t0
                if (x16 == 1)
ee005d56:	00137393          	andi	t2,t1,1
                data >>= 1;
ee005d5a:	0046d593          	srli	a1,a3,0x4

ee005d5e <.LVL2154>:
                if (x16 == 1)
ee005d5e:	0010de13          	srli	t3,ra,0x1
ee005d62:	00038863          	beqz	t2,ee005d72 <.L2491>

ee005d66 <.LVL2155>:
                   crc |= 0x8000;
ee005d66:	012e4833          	xor	a6,t3,s2

ee005d6a <.LVL2156>:
ee005d6a:	01081893          	slli	a7,a6,0x10
ee005d6e:	0108de13          	srli	t3,a7,0x10

ee005d72 <.L2491>:
                x16 = (ee_u8)((data & 1) ^ ((ee_u8)crc & 1));
ee005d72:	00be4eb3          	xor	t4,t3,a1
                if (x16 == 1)
ee005d76:	001eff13          	andi	t5,t4,1
                data >>= 1;
ee005d7a:	0056df93          	srli	t6,a3,0x5

ee005d7e <.LVL2158>:
                if (x16 == 1)
ee005d7e:	001e5793          	srli	a5,t3,0x1
ee005d82:	000f0863          	beqz	t5,ee005d92 <.L2492>

ee005d86 <.LVL2159>:
                   crc |= 0x8000;
ee005d86:	0127c733          	xor	a4,a5,s2

ee005d8a <.LVL2160>:
ee005d8a:	01071293          	slli	t0,a4,0x10
ee005d8e:	0102d793          	srli	a5,t0,0x10

ee005d92 <.L2492>:
                x16 = (ee_u8)((data & 1) ^ ((ee_u8)crc & 1));
ee005d92:	01f7c633          	xor	a2,a5,t6
                if (x16 == 1)
ee005d96:	00167093          	andi	ra,a2,1
                data >>= 1;
ee005d9a:	0066d313          	srli	t1,a3,0x6

ee005d9e <.LVL2162>:
                if (x16 == 1)
ee005d9e:	0017d813          	srli	a6,a5,0x1
ee005da2:	00008863          	beqz	ra,ee005db2 <.L2493>

ee005da6 <.LVL2163>:
                   crc |= 0x8000;
ee005da6:	012843b3          	xor	t2,a6,s2

ee005daa <.LVL2164>:
ee005daa:	01039593          	slli	a1,t2,0x10
ee005dae:	0105d813          	srli	a6,a1,0x10

ee005db2 <.L2493>:
                x16 = (ee_u8)((data & 1) ^ ((ee_u8)crc & 1));
ee005db2:	006848b3          	xor	a7,a6,t1
                if (x16 == 1)
ee005db6:	0018fe13          	andi	t3,a7,1
                data >>= 1;
ee005dba:	829d                	srli	a3,a3,0x7

ee005dbc <.LVL2166>:
                if (x16 == 1)
ee005dbc:	00185f93          	srli	t6,a6,0x1
ee005dc0:	000e0863          	beqz	t3,ee005dd0 <.L2494>

ee005dc4 <.LVL2167>:
                   crc |= 0x8000;
ee005dc4:	012fceb3          	xor	t4,t6,s2

ee005dc8 <.LVL2168>:
ee005dc8:	010e9f13          	slli	t5,t4,0x10
ee005dcc:	010f5f93          	srli	t6,t5,0x10

ee005dd0 <.L2494>:
                if (x16 == 1)
ee005dd0:	001ff713          	andi	a4,t6,1
ee005dd4:	001fd093          	srli	ra,t6,0x1
ee005dd8:	00d70863          	beq	a4,a3,ee005de8 <.L2495>

ee005ddc <.LVL2170>:
                   crc |= 0x8000;
ee005ddc:	0120c2b3          	xor	t0,ra,s2

ee005de0 <.LVL2171>:
ee005de0:	01029793          	slli	a5,t0,0x10
ee005de4:	0107d093          	srli	ra,a5,0x10

ee005de8 <.L2495>:
        crc=crcu8( (ee_u8) ((newval)>>8)        ,crc);
ee005de8:	8121                	srli	a0,a0,0x8

ee005dea <.LBB1058>:
                x16 = (ee_u8)((data & 1) ^ ((ee_u8)crc & 1));
ee005dea:	00154633          	xor	a2,a0,ra

ee005dee <.LBE1058>:
        crc=crcu8( (ee_u8) ((newval)>>8)        ,crc);
ee005dee:	0ff57313          	andi	t1,a0,255

ee005df2 <.LBB1061>:
                if (x16 == 1)
ee005df2:	00167393          	andi	t2,a2,1
                data >>= 1;
ee005df6:	00135593          	srli	a1,t1,0x1

ee005dfa <.LVL2175>:
                if (x16 == 1)
ee005dfa:	0010de13          	srli	t3,ra,0x1
ee005dfe:	00038863          	beqz	t2,ee005e0e <.L2496>

ee005e02 <.LVL2176>:
                   crc |= 0x8000;
ee005e02:	012e4833          	xor	a6,t3,s2

ee005e06 <.LVL2177>:
ee005e06:	01081893          	slli	a7,a6,0x10
ee005e0a:	0108de13          	srli	t3,a7,0x10

ee005e0e <.L2496>:
                x16 = (ee_u8)((data & 1) ^ ((ee_u8)crc & 1));
ee005e0e:	00be46b3          	xor	a3,t3,a1
                if (x16 == 1)
ee005e12:	0016fe93          	andi	t4,a3,1
                data >>= 1;
ee005e16:	00235f13          	srli	t5,t1,0x2

ee005e1a <.LVL2179>:
                if (x16 == 1)
ee005e1a:	001e5293          	srli	t0,t3,0x1
ee005e1e:	000e8863          	beqz	t4,ee005e2e <.L2497>

ee005e22 <.LVL2180>:
                   crc |= 0x8000;
ee005e22:	0122cfb3          	xor	t6,t0,s2

ee005e26 <.LVL2181>:
ee005e26:	010f9713          	slli	a4,t6,0x10
ee005e2a:	01075293          	srli	t0,a4,0x10

ee005e2e <.L2497>:
                x16 = (ee_u8)((data & 1) ^ ((ee_u8)crc & 1));
ee005e2e:	01e2c7b3          	xor	a5,t0,t5
                if (x16 == 1)
ee005e32:	0017f093          	andi	ra,a5,1
                data >>= 1;
ee005e36:	00335513          	srli	a0,t1,0x3

ee005e3a <.LVL2183>:
                if (x16 == 1)
ee005e3a:	0012d593          	srli	a1,t0,0x1
ee005e3e:	00008863          	beqz	ra,ee005e4e <.L2498>

ee005e42 <.LVL2184>:
                   crc |= 0x8000;
ee005e42:	0125c633          	xor	a2,a1,s2

ee005e46 <.LVL2185>:
ee005e46:	01061393          	slli	t2,a2,0x10
ee005e4a:	0103d593          	srli	a1,t2,0x10

ee005e4e <.L2498>:
                x16 = (ee_u8)((data & 1) ^ ((ee_u8)crc & 1));
ee005e4e:	00a5c833          	xor	a6,a1,a0
                if (x16 == 1)
ee005e52:	00187893          	andi	a7,a6,1
                data >>= 1;
ee005e56:	00435e13          	srli	t3,t1,0x4

ee005e5a <.LVL2187>:
                if (x16 == 1)
ee005e5a:	0015df13          	srli	t5,a1,0x1
ee005e5e:	00088863          	beqz	a7,ee005e6e <.L2499>

ee005e62 <.LVL2188>:
                   crc |= 0x8000;
ee005e62:	012f46b3          	xor	a3,t5,s2

ee005e66 <.LVL2189>:
ee005e66:	01069e93          	slli	t4,a3,0x10
ee005e6a:	010edf13          	srli	t5,t4,0x10

ee005e6e <.L2499>:
                x16 = (ee_u8)((data & 1) ^ ((ee_u8)crc & 1));
ee005e6e:	01cf4fb3          	xor	t6,t5,t3
                if (x16 == 1)
ee005e72:	001ff713          	andi	a4,t6,1
                data >>= 1;
ee005e76:	00535293          	srli	t0,t1,0x5

ee005e7a <.LVL2191>:
                if (x16 == 1)
ee005e7a:	001f5513          	srli	a0,t5,0x1
ee005e7e:	c719                	beqz	a4,ee005e8c <.L2500>

ee005e80 <.LVL2192>:
                   crc |= 0x8000;
ee005e80:	012547b3          	xor	a5,a0,s2

ee005e84 <.LVL2193>:
ee005e84:	01079093          	slli	ra,a5,0x10
ee005e88:	0100d513          	srli	a0,ra,0x10

ee005e8c <.L2500>:
                x16 = (ee_u8)((data & 1) ^ ((ee_u8)crc & 1));
ee005e8c:	00554633          	xor	a2,a0,t0
                if (x16 == 1)
ee005e90:	00167393          	andi	t2,a2,1
                data >>= 1;
ee005e94:	00635593          	srli	a1,t1,0x6

ee005e98 <.LVL2195>:
                if (x16 == 1)
ee005e98:	00155e13          	srli	t3,a0,0x1
ee005e9c:	00038863          	beqz	t2,ee005eac <.L2501>

ee005ea0 <.LVL2196>:
                   crc |= 0x8000;
ee005ea0:	012e4833          	xor	a6,t3,s2

ee005ea4 <.LVL2197>:
ee005ea4:	01081893          	slli	a7,a6,0x10
ee005ea8:	0108de13          	srli	t3,a7,0x10

ee005eac <.L2501>:
                x16 = (ee_u8)((data & 1) ^ ((ee_u8)crc & 1));
ee005eac:	00be46b3          	xor	a3,t3,a1
                if (x16 == 1)
ee005eb0:	0016fe93          	andi	t4,a3,1
                data >>= 1;
ee005eb4:	00735313          	srli	t1,t1,0x7

ee005eb8 <.LVL2199>:
                if (x16 == 1)
ee005eb8:	001e5293          	srli	t0,t3,0x1
ee005ebc:	000e8863          	beqz	t4,ee005ecc <.L2502>

ee005ec0 <.LVL2200>:
                   crc |= 0x8000;
ee005ec0:	0122cf33          	xor	t5,t0,s2

ee005ec4 <.LVL2201>:
ee005ec4:	010f1f93          	slli	t6,t5,0x10
ee005ec8:	010fd293          	srli	t0,t6,0x10

ee005ecc <.L2502>:
                x16 = (ee_u8)((data & 1) ^ ((ee_u8)crc & 1));
ee005ecc:	0062c733          	xor	a4,t0,t1
                if (x16 == 1)
ee005ed0:	00177093          	andi	ra,a4,1
ee005ed4:	0012d613          	srli	a2,t0,0x1
ee005ed8:	00008863          	beqz	ra,ee005ee8 <.L2503>

ee005edc <.LVL2203>:
                   crc |= 0x8000;
ee005edc:	012647b3          	xor	a5,a2,s2
ee005ee0:	01079513          	slli	a0,a5,0x10
ee005ee4:	01055613          	srli	a2,a0,0x10

ee005ee8 <.L2503>:
                crc=core_bench_list(res,-1);
ee005ee8:	55fd                	li	a1,-1
                res->crc=crcu16(crc,res->crc);
ee005eea:	02c99c23          	sh	a2,56(s3)
                crc=core_bench_list(res,-1);
ee005eee:	854e                	mv	a0,s3
ee005ef0:	ca4ff0ef          	jal	ra,ee005394 <core_bench_list>

ee005ef4 <.LVL2205>:
                res->crc=crcu16(crc,res->crc);
ee005ef4:	0389d383          	lhu	t2,56(s3)

ee005ef8 <.LBB1066>:
        crc=crcu8( (ee_u8) (newval)                             ,crc);
ee005ef8:	0ff57593          	andi	a1,a0,255

ee005efc <.LBB1068>:
                data >>= 1;
ee005efc:	0015de13          	srli	t3,a1,0x1

ee005f00 <.LVL2208>:
                x16 = (ee_u8)((data & 1) ^ ((ee_u8)crc & 1));
ee005f00:	00a3c833          	xor	a6,t2,a0
                if (x16 == 1)
ee005f04:	00187893          	andi	a7,a6,1
                crc >>= 1;
ee005f08:	0013d313          	srli	t1,t2,0x1
                if (x16 == 1)
ee005f0c:	00088863          	beqz	a7,ee005f1c <.L2505>

ee005f10 <.LVL2209>:
                   crc |= 0x8000;
ee005f10:	012346b3          	xor	a3,t1,s2
ee005f14:	01069e93          	slli	t4,a3,0x10
ee005f18:	010ed313          	srli	t1,t4,0x10

ee005f1c <.L2505>:
                x16 = (ee_u8)((data & 1) ^ ((ee_u8)crc & 1));
ee005f1c:	01c34f33          	xor	t5,t1,t3
                if (x16 == 1)
ee005f20:	001f7f93          	andi	t6,t5,1
                data >>= 1;
ee005f24:	0025d293          	srli	t0,a1,0x2

ee005f28 <.LVL2211>:
                if (x16 == 1)
ee005f28:	00135793          	srli	a5,t1,0x1
ee005f2c:	000f8863          	beqz	t6,ee005f3c <.L2506>

ee005f30 <.LVL2212>:
                   crc |= 0x8000;
ee005f30:	0127c733          	xor	a4,a5,s2

ee005f34 <.LVL2213>:
ee005f34:	01071093          	slli	ra,a4,0x10
ee005f38:	0100d793          	srli	a5,ra,0x10

ee005f3c <.L2506>:
                x16 = (ee_u8)((data & 1) ^ ((ee_u8)crc & 1));
ee005f3c:	0057c633          	xor	a2,a5,t0
                if (x16 == 1)
ee005f40:	00167393          	andi	t2,a2,1

ee005f44 <.LVL2215>:
                data >>= 1;
ee005f44:	0035d813          	srli	a6,a1,0x3

ee005f48 <.LVL2216>:
                if (x16 == 1)
ee005f48:	0017d693          	srli	a3,a5,0x1
ee005f4c:	00038863          	beqz	t2,ee005f5c <.L2507>

ee005f50 <.LVL2217>:
                   crc |= 0x8000;
ee005f50:	0126c8b3          	xor	a7,a3,s2

ee005f54 <.LVL2218>:
ee005f54:	01089e13          	slli	t3,a7,0x10
ee005f58:	010e5693          	srli	a3,t3,0x10

ee005f5c <.L2507>:
                x16 = (ee_u8)((data & 1) ^ ((ee_u8)crc & 1));
ee005f5c:	0106ceb3          	xor	t4,a3,a6
                if (x16 == 1)
ee005f60:	001ef313          	andi	t1,t4,1
                data >>= 1;
ee005f64:	0045df13          	srli	t5,a1,0x4

ee005f68 <.LVL2220>:
                if (x16 == 1)
ee005f68:	0016d093          	srli	ra,a3,0x1
ee005f6c:	00030863          	beqz	t1,ee005f7c <.L2508>

ee005f70 <.LVL2221>:
                   crc |= 0x8000;
ee005f70:	0120cfb3          	xor	t6,ra,s2

ee005f74 <.LVL2222>:
ee005f74:	010f9293          	slli	t0,t6,0x10
ee005f78:	0102d093          	srli	ra,t0,0x10

ee005f7c <.L2508>:
                x16 = (ee_u8)((data & 1) ^ ((ee_u8)crc & 1));
ee005f7c:	01e0c733          	xor	a4,ra,t5
                if (x16 == 1)
ee005f80:	00177393          	andi	t2,a4,1
                data >>= 1;
ee005f84:	0055d613          	srli	a2,a1,0x5

ee005f88 <.LVL2224>:
                if (x16 == 1)
ee005f88:	0010d893          	srli	a7,ra,0x1
ee005f8c:	00038863          	beqz	t2,ee005f9c <.L2509>

ee005f90 <.LVL2225>:
                   crc |= 0x8000;
ee005f90:	0128c7b3          	xor	a5,a7,s2

ee005f94 <.LVL2226>:
ee005f94:	01079813          	slli	a6,a5,0x10
ee005f98:	01085893          	srli	a7,a6,0x10

ee005f9c <.L2509>:
                x16 = (ee_u8)((data & 1) ^ ((ee_u8)crc & 1));
ee005f9c:	00c8ce33          	xor	t3,a7,a2
                if (x16 == 1)
ee005fa0:	001e7693          	andi	a3,t3,1
                data >>= 1;
ee005fa4:	0065de93          	srli	t4,a1,0x6

ee005fa8 <.LVL2228>:
                if (x16 == 1)
ee005fa8:	0018df93          	srli	t6,a7,0x1
ee005fac:	c699                	beqz	a3,ee005fba <.L2510>

ee005fae <.LVL2229>:
                   crc |= 0x8000;
ee005fae:	012fc333          	xor	t1,t6,s2

ee005fb2 <.LVL2230>:
ee005fb2:	01031f13          	slli	t5,t1,0x10
ee005fb6:	010f5f93          	srli	t6,t5,0x10

ee005fba <.L2510>:
                x16 = (ee_u8)((data & 1) ^ ((ee_u8)crc & 1));
ee005fba:	01dfc2b3          	xor	t0,t6,t4
                if (x16 == 1)
ee005fbe:	0012f093          	andi	ra,t0,1
                data >>= 1;
ee005fc2:	819d                	srli	a1,a1,0x7

ee005fc4 <.LVL2232>:
                if (x16 == 1)
ee005fc4:	001fd613          	srli	a2,t6,0x1
ee005fc8:	00008863          	beqz	ra,ee005fd8 <.L2511>

ee005fcc <.LVL2233>:
                   crc |= 0x8000;
ee005fcc:	01264733          	xor	a4,a2,s2

ee005fd0 <.LVL2234>:
ee005fd0:	01071393          	slli	t2,a4,0x10
ee005fd4:	0103d613          	srli	a2,t2,0x10

ee005fd8 <.L2511>:
                if (x16 == 1)
ee005fd8:	00167813          	andi	a6,a2,1
ee005fdc:	00165e13          	srli	t3,a2,0x1
ee005fe0:	00b80863          	beq	a6,a1,ee005ff0 <.L2512>

ee005fe4 <.LVL2236>:
                   crc |= 0x8000;
ee005fe4:	012e47b3          	xor	a5,t3,s2

ee005fe8 <.LVL2237>:
ee005fe8:	01079893          	slli	a7,a5,0x10
ee005fec:	0108de13          	srli	t3,a7,0x10

ee005ff0 <.L2512>:
        crc=crcu8( (ee_u8) ((newval)>>8)        ,crc);
ee005ff0:	8121                	srli	a0,a0,0x8

ee005ff2 <.LBB1070>:
                x16 = (ee_u8)((data & 1) ^ ((ee_u8)crc & 1));
ee005ff2:	01c546b3          	xor	a3,a0,t3

ee005ff6 <.LBE1070>:
        crc=crcu8( (ee_u8) ((newval)>>8)        ,crc);
ee005ff6:	0ff57e93          	andi	t4,a0,255

ee005ffa <.LBB1073>:
                if (x16 == 1)
ee005ffa:	0016f313          	andi	t1,a3,1
                data >>= 1;
ee005ffe:	001edf13          	srli	t5,t4,0x1

ee006002 <.LVL2241>:
                if (x16 == 1)
ee006002:	001e5093          	srli	ra,t3,0x1
ee006006:	00030863          	beqz	t1,ee006016 <.L2513>

ee00600a <.LVL2242>:
                   crc |= 0x8000;
ee00600a:	0120cfb3          	xor	t6,ra,s2

ee00600e <.LVL2243>:
ee00600e:	010f9293          	slli	t0,t6,0x10
ee006012:	0102d093          	srli	ra,t0,0x10

ee006016 <.L2513>:
                x16 = (ee_u8)((data & 1) ^ ((ee_u8)crc & 1));
ee006016:	01e0c5b3          	xor	a1,ra,t5
                if (x16 == 1)
ee00601a:	0015f713          	andi	a4,a1,1
                data >>= 1;
ee00601e:	002ed393          	srli	t2,t4,0x2

ee006022 <.LVL2245>:
                if (x16 == 1)
ee006022:	0010d793          	srli	a5,ra,0x1
ee006026:	c719                	beqz	a4,ee006034 <.L2514>

ee006028 <.LVL2246>:
                   crc |= 0x8000;
ee006028:	0127c633          	xor	a2,a5,s2

ee00602c <.LVL2247>:
ee00602c:	01061813          	slli	a6,a2,0x10
ee006030:	01085793          	srli	a5,a6,0x10

ee006034 <.L2514>:
                x16 = (ee_u8)((data & 1) ^ ((ee_u8)crc & 1));
ee006034:	0077c8b3          	xor	a7,a5,t2
                if (x16 == 1)
ee006038:	0018fe13          	andi	t3,a7,1
                data >>= 1;
ee00603c:	003ed513          	srli	a0,t4,0x3

ee006040 <.LVL2249>:
                if (x16 == 1)
ee006040:	0017df13          	srli	t5,a5,0x1
ee006044:	000e0863          	beqz	t3,ee006054 <.L2515>

ee006048 <.LVL2250>:
                   crc |= 0x8000;
ee006048:	012f46b3          	xor	a3,t5,s2

ee00604c <.LVL2251>:
ee00604c:	01069313          	slli	t1,a3,0x10
ee006050:	01035f13          	srli	t5,t1,0x10

ee006054 <.L2515>:
                x16 = (ee_u8)((data & 1) ^ ((ee_u8)crc & 1));
ee006054:	00af4fb3          	xor	t6,t5,a0
                if (x16 == 1)
ee006058:	001ff293          	andi	t0,t6,1
                data >>= 1;
ee00605c:	004ed093          	srli	ra,t4,0x4

ee006060 <.LVL2253>:
                if (x16 == 1)
ee006060:	001f5393          	srli	t2,t5,0x1
ee006064:	00028863          	beqz	t0,ee006074 <.L2516>

ee006068 <.LVL2254>:
                   crc |= 0x8000;
ee006068:	0123c5b3          	xor	a1,t2,s2

ee00606c <.LVL2255>:
ee00606c:	01059713          	slli	a4,a1,0x10
ee006070:	01075393          	srli	t2,a4,0x10

ee006074 <.L2516>:
                x16 = (ee_u8)((data & 1) ^ ((ee_u8)crc & 1));
ee006074:	0013c633          	xor	a2,t2,ra
                if (x16 == 1)
ee006078:	00167813          	andi	a6,a2,1
                data >>= 1;
ee00607c:	005ed893          	srli	a7,t4,0x5

ee006080 <.LVL2257>:
                if (x16 == 1)
ee006080:	0013d513          	srli	a0,t2,0x1
ee006084:	00080863          	beqz	a6,ee006094 <.L2517>

ee006088 <.LVL2258>:
                   crc |= 0x8000;
ee006088:	012547b3          	xor	a5,a0,s2

ee00608c <.LVL2259>:
ee00608c:	01079e13          	slli	t3,a5,0x10
ee006090:	010e5513          	srli	a0,t3,0x10

ee006094 <.L2517>:
                x16 = (ee_u8)((data & 1) ^ ((ee_u8)crc & 1));
ee006094:	011546b3          	xor	a3,a0,a7
                if (x16 == 1)
ee006098:	0016f313          	andi	t1,a3,1
                data >>= 1;
ee00609c:	006edf13          	srli	t5,t4,0x6

ee0060a0 <.LVL2261>:
                if (x16 == 1)
ee0060a0:	00155093          	srli	ra,a0,0x1
ee0060a4:	00030863          	beqz	t1,ee0060b4 <.L2518>

ee0060a8 <.LVL2262>:
                   crc |= 0x8000;
ee0060a8:	0120cfb3          	xor	t6,ra,s2

ee0060ac <.LVL2263>:
ee0060ac:	010f9293          	slli	t0,t6,0x10
ee0060b0:	0102d093          	srli	ra,t0,0x10

ee0060b4 <.L2518>:
                x16 = (ee_u8)((data & 1) ^ ((ee_u8)crc & 1));
ee0060b4:	01e0c5b3          	xor	a1,ra,t5
                if (x16 == 1)
ee0060b8:	0015f393          	andi	t2,a1,1
                data >>= 1;
ee0060bc:	007ede93          	srli	t4,t4,0x7

ee0060c0 <.LVL2265>:
                if (x16 == 1)
ee0060c0:	0010d813          	srli	a6,ra,0x1
ee0060c4:	00038863          	beqz	t2,ee0060d4 <.L2519>

ee0060c8 <.LVL2266>:
                   crc |= 0x8000;
ee0060c8:	01284733          	xor	a4,a6,s2

ee0060cc <.LVL2267>:
ee0060cc:	01071613          	slli	a2,a4,0x10
ee0060d0:	01065813          	srli	a6,a2,0x10

ee0060d4 <.L2519>:
                x16 = (ee_u8)((data & 1) ^ ((ee_u8)crc & 1));
ee0060d4:	01d848b3          	xor	a7,a6,t4
                if (x16 == 1)
ee0060d8:	0018fe13          	andi	t3,a7,1
ee0060dc:	00185693          	srli	a3,a6,0x1
ee0060e0:	000e0863          	beqz	t3,ee0060f0 <.L2520>

ee0060e4 <.LVL2269>:
                   crc |= 0x8000;
ee0060e4:	0126c7b3          	xor	a5,a3,s2
ee0060e8:	01079513          	slli	a0,a5,0x10
ee0060ec:	01055693          	srli	a3,a0,0x10

ee0060f0 <.L2520>:
                res->crc=crcu16(crc,res->crc);
ee0060f0:	02d99c23          	sh	a3,56(s3)
                if (i==0) res->crclist=res->crc;
ee0060f4:	cc01                	beqz	s0,ee00610c <.L2619>
        for (i=0; i<iterations; i++) {
ee0060f6:	0405                	addi	s0,s0,1
ee0060f8:	be8496e3          	bne	s1,s0,ee005ce4 <.L2486>

ee0060fc <.L2556>:
}
ee0060fc:	40f2                	lw	ra,28(sp)
ee0060fe:	4462                	lw	s0,24(sp)
ee006100:	44d2                	lw	s1,20(sp)

ee006102 <.LVL2273>:
ee006102:	4942                	lw	s2,16(sp)
ee006104:	49b2                	lw	s3,12(sp)

ee006106 <.LVL2274>:
ee006106:	4501                	li	a0,0
ee006108:	6105                	addi	sp,sp,32
ee00610a:	8082                	ret

ee00610c <.L2619>:
                if (i==0) res->crclist=res->crc;
ee00610c:	02d99d23          	sh	a3,58(s3)

ee006110 <.LVL2276>:
        for (i=0; i<iterations; i++) {
ee006110:	4405                	li	s0,1
ee006112:	fe8485e3          	beq	s1,s0,ee0060fc <.L2556>
ee006116:	4405                	li	s0,1
ee006118:	b6f1                	j	ee005ce4 <.L2486>

ee00611a <get_seed_32>:
                switch (i) {
ee00611a:	4795                	li	a5,5
ee00611c:	04a7e563          	bltu	a5,a0,ee006166 <.L2628>
ee006120:	f00402b7          	lui	t0,0xf0040
ee006124:	050a                	slli	a0,a0,0x2

ee006126 <.LVL2278>:
ee006126:	00c28313          	addi	t1,t0,12 # f004000c <STACK+0xffff7a5c>
ee00612a:	006503b3          	add	t2,a0,t1
ee00612e:	0003a583          	lw	a1,0(t2)
ee006132:	8582                	jr	a1

ee006134 <.L2622>:
                                retval=seed5_volatile;
ee006134:	f0041637          	lui	a2,0xf0041
ee006138:	d8462503          	lw	a0,-636(a2) # f0040d84 <STACK+0xffff87d4>

ee00613c <.LVL2279>:
                                break;
ee00613c:	8082                	ret

ee00613e <.L2627>:
                                retval=seed1_volatile;
ee00613e:	f00418b7          	lui	a7,0xf0041
ee006142:	d8c8a503          	lw	a0,-628(a7) # f0040d8c <STACK+0xffff87dc>

ee006146 <.LVL2281>:
                                break;
ee006146:	8082                	ret

ee006148 <.L2626>:
                                retval=seed2_volatile;
ee006148:	f0041837          	lui	a6,0xf0041
ee00614c:	d8882503          	lw	a0,-632(a6) # f0040d88 <STACK+0xffff87d8>

ee006150 <.LVL2283>:
                                break;
ee006150:	8082                	ret

ee006152 <.L2625>:
                                retval=seed3_volatile;
ee006152:	f0040737          	lui	a4,0xf0040
ee006156:	0f072503          	lw	a0,240(a4) # f00400f0 <STACK+0xffff7b40>

ee00615a <.LVL2285>:
                                break;
ee00615a:	8082                	ret

ee00615c <.L2624>:
                                retval=seed4_volatile;
ee00615c:	f00406b7          	lui	a3,0xf0040
ee006160:	0ec6a503          	lw	a0,236(a3) # f00400ec <STACK+0xffff7b3c>

ee006164 <.LVL2287>:
                                break;
ee006164:	8082                	ret

ee006166 <.L2628>:
        ee_s32 get_seed_32(int i) {
ee006166:	4501                	li	a0,0

ee006168 <.LVL2289>:
        }
ee006168:	8082                	ret

ee00616a <crcu8>:
                x16 = (ee_u8)((data & 1) ^ ((ee_u8)crc & 1));
ee00616a:	00b546b3          	xor	a3,a0,a1
                if (x16 == 1)
ee00616e:	0016f293          	andi	t0,a3,1
                data >>= 1;
ee006172:	00155713          	srli	a4,a0,0x1

ee006176 <.LVL2291>:
                if (x16 == 1)
ee006176:	0015d613          	srli	a2,a1,0x1
ee00617a:	00028b63          	beqz	t0,ee006190 <.L2630>

ee00617e <.LVL2292>:
                   crc |= 0x8000;
ee00617e:	7369                	lui	t1,0xffffa
ee006180:	00130393          	addi	t2,t1,1 # ffffa001 <STACK+0xffb1a51>
ee006184:	007647b3          	xor	a5,a2,t2

ee006188 <.LVL2293>:
ee006188:	01079593          	slli	a1,a5,0x10

ee00618c <.LVL2294>:
ee00618c:	0105d613          	srli	a2,a1,0x10

ee006190 <.L2630>:
                x16 = (ee_u8)((data & 1) ^ ((ee_u8)crc & 1));
ee006190:	00e64833          	xor	a6,a2,a4
                if (x16 == 1)
ee006194:	00187893          	andi	a7,a6,1
                data >>= 1;
ee006198:	00255e13          	srli	t3,a0,0x2

ee00619c <.LVL2296>:
                if (x16 == 1)
ee00619c:	00165293          	srli	t0,a2,0x1
ee0061a0:	00088b63          	beqz	a7,ee0061b6 <.L2631>

ee0061a4 <.LVL2297>:
                   crc |= 0x8000;
ee0061a4:	7ee9                	lui	t4,0xffffa
ee0061a6:	001e8f13          	addi	t5,t4,1 # ffffa001 <STACK+0xffb1a51>
ee0061aa:	01e2cfb3          	xor	t6,t0,t5

ee0061ae <.LVL2298>:
ee0061ae:	010f9693          	slli	a3,t6,0x10
ee0061b2:	0106d293          	srli	t0,a3,0x10

ee0061b6 <.L2631>:
                x16 = (ee_u8)((data & 1) ^ ((ee_u8)crc & 1));
ee0061b6:	01c2c733          	xor	a4,t0,t3
                if (x16 == 1)
ee0061ba:	00177313          	andi	t1,a4,1
                data >>= 1;
ee0061be:	00355393          	srli	t2,a0,0x3

ee0061c2 <.LVL2300>:
                if (x16 == 1)
ee0061c2:	0012d893          	srli	a7,t0,0x1
ee0061c6:	00030b63          	beqz	t1,ee0061dc <.L2632>

ee0061ca <.LVL2301>:
                   crc |= 0x8000;
ee0061ca:	75e9                	lui	a1,0xffffa
ee0061cc:	00158613          	addi	a2,a1,1 # ffffa001 <STACK+0xffb1a51>
ee0061d0:	00c8c7b3          	xor	a5,a7,a2

ee0061d4 <.LVL2302>:
ee0061d4:	01079813          	slli	a6,a5,0x10
ee0061d8:	01085893          	srli	a7,a6,0x10

ee0061dc <.L2632>:
                x16 = (ee_u8)((data & 1) ^ ((ee_u8)crc & 1));
ee0061dc:	0078ce33          	xor	t3,a7,t2
                if (x16 == 1)
ee0061e0:	001e7e93          	andi	t4,t3,1
                data >>= 1;
ee0061e4:	00455f13          	srli	t5,a0,0x4

ee0061e8 <.LVL2304>:
                if (x16 == 1)
ee0061e8:	0018d313          	srli	t1,a7,0x1
ee0061ec:	000e8b63          	beqz	t4,ee006202 <.L2633>

ee0061f0 <.LVL2305>:
                   crc |= 0x8000;
ee0061f0:	7fe9                	lui	t6,0xffffa
ee0061f2:	001f8693          	addi	a3,t6,1 # ffffa001 <STACK+0xffb1a51>
ee0061f6:	00d342b3          	xor	t0,t1,a3

ee0061fa <.LVL2306>:
ee0061fa:	01029713          	slli	a4,t0,0x10
ee0061fe:	01075313          	srli	t1,a4,0x10

ee006202 <.L2633>:
                x16 = (ee_u8)((data & 1) ^ ((ee_u8)crc & 1));
ee006202:	01e343b3          	xor	t2,t1,t5
                if (x16 == 1)
ee006206:	0013f593          	andi	a1,t2,1
                data >>= 1;
ee00620a:	00555613          	srli	a2,a0,0x5

ee00620e <.LVL2308>:
                if (x16 == 1)
ee00620e:	00135e93          	srli	t4,t1,0x1
ee006212:	c991                	beqz	a1,ee006226 <.L2634>

ee006214 <.LVL2309>:
                   crc |= 0x8000;
ee006214:	7869                	lui	a6,0xffffa
ee006216:	00180893          	addi	a7,a6,1 # ffffa001 <STACK+0xffb1a51>
ee00621a:	011ec7b3          	xor	a5,t4,a7

ee00621e <.LVL2310>:
ee00621e:	01079e13          	slli	t3,a5,0x10
ee006222:	010e5e93          	srli	t4,t3,0x10

ee006226 <.L2634>:
                x16 = (ee_u8)((data & 1) ^ ((ee_u8)crc & 1));
ee006226:	00cecf33          	xor	t5,t4,a2
                if (x16 == 1)
ee00622a:	001f7f93          	andi	t6,t5,1
                data >>= 1;
ee00622e:	00655693          	srli	a3,a0,0x6

ee006232 <.LVL2312>:
                if (x16 == 1)
ee006232:	001ed593          	srli	a1,t4,0x1
ee006236:	000f8b63          	beqz	t6,ee00624c <.L2635>

ee00623a <.LVL2313>:
                   crc |= 0x8000;
ee00623a:	72e9                	lui	t0,0xffffa
ee00623c:	00128713          	addi	a4,t0,1 # ffffa001 <STACK+0xffb1a51>
ee006240:	00e5c333          	xor	t1,a1,a4

ee006244 <.LVL2314>:
ee006244:	01031393          	slli	t2,t1,0x10
ee006248:	0103d593          	srli	a1,t2,0x10

ee00624c <.L2635>:
                x16 = (ee_u8)((data & 1) ^ ((ee_u8)crc & 1));
ee00624c:	00d5c633          	xor	a2,a1,a3
                if (x16 == 1)
ee006250:	00167813          	andi	a6,a2,1
                data >>= 1;
ee006254:	00755893          	srli	a7,a0,0x7

ee006258 <.LVL2316>:
                if (x16 == 1)
ee006258:	0015df13          	srli	t5,a1,0x1
ee00625c:	00080b63          	beqz	a6,ee006272 <.L2636>

ee006260 <.LVL2317>:
                   crc |= 0x8000;
ee006260:	77e9                	lui	a5,0xffffa
ee006262:	00178e13          	addi	t3,a5,1 # ffffa001 <STACK+0xffb1a51>
ee006266:	01cf4533          	xor	a0,t5,t3

ee00626a <.LVL2318>:
ee00626a:	01051e93          	slli	t4,a0,0x10
ee00626e:	010edf13          	srli	t5,t4,0x10

ee006272 <.L2636>:
                if (x16 == 1)
ee006272:	001f7f93          	andi	t6,t5,1
ee006276:	001f5513          	srli	a0,t5,0x1
ee00627a:	011f8b63          	beq	t6,a7,ee006290 <.L2637>

ee00627e <.LVL2320>:
                   crc |= 0x8000;
ee00627e:	76e9                	lui	a3,0xffffa
ee006280:	00168293          	addi	t0,a3,1 # ffffa001 <STACK+0xffb1a51>
ee006284:	00554733          	xor	a4,a0,t0
ee006288:	01071313          	slli	t1,a4,0x10
ee00628c:	01035513          	srli	a0,t1,0x10

ee006290 <.L2637>:
}
ee006290:	8082                	ret

ee006292 <crcu16>:
                x16 = (ee_u8)((data & 1) ^ ((ee_u8)crc & 1));
ee006292:	00a5c6b3          	xor	a3,a1,a0

ee006296 <.LBE1078>:
        crc=crcu8( (ee_u8) (newval)                             ,crc);
ee006296:	0ff57713          	andi	a4,a0,255

ee00629a <.LBB1082>:
                if (x16 == 1)
ee00629a:	0016f293          	andi	t0,a3,1

ee00629e <.LBE1082>:
ee_u16 crcu16(ee_u16 newval, ee_u16 crc) {
ee00629e:	87aa                	mv	a5,a0

ee0062a0 <.LBB1083>:
                data >>= 1;
ee0062a0:	00175613          	srli	a2,a4,0x1

ee0062a4 <.LVL2324>:
                crc >>= 1;
ee0062a4:	0015d813          	srli	a6,a1,0x1
                if (x16 == 1)
ee0062a8:	00028b63          	beqz	t0,ee0062be <.L2663>

ee0062ac <.LVL2325>:
                   crc |= 0x8000;
ee0062ac:	7369                	lui	t1,0xffffa
ee0062ae:	00130393          	addi	t2,t1,1 # ffffa001 <STACK+0xffb1a51>
ee0062b2:	00784533          	xor	a0,a6,t2

ee0062b6 <.LVL2326>:
ee0062b6:	01051593          	slli	a1,a0,0x10

ee0062ba <.LVL2327>:
ee0062ba:	0105d813          	srli	a6,a1,0x10

ee0062be <.L2663>:
                x16 = (ee_u8)((data & 1) ^ ((ee_u8)crc & 1));
ee0062be:	00c848b3          	xor	a7,a6,a2
                if (x16 == 1)
ee0062c2:	0018fe13          	andi	t3,a7,1
                data >>= 1;
ee0062c6:	00275e93          	srli	t4,a4,0x2

ee0062ca <.LVL2329>:
                crc >>= 1;
ee0062ca:	00185313          	srli	t1,a6,0x1
                if (x16 == 1)
ee0062ce:	000e0b63          	beqz	t3,ee0062e4 <.L2664>

ee0062d2 <.LVL2330>:
                   crc |= 0x8000;
ee0062d2:	7f69                	lui	t5,0xffffa
ee0062d4:	001f0f93          	addi	t6,t5,1 # ffffa001 <STACK+0xffb1a51>
ee0062d8:	01f346b3          	xor	a3,t1,t6

ee0062dc <.LVL2331>:
ee0062dc:	01069293          	slli	t0,a3,0x10
ee0062e0:	0102d313          	srli	t1,t0,0x10

ee0062e4 <.L2664>:
                x16 = (ee_u8)((data & 1) ^ ((ee_u8)crc & 1));
ee0062e4:	01d34633          	xor	a2,t1,t4
                if (x16 == 1)
ee0062e8:	00167393          	andi	t2,a2,1
                data >>= 1;
ee0062ec:	00375593          	srli	a1,a4,0x3

ee0062f0 <.LVL2333>:
                crc >>= 1;
ee0062f0:	00135e93          	srli	t4,t1,0x1
                if (x16 == 1)
ee0062f4:	00038b63          	beqz	t2,ee00630a <.L2665>

ee0062f8 <.LVL2334>:
                   crc |= 0x8000;
ee0062f8:	7869                	lui	a6,0xffffa
ee0062fa:	00180893          	addi	a7,a6,1 # ffffa001 <STACK+0xffb1a51>
ee0062fe:	011ec533          	xor	a0,t4,a7

ee006302 <.LVL2335>:
ee006302:	01051e13          	slli	t3,a0,0x10
ee006306:	010e5e93          	srli	t4,t3,0x10

ee00630a <.L2665>:
                x16 = (ee_u8)((data & 1) ^ ((ee_u8)crc & 1));
ee00630a:	00becf33          	xor	t5,t4,a1
                if (x16 == 1)
ee00630e:	001f7f93          	andi	t6,t5,1
                data >>= 1;
ee006312:	00475693          	srli	a3,a4,0x4

ee006316 <.LVL2337>:
                crc >>= 1;
ee006316:	001ed593          	srli	a1,t4,0x1
                if (x16 == 1)
ee00631a:	000f8b63          	beqz	t6,ee006330 <.L2666>

ee00631e <.LVL2338>:
                   crc |= 0x8000;
ee00631e:	72e9                	lui	t0,0xffffa
ee006320:	00128313          	addi	t1,t0,1 # ffffa001 <STACK+0xffb1a51>
ee006324:	0065c633          	xor	a2,a1,t1

ee006328 <.LVL2339>:
ee006328:	01061393          	slli	t2,a2,0x10
ee00632c:	0103d593          	srli	a1,t2,0x10

ee006330 <.L2666>:
                x16 = (ee_u8)((data & 1) ^ ((ee_u8)crc & 1));
ee006330:	00d5c833          	xor	a6,a1,a3
                if (x16 == 1)
ee006334:	00187893          	andi	a7,a6,1
                data >>= 1;
ee006338:	00575e13          	srli	t3,a4,0x5

ee00633c <.LVL2341>:
                crc >>= 1;
ee00633c:	0015d293          	srli	t0,a1,0x1
                if (x16 == 1)
ee006340:	00088b63          	beqz	a7,ee006356 <.L2667>

ee006344 <.LVL2342>:
                   crc |= 0x8000;
ee006344:	7ee9                	lui	t4,0xffffa
ee006346:	001e8f13          	addi	t5,t4,1 # ffffa001 <STACK+0xffb1a51>
ee00634a:	01e2c533          	xor	a0,t0,t5

ee00634e <.LVL2343>:
ee00634e:	01051f93          	slli	t6,a0,0x10
ee006352:	010fd293          	srli	t0,t6,0x10

ee006356 <.L2667>:
                x16 = (ee_u8)((data & 1) ^ ((ee_u8)crc & 1));
ee006356:	01c2c6b3          	xor	a3,t0,t3
                if (x16 == 1)
ee00635a:	0016f313          	andi	t1,a3,1
                data >>= 1;
ee00635e:	00675393          	srli	t2,a4,0x6

ee006362 <.LVL2345>:
                crc >>= 1;
ee006362:	0012de13          	srli	t3,t0,0x1
                if (x16 == 1)
ee006366:	00030b63          	beqz	t1,ee00637c <.L2668>

ee00636a <.LVL2346>:
                   crc |= 0x8000;
ee00636a:	7669                	lui	a2,0xffffa
ee00636c:	00160593          	addi	a1,a2,1 # ffffa001 <STACK+0xffb1a51>
ee006370:	00be4833          	xor	a6,t3,a1

ee006374 <.LVL2347>:
ee006374:	01081893          	slli	a7,a6,0x10
ee006378:	0108de13          	srli	t3,a7,0x10

ee00637c <.L2668>:
                x16 = (ee_u8)((data & 1) ^ ((ee_u8)crc & 1));
ee00637c:	007e4eb3          	xor	t4,t3,t2
                if (x16 == 1)
ee006380:	001eff13          	andi	t5,t4,1
                data >>= 1;
ee006384:	831d                	srli	a4,a4,0x7

ee006386 <.LVL2349>:
                crc >>= 1;
ee006386:	001e5313          	srli	t1,t3,0x1
                if (x16 == 1)
ee00638a:	000f0b63          	beqz	t5,ee0063a0 <.L2669>

ee00638e <.LVL2350>:
                   crc |= 0x8000;
ee00638e:	7fe9                	lui	t6,0xffffa
ee006390:	001f8293          	addi	t0,t6,1 # ffffa001 <STACK+0xffb1a51>
ee006394:	00534533          	xor	a0,t1,t0

ee006398 <.LVL2351>:
ee006398:	01051693          	slli	a3,a0,0x10
ee00639c:	0106d313          	srli	t1,a3,0x10

ee0063a0 <.L2669>:
                if (x16 == 1)
ee0063a0:	00137393          	andi	t2,t1,1
                crc >>= 1;
ee0063a4:	00135e13          	srli	t3,t1,0x1
                if (x16 == 1)
ee0063a8:	00e38b63          	beq	t2,a4,ee0063be <.L2670>

ee0063ac <.LVL2353>:
                   crc |= 0x8000;
ee0063ac:	7669                	lui	a2,0xffffa
ee0063ae:	00160593          	addi	a1,a2,1 # ffffa001 <STACK+0xffb1a51>
ee0063b2:	00be4833          	xor	a6,t3,a1

ee0063b6 <.LVL2354>:
ee0063b6:	01081893          	slli	a7,a6,0x10
ee0063ba:	0108de13          	srli	t3,a7,0x10

ee0063be <.L2670>:
        crc=crcu8( (ee_u8) ((newval)>>8)        ,crc);
ee0063be:	0087de93          	srli	t4,a5,0x8

ee0063c2 <.LBB1084>:
                x16 = (ee_u8)((data & 1) ^ ((ee_u8)crc & 1));
ee0063c2:	01cecf33          	xor	t5,t4,t3
                if (x16 == 1)
ee0063c6:	001f7f93          	andi	t6,t5,1

ee0063ca <.LBE1084>:
        crc=crcu8( (ee_u8) ((newval)>>8)        ,crc);
ee0063ca:	0087d713          	srli	a4,a5,0x8

ee0063ce <.LBB1087>:
                data >>= 1;
ee0063ce:	001e5393          	srli	t2,t3,0x1
ee0063d2:	83a5                	srli	a5,a5,0x9

ee0063d4 <.LVL2357>:
                if (x16 == 1)
ee0063d4:	000f8b63          	beqz	t6,ee0063ea <.L2671>

ee0063d8 <.LVL2358>:
                   crc |= 0x8000;
ee0063d8:	72e9                	lui	t0,0xffffa
ee0063da:	00128693          	addi	a3,t0,1 # ffffa001 <STACK+0xffb1a51>
ee0063de:	00d3c533          	xor	a0,t2,a3

ee0063e2 <.LVL2359>:
ee0063e2:	01051313          	slli	t1,a0,0x10
ee0063e6:	01035393          	srli	t2,t1,0x10

ee0063ea <.L2671>:
                x16 = (ee_u8)((data & 1) ^ ((ee_u8)crc & 1));
ee0063ea:	0077c633          	xor	a2,a5,t2
                if (x16 == 1)
ee0063ee:	00167593          	andi	a1,a2,1
                data >>= 1;
ee0063f2:	00275813          	srli	a6,a4,0x2

ee0063f6 <.LVL2361>:
                if (x16 == 1)
ee0063f6:	0013df93          	srli	t6,t2,0x1
ee0063fa:	c991                	beqz	a1,ee00640e <.L2672>

ee0063fc <.LVL2362>:
                   crc |= 0x8000;
ee0063fc:	78e9                	lui	a7,0xffffa
ee0063fe:	00188e13          	addi	t3,a7,1 # ffffa001 <STACK+0xffb1a51>
ee006402:	01cfceb3          	xor	t4,t6,t3

ee006406 <.LVL2363>:
ee006406:	010e9f13          	slli	t5,t4,0x10
ee00640a:	010f5f93          	srli	t6,t5,0x10

ee00640e <.L2672>:
                x16 = (ee_u8)((data & 1) ^ ((ee_u8)crc & 1));
ee00640e:	010fc7b3          	xor	a5,t6,a6
                if (x16 == 1)
ee006412:	0017f293          	andi	t0,a5,1
                data >>= 1;
ee006416:	00375693          	srli	a3,a4,0x3

ee00641a <.LVL2365>:
                if (x16 == 1)
ee00641a:	001fd593          	srli	a1,t6,0x1
ee00641e:	00028b63          	beqz	t0,ee006434 <.L2673>

ee006422 <.LVL2366>:
                   crc |= 0x8000;
ee006422:	7369                	lui	t1,0xffffa
ee006424:	00130393          	addi	t2,t1,1 # ffffa001 <STACK+0xffb1a51>
ee006428:	0075c533          	xor	a0,a1,t2

ee00642c <.LVL2367>:
ee00642c:	01051613          	slli	a2,a0,0x10
ee006430:	01065593          	srli	a1,a2,0x10

ee006434 <.L2673>:
                x16 = (ee_u8)((data & 1) ^ ((ee_u8)crc & 1));
ee006434:	00d5c833          	xor	a6,a1,a3
                if (x16 == 1)
ee006438:	00187893          	andi	a7,a6,1
                data >>= 1;
ee00643c:	00475e13          	srli	t3,a4,0x4

ee006440 <.LVL2369>:
                if (x16 == 1)
ee006440:	0015d293          	srli	t0,a1,0x1
ee006444:	00088b63          	beqz	a7,ee00645a <.L2674>

ee006448 <.LVL2370>:
                   crc |= 0x8000;
ee006448:	7ee9                	lui	t4,0xffffa
ee00644a:	001e8f13          	addi	t5,t4,1 # ffffa001 <STACK+0xffb1a51>
ee00644e:	01e2cfb3          	xor	t6,t0,t5

ee006452 <.LVL2371>:
ee006452:	010f9793          	slli	a5,t6,0x10
ee006456:	0107d293          	srli	t0,a5,0x10

ee00645a <.L2674>:
                x16 = (ee_u8)((data & 1) ^ ((ee_u8)crc & 1));
ee00645a:	01c2c6b3          	xor	a3,t0,t3
                if (x16 == 1)
ee00645e:	0016f313          	andi	t1,a3,1
                data >>= 1;
ee006462:	00575393          	srli	t2,a4,0x5

ee006466 <.LVL2373>:
                if (x16 == 1)
ee006466:	0012d893          	srli	a7,t0,0x1
ee00646a:	00030b63          	beqz	t1,ee006480 <.L2675>

ee00646e <.LVL2374>:
                   crc |= 0x8000;
ee00646e:	7669                	lui	a2,0xffffa
ee006470:	00160593          	addi	a1,a2,1 # ffffa001 <STACK+0xffb1a51>
ee006474:	00b8c533          	xor	a0,a7,a1

ee006478 <.LVL2375>:
ee006478:	01051813          	slli	a6,a0,0x10
ee00647c:	01085893          	srli	a7,a6,0x10

ee006480 <.L2675>:
                x16 = (ee_u8)((data & 1) ^ ((ee_u8)crc & 1));
ee006480:	0078ce33          	xor	t3,a7,t2
                if (x16 == 1)
ee006484:	001e7e93          	andi	t4,t3,1
                data >>= 1;
ee006488:	00675f13          	srli	t5,a4,0x6

ee00648c <.LVL2377>:
                if (x16 == 1)
ee00648c:	0018d313          	srli	t1,a7,0x1
ee006490:	000e8b63          	beqz	t4,ee0064a6 <.L2676>

ee006494 <.LVL2378>:
                   crc |= 0x8000;
ee006494:	7fe9                	lui	t6,0xffffa
ee006496:	001f8793          	addi	a5,t6,1 # ffffa001 <STACK+0xffb1a51>
ee00649a:	00f342b3          	xor	t0,t1,a5

ee00649e <.LVL2379>:
ee00649e:	01029693          	slli	a3,t0,0x10
ee0064a2:	0106d313          	srli	t1,a3,0x10

ee0064a6 <.L2676>:
                x16 = (ee_u8)((data & 1) ^ ((ee_u8)crc & 1));
ee0064a6:	01e343b3          	xor	t2,t1,t5
                if (x16 == 1)
ee0064aa:	0013f613          	andi	a2,t2,1
                data >>= 1;
ee0064ae:	831d                	srli	a4,a4,0x7

ee0064b0 <.LVL2381>:
                if (x16 == 1)
ee0064b0:	00135e13          	srli	t3,t1,0x1
ee0064b4:	ca11                	beqz	a2,ee0064c8 <.L2677>

ee0064b6 <.LVL2382>:
                   crc |= 0x8000;
ee0064b6:	75e9                	lui	a1,0xffffa
ee0064b8:	00158813          	addi	a6,a1,1 # ffffa001 <STACK+0xffb1a51>
ee0064bc:	010e4533          	xor	a0,t3,a6

ee0064c0 <.LVL2383>:
ee0064c0:	01051893          	slli	a7,a0,0x10
ee0064c4:	0108de13          	srli	t3,a7,0x10

ee0064c8 <.L2677>:
                if (x16 == 1)
ee0064c8:	001e7e93          	andi	t4,t3,1
ee0064cc:	001e5513          	srli	a0,t3,0x1
ee0064d0:	00ee8b63          	beq	t4,a4,ee0064e6 <.L2678>

ee0064d4 <.LVL2385>:
                   crc |= 0x8000;
ee0064d4:	7f69                	lui	t5,0xffffa
ee0064d6:	001f0f93          	addi	t6,t5,1 # ffffa001 <STACK+0xffb1a51>
ee0064da:	01f547b3          	xor	a5,a0,t6
ee0064de:	01079293          	slli	t0,a5,0x10
ee0064e2:	0102d513          	srli	a0,t0,0x10

ee0064e6 <.L2678>:
}
ee0064e6:	8082                	ret

ee0064e8 <crcu32>:
                x16 = (ee_u8)((data & 1) ^ ((ee_u8)crc & 1));
ee0064e8:	00a5c833          	xor	a6,a1,a0

ee0064ec <.LBE1108>:
        crc=crcu8( (ee_u8) (newval)                             ,crc);
ee0064ec:	0ff57693          	andi	a3,a0,255

ee0064f0 <.LBE1106>:
        return crcu16((ee_u16)newval, crc);
ee0064f0:	01051713          	slli	a4,a0,0x10

ee0064f4 <.LBB1113>:
                if (x16 == 1)
ee0064f4:	00187293          	andi	t0,a6,1

ee0064f8 <.LBE1104>:
ee_u16 crcu32(ee_u32 newval, ee_u16 crc) {
ee0064f8:	87aa                	mv	a5,a0

ee0064fa <.LBB1130>:
        return crcu16((ee_u16)newval, crc);
ee0064fa:	01075313          	srli	t1,a4,0x10

ee0064fe <.LBB1114>:
                data >>= 1;
ee0064fe:	0016d613          	srli	a2,a3,0x1

ee006502 <.LVL2390>:
                crc >>= 1;
ee006502:	0015de13          	srli	t3,a1,0x1
                if (x16 == 1)
ee006506:	00028b63          	beqz	t0,ee00651c <.L2728>

ee00650a <.LVL2391>:
                   crc |= 0x8000;
ee00650a:	75e9                	lui	a1,0xffffa

ee00650c <.LVL2392>:
ee00650c:	00158393          	addi	t2,a1,1 # ffffa001 <STACK+0xffb1a51>
ee006510:	007e4533          	xor	a0,t3,t2

ee006514 <.LVL2393>:
ee006514:	01051893          	slli	a7,a0,0x10
ee006518:	0108de13          	srli	t3,a7,0x10

ee00651c <.L2728>:
                x16 = (ee_u8)((data & 1) ^ ((ee_u8)crc & 1));
ee00651c:	00ce4eb3          	xor	t4,t3,a2
                if (x16 == 1)
ee006520:	001eff13          	andi	t5,t4,1
                data >>= 1;
ee006524:	0026df93          	srli	t6,a3,0x2

ee006528 <.LVL2395>:
                crc >>= 1;
ee006528:	001e5393          	srli	t2,t3,0x1
                if (x16 == 1)
ee00652c:	000f0b63          	beqz	t5,ee006542 <.L2729>

ee006530 <.LVL2396>:
                   crc |= 0x8000;
ee006530:	7869                	lui	a6,0xffffa
ee006532:	00180293          	addi	t0,a6,1 # ffffa001 <STACK+0xffb1a51>
ee006536:	0053c733          	xor	a4,t2,t0

ee00653a <.LVL2397>:
ee00653a:	01071613          	slli	a2,a4,0x10
ee00653e:	01065393          	srli	t2,a2,0x10

ee006542 <.L2729>:
                x16 = (ee_u8)((data & 1) ^ ((ee_u8)crc & 1));
ee006542:	01f3c5b3          	xor	a1,t2,t6
                if (x16 == 1)
ee006546:	0015f893          	andi	a7,a1,1
                data >>= 1;
ee00654a:	0036de13          	srli	t3,a3,0x3

ee00654e <.LVL2399>:
                crc >>= 1;
ee00654e:	0013d813          	srli	a6,t2,0x1
                if (x16 == 1)
ee006552:	00088b63          	beqz	a7,ee006568 <.L2730>

ee006556 <.LVL2400>:
                   crc |= 0x8000;
ee006556:	7ee9                	lui	t4,0xffffa
ee006558:	001e8f13          	addi	t5,t4,1 # ffffa001 <STACK+0xffb1a51>
ee00655c:	01e84533          	xor	a0,a6,t5

ee006560 <.LVL2401>:
ee006560:	01051f93          	slli	t6,a0,0x10
ee006564:	010fd813          	srli	a6,t6,0x10

ee006568 <.L2730>:
                x16 = (ee_u8)((data & 1) ^ ((ee_u8)crc & 1));
ee006568:	01c842b3          	xor	t0,a6,t3
                if (x16 == 1)
ee00656c:	0012f713          	andi	a4,t0,1
                data >>= 1;
ee006570:	0046d613          	srli	a2,a3,0x4

ee006574 <.LVL2403>:
                crc >>= 1;
ee006574:	00185e93          	srli	t4,a6,0x1
                if (x16 == 1)
ee006578:	cb11                	beqz	a4,ee00658c <.L2731>

ee00657a <.LVL2404>:
                   crc |= 0x8000;
ee00657a:	73e9                	lui	t2,0xffffa
ee00657c:	00138593          	addi	a1,t2,1 # ffffa001 <STACK+0xffb1a51>
ee006580:	00bec8b3          	xor	a7,t4,a1

ee006584 <.LVL2405>:
ee006584:	01089e13          	slli	t3,a7,0x10
ee006588:	010e5e93          	srli	t4,t3,0x10

ee00658c <.L2731>:
                x16 = (ee_u8)((data & 1) ^ ((ee_u8)crc & 1));
ee00658c:	00cecf33          	xor	t5,t4,a2
                if (x16 == 1)
ee006590:	001f7f93          	andi	t6,t5,1
                data >>= 1;
ee006594:	0056d813          	srli	a6,a3,0x5

ee006598 <.LVL2407>:
                crc >>= 1;
ee006598:	001ed393          	srli	t2,t4,0x1
                if (x16 == 1)
ee00659c:	000f8b63          	beqz	t6,ee0065b2 <.L2732>

ee0065a0 <.LVL2408>:
                   crc |= 0x8000;
ee0065a0:	72e9                	lui	t0,0xffffa
ee0065a2:	00128713          	addi	a4,t0,1 # ffffa001 <STACK+0xffb1a51>
ee0065a6:	00e3c533          	xor	a0,t2,a4

ee0065aa <.LVL2409>:
ee0065aa:	01051613          	slli	a2,a0,0x10
ee0065ae:	01065393          	srli	t2,a2,0x10

ee0065b2 <.L2732>:
                x16 = (ee_u8)((data & 1) ^ ((ee_u8)crc & 1));
ee0065b2:	0103c5b3          	xor	a1,t2,a6
                if (x16 == 1)
ee0065b6:	0015f893          	andi	a7,a1,1
                data >>= 1;
ee0065ba:	0066de13          	srli	t3,a3,0x6

ee0065be <.LVL2411>:
                crc >>= 1;
ee0065be:	0013d293          	srli	t0,t2,0x1
                if (x16 == 1)
ee0065c2:	00088b63          	beqz	a7,ee0065d8 <.L2733>

ee0065c6 <.LVL2412>:
                   crc |= 0x8000;
ee0065c6:	7ee9                	lui	t4,0xffffa
ee0065c8:	001e8f13          	addi	t5,t4,1 # ffffa001 <STACK+0xffb1a51>
ee0065cc:	01e2cfb3          	xor	t6,t0,t5

ee0065d0 <.LVL2413>:
ee0065d0:	010f9813          	slli	a6,t6,0x10
ee0065d4:	01085293          	srli	t0,a6,0x10

ee0065d8 <.L2733>:
                x16 = (ee_u8)((data & 1) ^ ((ee_u8)crc & 1));
ee0065d8:	01c2c733          	xor	a4,t0,t3
                if (x16 == 1)
ee0065dc:	00177613          	andi	a2,a4,1
                data >>= 1;
ee0065e0:	829d                	srli	a3,a3,0x7

ee0065e2 <.LVL2415>:
                crc >>= 1;
ee0065e2:	0012de13          	srli	t3,t0,0x1
                if (x16 == 1)
ee0065e6:	ca11                	beqz	a2,ee0065fa <.L2734>

ee0065e8 <.LVL2416>:
                   crc |= 0x8000;
ee0065e8:	73e9                	lui	t2,0xffffa
ee0065ea:	00138593          	addi	a1,t2,1 # ffffa001 <STACK+0xffb1a51>
ee0065ee:	00be4533          	xor	a0,t3,a1

ee0065f2 <.LVL2417>:
ee0065f2:	01051893          	slli	a7,a0,0x10
ee0065f6:	0108de13          	srli	t3,a7,0x10

ee0065fa <.L2734>:
                if (x16 == 1)
ee0065fa:	001e7e93          	andi	t4,t3,1
                crc >>= 1;
ee0065fe:	001e5393          	srli	t2,t3,0x1
                if (x16 == 1)
ee006602:	38de9463          	bne	t4,a3,ee00698a <.L2856>

ee006606 <.L2735>:
        crc=crcu8( (ee_u8) ((newval)>>8)        ,crc);
ee006606:	00835713          	srli	a4,t1,0x8

ee00660a <.LBB1115>:
                x16 = (ee_u8)((data & 1) ^ ((ee_u8)crc & 1));
ee00660a:	00e3c633          	xor	a2,t2,a4
                if (x16 == 1)
ee00660e:	00167593          	andi	a1,a2,1

ee006612 <.LBE1115>:
        crc=crcu8( (ee_u8) ((newval)>>8)        ,crc);
ee006612:	00835693          	srli	a3,t1,0x8

ee006616 <.LBB1119>:
                data >>= 1;
ee006616:	0013df13          	srli	t5,t2,0x1
ee00661a:	00935313          	srli	t1,t1,0x9

ee00661e <.LVL2421>:
                if (x16 == 1)
ee00661e:	c991                	beqz	a1,ee006632 <.L2736>

ee006620 <.LVL2422>:
                   crc |= 0x8000;
ee006620:	78e9                	lui	a7,0xffffa
ee006622:	00188e13          	addi	t3,a7,1 # ffffa001 <STACK+0xffb1a51>
ee006626:	01cf4533          	xor	a0,t5,t3

ee00662a <.LVL2423>:
ee00662a:	01051e93          	slli	t4,a0,0x10
ee00662e:	010edf13          	srli	t5,t4,0x10

ee006632 <.L2736>:
                x16 = (ee_u8)((data & 1) ^ ((ee_u8)crc & 1));
ee006632:	006f4fb3          	xor	t6,t5,t1
                if (x16 == 1)
ee006636:	001ff813          	andi	a6,t6,1
                data >>= 1;
ee00663a:	0026d293          	srli	t0,a3,0x2

ee00663e <.LVL2425>:
                if (x16 == 1)
ee00663e:	001f5313          	srli	t1,t5,0x1
ee006642:	00080b63          	beqz	a6,ee006658 <.L2737>

ee006646 <.LVL2426>:
                   crc |= 0x8000;
ee006646:	73e9                	lui	t2,0xffffa
ee006648:	00138713          	addi	a4,t2,1 # ffffa001 <STACK+0xffb1a51>
ee00664c:	00e34633          	xor	a2,t1,a4

ee006650 <.LVL2427>:
ee006650:	01061593          	slli	a1,a2,0x10
ee006654:	0105d313          	srli	t1,a1,0x10

ee006658 <.L2737>:
                x16 = (ee_u8)((data & 1) ^ ((ee_u8)crc & 1));
ee006658:	005348b3          	xor	a7,t1,t0
                if (x16 == 1)
ee00665c:	0018fe13          	andi	t3,a7,1
                data >>= 1;
ee006660:	0036de93          	srli	t4,a3,0x3

ee006664 <.LVL2429>:
                if (x16 == 1)
ee006664:	00135293          	srli	t0,t1,0x1
ee006668:	000e0b63          	beqz	t3,ee00667e <.L2738>

ee00666c <.LVL2430>:
                   crc |= 0x8000;
ee00666c:	7f69                	lui	t5,0xffffa
ee00666e:	001f0f93          	addi	t6,t5,1 # ffffa001 <STACK+0xffb1a51>
ee006672:	01f2c533          	xor	a0,t0,t6

ee006676 <.LVL2431>:
ee006676:	01051813          	slli	a6,a0,0x10
ee00667a:	01085293          	srli	t0,a6,0x10

ee00667e <.L2738>:
                x16 = (ee_u8)((data & 1) ^ ((ee_u8)crc & 1));
ee00667e:	01d2c3b3          	xor	t2,t0,t4
                if (x16 == 1)
ee006682:	0013f613          	andi	a2,t2,1
                data >>= 1;
ee006686:	0046d713          	srli	a4,a3,0x4

ee00668a <.LVL2433>:
                if (x16 == 1)
ee00668a:	0012de93          	srli	t4,t0,0x1
ee00668e:	ca11                	beqz	a2,ee0066a2 <.L2739>

ee006690 <.LVL2434>:
                   crc |= 0x8000;
ee006690:	75e9                	lui	a1,0xffffa
ee006692:	00158313          	addi	t1,a1,1 # ffffa001 <STACK+0xffb1a51>
ee006696:	006ec8b3          	xor	a7,t4,t1

ee00669a <.LVL2435>:
ee00669a:	01089e13          	slli	t3,a7,0x10
ee00669e:	010e5e93          	srli	t4,t3,0x10

ee0066a2 <.L2739>:
                x16 = (ee_u8)((data & 1) ^ ((ee_u8)crc & 1));
ee0066a2:	00eecf33          	xor	t5,t4,a4
                if (x16 == 1)
ee0066a6:	001f7f93          	andi	t6,t5,1
                data >>= 1;
ee0066aa:	0056d813          	srli	a6,a3,0x5

ee0066ae <.LVL2437>:
                if (x16 == 1)
ee0066ae:	001ed593          	srli	a1,t4,0x1
ee0066b2:	000f8b63          	beqz	t6,ee0066c8 <.L2740>

ee0066b6 <.LVL2438>:
                   crc |= 0x8000;
ee0066b6:	72e9                	lui	t0,0xffffa
ee0066b8:	00128393          	addi	t2,t0,1 # ffffa001 <STACK+0xffb1a51>
ee0066bc:	0075c533          	xor	a0,a1,t2

ee0066c0 <.LVL2439>:
ee0066c0:	01051613          	slli	a2,a0,0x10
ee0066c4:	01065593          	srli	a1,a2,0x10

ee0066c8 <.L2740>:
                x16 = (ee_u8)((data & 1) ^ ((ee_u8)crc & 1));
ee0066c8:	0105c733          	xor	a4,a1,a6
                if (x16 == 1)
ee0066cc:	00177313          	andi	t1,a4,1
                data >>= 1;
ee0066d0:	0066d893          	srli	a7,a3,0x6

ee0066d4 <.LVL2441>:
                if (x16 == 1)
ee0066d4:	0015d813          	srli	a6,a1,0x1
ee0066d8:	00030b63          	beqz	t1,ee0066ee <.L2741>

ee0066dc <.LVL2442>:
                   crc |= 0x8000;
ee0066dc:	7e69                	lui	t3,0xffffa
ee0066de:	001e0e93          	addi	t4,t3,1 # ffffa001 <STACK+0xffb1a51>
ee0066e2:	01d84f33          	xor	t5,a6,t4

ee0066e6 <.LVL2443>:
ee0066e6:	010f1f93          	slli	t6,t5,0x10
ee0066ea:	010fd813          	srli	a6,t6,0x10

ee0066ee <.L2741>:
                x16 = (ee_u8)((data & 1) ^ ((ee_u8)crc & 1));
ee0066ee:	011842b3          	xor	t0,a6,a7
                if (x16 == 1)
ee0066f2:	0012f393          	andi	t2,t0,1
                data >>= 1;
ee0066f6:	829d                	srli	a3,a3,0x7

ee0066f8 <.LVL2445>:
                if (x16 == 1)
ee0066f8:	00185313          	srli	t1,a6,0x1
ee0066fc:	00038b63          	beqz	t2,ee006712 <.L2742>

ee006700 <.LVL2446>:
                   crc |= 0x8000;
ee006700:	7669                	lui	a2,0xffffa
ee006702:	00160593          	addi	a1,a2,1 # ffffa001 <STACK+0xffb1a51>
ee006706:	00b34533          	xor	a0,t1,a1

ee00670a <.LVL2447>:
ee00670a:	01051713          	slli	a4,a0,0x10
ee00670e:	01075313          	srli	t1,a4,0x10

ee006712 <.L2742>:
                if (x16 == 1)
ee006712:	00137893          	andi	a7,t1,1
ee006716:	00135813          	srli	a6,t1,0x1
ee00671a:	24d89e63          	bne	a7,a3,ee006976 <.L2857>

ee00671e <.L2743>:
        crc=crc16((ee_s16) (newval>>16) ,crc);
ee00671e:	0107d293          	srli	t0,a5,0x10

ee006722 <.LBB1131>:
                x16 = (ee_u8)((data & 1) ^ ((ee_u8)crc & 1));
ee006722:	005843b3          	xor	t2,a6,t0

ee006726 <.LBE1135>:
        crc=crcu8( (ee_u8) (newval)                             ,crc);
ee006726:	0ff2f593          	andi	a1,t0,255

ee00672a <.LBB1140>:
                if (x16 == 1)
ee00672a:	0013f693          	andi	a3,t2,1

ee00672e <.LBE1133>:
        return crcu16((ee_u16)newval, crc);
ee00672e:	83c1                	srli	a5,a5,0x10

ee006730 <.LBB1141>:
                data >>= 1;
ee006730:	0015d613          	srli	a2,a1,0x1

ee006734 <.LVL2452>:
                if (x16 == 1)
ee006734:	00185e13          	srli	t3,a6,0x1
ee006738:	ca91                	beqz	a3,ee00674c <.L2744>

ee00673a <.LVL2453>:
                   crc |= 0x8000;
ee00673a:	7769                	lui	a4,0xffffa
ee00673c:	00170313          	addi	t1,a4,1 # ffffa001 <STACK+0xffb1a51>
ee006740:	006e4533          	xor	a0,t3,t1

ee006744 <.LVL2454>:
ee006744:	01051893          	slli	a7,a0,0x10
ee006748:	0108de13          	srli	t3,a7,0x10

ee00674c <.L2744>:
                x16 = (ee_u8)((data & 1) ^ ((ee_u8)crc & 1));
ee00674c:	00ce4eb3          	xor	t4,t3,a2
                if (x16 == 1)
ee006750:	001eff13          	andi	t5,t4,1
                data >>= 1;
ee006754:	0025df93          	srli	t6,a1,0x2

ee006758 <.LVL2456>:
                if (x16 == 1)
ee006758:	001e5713          	srli	a4,t3,0x1
ee00675c:	000f0b63          	beqz	t5,ee006772 <.L2745>

ee006760 <.LVL2457>:
                   crc |= 0x8000;
ee006760:	7869                	lui	a6,0xffffa
ee006762:	00180293          	addi	t0,a6,1 # ffffa001 <STACK+0xffb1a51>

ee006766 <.LVL2458>:
ee006766:	005743b3          	xor	t2,a4,t0

ee00676a <.LVL2459>:
ee00676a:	01039693          	slli	a3,t2,0x10
ee00676e:	0106d713          	srli	a4,a3,0x10

ee006772 <.L2745>:
                x16 = (ee_u8)((data & 1) ^ ((ee_u8)crc & 1));
ee006772:	01f74633          	xor	a2,a4,t6
                if (x16 == 1)
ee006776:	00167313          	andi	t1,a2,1
                data >>= 1;
ee00677a:	0035d893          	srli	a7,a1,0x3

ee00677e <.LVL2461>:
                if (x16 == 1)
ee00677e:	00175f93          	srli	t6,a4,0x1
ee006782:	00030b63          	beqz	t1,ee006798 <.L2746>

ee006786 <.LVL2462>:
                   crc |= 0x8000;
ee006786:	7e69                	lui	t3,0xffffa
ee006788:	001e0e93          	addi	t4,t3,1 # ffffa001 <STACK+0xffb1a51>
ee00678c:	01dfc533          	xor	a0,t6,t4

ee006790 <.LVL2463>:
ee006790:	01051f13          	slli	t5,a0,0x10
ee006794:	010f5f93          	srli	t6,t5,0x10

ee006798 <.L2746>:
                x16 = (ee_u8)((data & 1) ^ ((ee_u8)crc & 1));
ee006798:	011fc833          	xor	a6,t6,a7
                if (x16 == 1)
ee00679c:	00187293          	andi	t0,a6,1
                data >>= 1;
ee0067a0:	0045d393          	srli	t2,a1,0x4

ee0067a4 <.LVL2465>:
                if (x16 == 1)
ee0067a4:	001fd893          	srli	a7,t6,0x1
ee0067a8:	00028b63          	beqz	t0,ee0067be <.L2747>

ee0067ac <.LVL2466>:
                   crc |= 0x8000;
ee0067ac:	76e9                	lui	a3,0xffffa
ee0067ae:	00168713          	addi	a4,a3,1 # ffffa001 <STACK+0xffb1a51>
ee0067b2:	00e8c633          	xor	a2,a7,a4

ee0067b6 <.LVL2467>:
ee0067b6:	01061313          	slli	t1,a2,0x10
ee0067ba:	01035893          	srli	a7,t1,0x10

ee0067be <.L2747>:
                x16 = (ee_u8)((data & 1) ^ ((ee_u8)crc & 1));
ee0067be:	0078ce33          	xor	t3,a7,t2
                if (x16 == 1)
ee0067c2:	001e7e93          	andi	t4,t3,1
                data >>= 1;
ee0067c6:	0055df13          	srli	t5,a1,0x5

ee0067ca <.LVL2469>:
                if (x16 == 1)
ee0067ca:	0018d393          	srli	t2,a7,0x1
ee0067ce:	000e8b63          	beqz	t4,ee0067e4 <.L2748>

ee0067d2 <.LVL2470>:
                   crc |= 0x8000;
ee0067d2:	7fe9                	lui	t6,0xffffa
ee0067d4:	001f8813          	addi	a6,t6,1 # ffffa001 <STACK+0xffb1a51>
ee0067d8:	0103c533          	xor	a0,t2,a6

ee0067dc <.LVL2471>:
ee0067dc:	01051293          	slli	t0,a0,0x10
ee0067e0:	0102d393          	srli	t2,t0,0x10

ee0067e4 <.L2748>:
                x16 = (ee_u8)((data & 1) ^ ((ee_u8)crc & 1));
ee0067e4:	01e3c6b3          	xor	a3,t2,t5
                if (x16 == 1)
ee0067e8:	0016f713          	andi	a4,a3,1
                data >>= 1;
ee0067ec:	0065d313          	srli	t1,a1,0x6

ee0067f0 <.LVL2473>:
                if (x16 == 1)
ee0067f0:	0013df13          	srli	t5,t2,0x1
ee0067f4:	cb11                	beqz	a4,ee006808 <.L2749>

ee0067f6 <.LVL2474>:
                   crc |= 0x8000;
ee0067f6:	7669                	lui	a2,0xffffa
ee0067f8:	00160893          	addi	a7,a2,1 # ffffa001 <STACK+0xffb1a51>
ee0067fc:	011f4e33          	xor	t3,t5,a7

ee006800 <.LVL2475>:
ee006800:	010e1e93          	slli	t4,t3,0x10
ee006804:	010edf13          	srli	t5,t4,0x10

ee006808 <.L2749>:
                x16 = (ee_u8)((data & 1) ^ ((ee_u8)crc & 1));
ee006808:	006f4fb3          	xor	t6,t5,t1
                if (x16 == 1)
ee00680c:	001ff813          	andi	a6,t6,1
                data >>= 1;
ee006810:	819d                	srli	a1,a1,0x7

ee006812 <.LVL2477>:
                if (x16 == 1)
ee006812:	001f5713          	srli	a4,t5,0x1
ee006816:	00080b63          	beqz	a6,ee00682c <.L2750>

ee00681a <.LVL2478>:
                   crc |= 0x8000;
ee00681a:	72e9                	lui	t0,0xffffa
ee00681c:	00128393          	addi	t2,t0,1 # ffffa001 <STACK+0xffb1a51>
ee006820:	00774533          	xor	a0,a4,t2

ee006824 <.LVL2479>:
ee006824:	01051693          	slli	a3,a0,0x10
ee006828:	0106d713          	srli	a4,a3,0x10

ee00682c <.L2750>:
                if (x16 == 1)
ee00682c:	00177313          	andi	t1,a4,1
ee006830:	00175f13          	srli	t5,a4,0x1
ee006834:	12b31763          	bne	t1,a1,ee006962 <.L2858>

ee006838 <.L2751>:
        crc=crcu8( (ee_u8) ((newval)>>8)        ,crc);
ee006838:	0087df93          	srli	t6,a5,0x8

ee00683c <.LBB1142>:
                x16 = (ee_u8)((data & 1) ^ ((ee_u8)crc & 1));
ee00683c:	01efc833          	xor	a6,t6,t5
                if (x16 == 1)
ee006840:	00187593          	andi	a1,a6,1

ee006844 <.LBE1142>:
        crc=crcu8( (ee_u8) ((newval)>>8)        ,crc);
ee006844:	0087d293          	srli	t0,a5,0x8

ee006848 <.LBB1145>:
                data >>= 1;
ee006848:	001f5313          	srli	t1,t5,0x1
ee00684c:	83a5                	srli	a5,a5,0x9

ee00684e <.LVL2483>:
                if (x16 == 1)
ee00684e:	c991                	beqz	a1,ee006862 <.L2752>

ee006850 <.LVL2484>:
                   crc |= 0x8000;
ee006850:	73e9                	lui	t2,0xffffa
ee006852:	00138693          	addi	a3,t2,1 # ffffa001 <STACK+0xffb1a51>
ee006856:	00d34533          	xor	a0,t1,a3

ee00685a <.LVL2485>:
ee00685a:	01051713          	slli	a4,a0,0x10
ee00685e:	01075313          	srli	t1,a4,0x10

ee006862 <.L2752>:
                x16 = (ee_u8)((data & 1) ^ ((ee_u8)crc & 1));
ee006862:	00f34633          	xor	a2,t1,a5
                if (x16 == 1)
ee006866:	00167893          	andi	a7,a2,1
                data >>= 1;
ee00686a:	0022de13          	srli	t3,t0,0x2

ee00686e <.LVL2487>:
                if (x16 == 1)
ee00686e:	00135593          	srli	a1,t1,0x1
ee006872:	00088b63          	beqz	a7,ee006888 <.L2753>

ee006876 <.LVL2488>:
                   crc |= 0x8000;
ee006876:	7ee9                	lui	t4,0xffffa
ee006878:	001e8f13          	addi	t5,t4,1 # ffffa001 <STACK+0xffb1a51>
ee00687c:	01e5cfb3          	xor	t6,a1,t5

ee006880 <.LVL2489>:
ee006880:	010f9813          	slli	a6,t6,0x10
ee006884:	01085593          	srli	a1,a6,0x10

ee006888 <.L2753>:
                x16 = (ee_u8)((data & 1) ^ ((ee_u8)crc & 1));
ee006888:	00be47b3          	xor	a5,t3,a1
                if (x16 == 1)
ee00688c:	0017f393          	andi	t2,a5,1
                data >>= 1;
ee006890:	0032d693          	srli	a3,t0,0x3

ee006894 <.LVL2491>:
                if (x16 == 1)
ee006894:	0015d893          	srli	a7,a1,0x1
ee006898:	00038b63          	beqz	t2,ee0068ae <.L2754>

ee00689c <.LVL2492>:
                   crc |= 0x8000;
ee00689c:	7769                	lui	a4,0xffffa
ee00689e:	00170313          	addi	t1,a4,1 # ffffa001 <STACK+0xffb1a51>
ee0068a2:	0068c533          	xor	a0,a7,t1

ee0068a6 <.LVL2493>:
ee0068a6:	01051613          	slli	a2,a0,0x10
ee0068aa:	01065893          	srli	a7,a2,0x10

ee0068ae <.L2754>:
                x16 = (ee_u8)((data & 1) ^ ((ee_u8)crc & 1));
ee0068ae:	0116ce33          	xor	t3,a3,a7
                if (x16 == 1)
ee0068b2:	001e7e93          	andi	t4,t3,1
                data >>= 1;
ee0068b6:	0042df13          	srli	t5,t0,0x4

ee0068ba <.LVL2495>:
                if (x16 == 1)
ee0068ba:	0018d393          	srli	t2,a7,0x1
ee0068be:	000e8b63          	beqz	t4,ee0068d4 <.L2755>

ee0068c2 <.LVL2496>:
                   crc |= 0x8000;
ee0068c2:	7fe9                	lui	t6,0xffffa
ee0068c4:	001f8813          	addi	a6,t6,1 # ffffa001 <STACK+0xffb1a51>
ee0068c8:	0103c5b3          	xor	a1,t2,a6

ee0068cc <.LVL2497>:
ee0068cc:	01059793          	slli	a5,a1,0x10
ee0068d0:	0107d393          	srli	t2,a5,0x10

ee0068d4 <.L2755>:
                x16 = (ee_u8)((data & 1) ^ ((ee_u8)crc & 1));
ee0068d4:	01e3c6b3          	xor	a3,t2,t5
                if (x16 == 1)
ee0068d8:	0016f713          	andi	a4,a3,1
                data >>= 1;
ee0068dc:	0052d313          	srli	t1,t0,0x5

ee0068e0 <.LVL2499>:
                if (x16 == 1)
ee0068e0:	0013de93          	srli	t4,t2,0x1
ee0068e4:	cb11                	beqz	a4,ee0068f8 <.L2756>

ee0068e6 <.LVL2500>:
                   crc |= 0x8000;
ee0068e6:	7669                	lui	a2,0xffffa
ee0068e8:	00160893          	addi	a7,a2,1 # ffffa001 <STACK+0xffb1a51>
ee0068ec:	011ec533          	xor	a0,t4,a7

ee0068f0 <.LVL2501>:
ee0068f0:	01051e13          	slli	t3,a0,0x10
ee0068f4:	010e5e93          	srli	t4,t3,0x10

ee0068f8 <.L2756>:
                x16 = (ee_u8)((data & 1) ^ ((ee_u8)crc & 1));
ee0068f8:	006ecf33          	xor	t5,t4,t1
                if (x16 == 1)
ee0068fc:	001f7f93          	andi	t6,t5,1
                data >>= 1;
ee006900:	0062d813          	srli	a6,t0,0x6

ee006904 <.LVL2503>:
                if (x16 == 1)
ee006904:	001ed313          	srli	t1,t4,0x1
ee006908:	000f8b63          	beqz	t6,ee00691e <.L2757>

ee00690c <.LVL2504>:
                   crc |= 0x8000;
ee00690c:	75e9                	lui	a1,0xffffa
ee00690e:	00158793          	addi	a5,a1,1 # ffffa001 <STACK+0xffb1a51>
ee006912:	00f343b3          	xor	t2,t1,a5

ee006916 <.LVL2505>:
ee006916:	01039693          	slli	a3,t2,0x10
ee00691a:	0106d313          	srli	t1,a3,0x10

ee00691e <.L2757>:
                x16 = (ee_u8)((data & 1) ^ ((ee_u8)crc & 1));
ee00691e:	01034733          	xor	a4,t1,a6
                if (x16 == 1)
ee006922:	00177613          	andi	a2,a4,1
                data >>= 1;
ee006926:	0072d293          	srli	t0,t0,0x7

ee00692a <.LVL2507>:
                if (x16 == 1)
ee00692a:	00135f13          	srli	t5,t1,0x1
ee00692e:	ca11                	beqz	a2,ee006942 <.L2758>

ee006930 <.LVL2508>:
                   crc |= 0x8000;
ee006930:	78e9                	lui	a7,0xffffa
ee006932:	00188e13          	addi	t3,a7,1 # ffffa001 <STACK+0xffb1a51>
ee006936:	01cf4533          	xor	a0,t5,t3

ee00693a <.LVL2509>:
ee00693a:	01051e93          	slli	t4,a0,0x10
ee00693e:	010edf13          	srli	t5,t4,0x10

ee006942 <.L2758>:
                if (x16 == 1)
ee006942:	001f7f93          	andi	t6,t5,1
ee006946:	001f5513          	srli	a0,t5,0x1
ee00694a:	005f8b63          	beq	t6,t0,ee006960 <.L2759>

ee00694e <.LVL2511>:
                   crc |= 0x8000;
ee00694e:	7869                	lui	a6,0xffffa
ee006950:	00180593          	addi	a1,a6,1 # ffffa001 <STACK+0xffb1a51>
ee006954:	00b547b3          	xor	a5,a0,a1
ee006958:	01079393          	slli	t2,a5,0x10
ee00695c:	0103d513          	srli	a0,t2,0x10

ee006960 <.L2759>:
}
ee006960:	8082                	ret

ee006962 <.L2858>:
                   crc |= 0x8000;
ee006962:	7669                	lui	a2,0xffffa
ee006964:	00160893          	addi	a7,a2,1 # ffffa001 <STACK+0xffb1a51>
ee006968:	011f4e33          	xor	t3,t5,a7

ee00696c <.LVL2514>:
ee00696c:	010e1e93          	slli	t4,t3,0x10
ee006970:	010edf13          	srli	t5,t4,0x10

ee006974 <.LVL2515>:
ee006974:	b5d1                	j	ee006838 <.L2751>

ee006976 <.L2857>:
ee006976:	7e69                	lui	t3,0xffffa
ee006978:	001e0e93          	addi	t4,t3,1 # ffffa001 <STACK+0xffb1a51>
ee00697c:	01d84f33          	xor	t5,a6,t4

ee006980 <.LVL2517>:
ee006980:	010f1f93          	slli	t6,t5,0x10
ee006984:	010fd813          	srli	a6,t6,0x10

ee006988 <.LVL2518>:
ee006988:	bb59                	j	ee00671e <.L2743>

ee00698a <.L2856>:
ee00698a:	7f69                	lui	t5,0xffffa
ee00698c:	001f0f93          	addi	t6,t5,1 # ffffa001 <STACK+0xffb1a51>
ee006990:	01f3c833          	xor	a6,t2,t6

ee006994 <.LVL2520>:
ee006994:	01081293          	slli	t0,a6,0x10
ee006998:	0102d393          	srli	t2,t0,0x10

ee00699c <.LVL2521>:
ee00699c:	b1ad                	j	ee006606 <.L2735>

ee00699e <crc16>:
                x16 = (ee_u8)((data & 1) ^ ((ee_u8)crc & 1));
ee00699e:	00a5c6b3          	xor	a3,a1,a0

ee0069a2 <.LBE1162>:
        crc=crcu8( (ee_u8) (newval)                             ,crc);
ee0069a2:	0ff57713          	andi	a4,a0,255

ee0069a6 <.LBE1160>:
        return crcu16((ee_u16)newval, crc);
ee0069a6:	01051793          	slli	a5,a0,0x10

ee0069aa <.LBB1167>:
                if (x16 == 1)
ee0069aa:	0016f293          	andi	t0,a3,1

ee0069ae <.LBE1167>:
        return crcu16((ee_u16)newval, crc);
ee0069ae:	0107d313          	srli	t1,a5,0x10

ee0069b2 <.LBB1168>:
                data >>= 1;
ee0069b2:	00175613          	srli	a2,a4,0x1

ee0069b6 <.LVL2524>:
                crc >>= 1;
ee0069b6:	0015d893          	srli	a7,a1,0x1
                if (x16 == 1)
ee0069ba:	00028b63          	beqz	t0,ee0069d0 <.L2860>

ee0069be <.LVL2525>:
                   crc |= 0x8000;
ee0069be:	73e9                	lui	t2,0xffffa
ee0069c0:	00138593          	addi	a1,t2,1 # ffffa001 <STACK+0xffb1a51>

ee0069c4 <.LVL2526>:
ee0069c4:	00b8c533          	xor	a0,a7,a1

ee0069c8 <.LVL2527>:
ee0069c8:	01051813          	slli	a6,a0,0x10
ee0069cc:	01085893          	srli	a7,a6,0x10

ee0069d0 <.L2860>:
                x16 = (ee_u8)((data & 1) ^ ((ee_u8)crc & 1));
ee0069d0:	00c8ce33          	xor	t3,a7,a2
                if (x16 == 1)
ee0069d4:	001e7e93          	andi	t4,t3,1
                data >>= 1;
ee0069d8:	00275f13          	srli	t5,a4,0x2

ee0069dc <.LVL2529>:
                crc >>= 1;
ee0069dc:	0018d393          	srli	t2,a7,0x1
                if (x16 == 1)
ee0069e0:	000e8b63          	beqz	t4,ee0069f6 <.L2861>

ee0069e4 <.LVL2530>:
                   crc |= 0x8000;
ee0069e4:	7fe9                	lui	t6,0xffffa
ee0069e6:	001f8693          	addi	a3,t6,1 # ffffa001 <STACK+0xffb1a51>
ee0069ea:	00d3c2b3          	xor	t0,t2,a3

ee0069ee <.LVL2531>:
ee0069ee:	01029793          	slli	a5,t0,0x10
ee0069f2:	0107d393          	srli	t2,a5,0x10

ee0069f6 <.L2861>:
                x16 = (ee_u8)((data & 1) ^ ((ee_u8)crc & 1));
ee0069f6:	01e3c633          	xor	a2,t2,t5
                if (x16 == 1)
ee0069fa:	00167593          	andi	a1,a2,1
                data >>= 1;
ee0069fe:	00375813          	srli	a6,a4,0x3

ee006a02 <.LVL2533>:
                crc >>= 1;
ee006a02:	0013df13          	srli	t5,t2,0x1
                if (x16 == 1)
ee006a06:	c991                	beqz	a1,ee006a1a <.L2862>

ee006a08 <.LVL2534>:
                   crc |= 0x8000;
ee006a08:	78e9                	lui	a7,0xffffa
ee006a0a:	00188e13          	addi	t3,a7,1 # ffffa001 <STACK+0xffb1a51>
ee006a0e:	01cf4533          	xor	a0,t5,t3

ee006a12 <.LVL2535>:
ee006a12:	01051e93          	slli	t4,a0,0x10
ee006a16:	010edf13          	srli	t5,t4,0x10

ee006a1a <.L2862>:
                x16 = (ee_u8)((data & 1) ^ ((ee_u8)crc & 1));
ee006a1a:	010f4fb3          	xor	t6,t5,a6
                if (x16 == 1)
ee006a1e:	001ff293          	andi	t0,t6,1
                data >>= 1;
ee006a22:	00475693          	srli	a3,a4,0x4

ee006a26 <.LVL2537>:
                crc >>= 1;
ee006a26:	001f5813          	srli	a6,t5,0x1
                if (x16 == 1)
ee006a2a:	00028b63          	beqz	t0,ee006a40 <.L2863>

ee006a2e <.LVL2538>:
                   crc |= 0x8000;
ee006a2e:	77e9                	lui	a5,0xffffa
ee006a30:	00178393          	addi	t2,a5,1 # ffffa001 <STACK+0xffb1a51>
ee006a34:	00784633          	xor	a2,a6,t2

ee006a38 <.LVL2539>:
ee006a38:	01061593          	slli	a1,a2,0x10
ee006a3c:	0105d813          	srli	a6,a1,0x10

ee006a40 <.L2863>:
                x16 = (ee_u8)((data & 1) ^ ((ee_u8)crc & 1));
ee006a40:	00d848b3          	xor	a7,a6,a3
                if (x16 == 1)
ee006a44:	0018fe13          	andi	t3,a7,1
                data >>= 1;
ee006a48:	00575e93          	srli	t4,a4,0x5

ee006a4c <.LVL2541>:
                crc >>= 1;
ee006a4c:	00185793          	srli	a5,a6,0x1
                if (x16 == 1)
ee006a50:	000e0b63          	beqz	t3,ee006a66 <.L2864>

ee006a54 <.LVL2542>:
                   crc |= 0x8000;
ee006a54:	7f69                	lui	t5,0xffffa
ee006a56:	001f0f93          	addi	t6,t5,1 # ffffa001 <STACK+0xffb1a51>
ee006a5a:	01f7c533          	xor	a0,a5,t6

ee006a5e <.LVL2543>:
ee006a5e:	01051293          	slli	t0,a0,0x10
ee006a62:	0102d793          	srli	a5,t0,0x10

ee006a66 <.L2864>:
                x16 = (ee_u8)((data & 1) ^ ((ee_u8)crc & 1));
ee006a66:	01d7c6b3          	xor	a3,a5,t4
                if (x16 == 1)
ee006a6a:	0016f393          	andi	t2,a3,1
                data >>= 1;
ee006a6e:	00675593          	srli	a1,a4,0x6

ee006a72 <.LVL2545>:
                crc >>= 1;
ee006a72:	0017de93          	srli	t4,a5,0x1
                if (x16 == 1)
ee006a76:	00038b63          	beqz	t2,ee006a8c <.L2865>

ee006a7a <.LVL2546>:
                   crc |= 0x8000;
ee006a7a:	7669                	lui	a2,0xffffa
ee006a7c:	00160813          	addi	a6,a2,1 # ffffa001 <STACK+0xffb1a51>
ee006a80:	010ec8b3          	xor	a7,t4,a6

ee006a84 <.LVL2547>:
ee006a84:	01089e13          	slli	t3,a7,0x10
ee006a88:	010e5e93          	srli	t4,t3,0x10

ee006a8c <.L2865>:
                x16 = (ee_u8)((data & 1) ^ ((ee_u8)crc & 1));
ee006a8c:	00becf33          	xor	t5,t4,a1
                if (x16 == 1)
ee006a90:	001f7f93          	andi	t6,t5,1
                data >>= 1;
ee006a94:	831d                	srli	a4,a4,0x7

ee006a96 <.LVL2549>:
                crc >>= 1;
ee006a96:	001ed393          	srli	t2,t4,0x1
                if (x16 == 1)
ee006a9a:	000f8b63          	beqz	t6,ee006ab0 <.L2866>

ee006a9e <.LVL2550>:
                   crc |= 0x8000;
ee006a9e:	72e9                	lui	t0,0xffffa
ee006aa0:	00128793          	addi	a5,t0,1 # ffffa001 <STACK+0xffb1a51>
ee006aa4:	00f3c533          	xor	a0,t2,a5

ee006aa8 <.LVL2551>:
ee006aa8:	01051693          	slli	a3,a0,0x10
ee006aac:	0106d393          	srli	t2,a3,0x10

ee006ab0 <.L2866>:
                if (x16 == 1)
ee006ab0:	0013f593          	andi	a1,t2,1
                crc >>= 1;
ee006ab4:	0013de93          	srli	t4,t2,0x1
                if (x16 == 1)
ee006ab8:	12e59763          	bne	a1,a4,ee006be6 <.L2924>

ee006abc <.L2867>:
        crc=crcu8( (ee_u8) ((newval)>>8)        ,crc);
ee006abc:	00835f13          	srli	t5,t1,0x8

ee006ac0 <.LBB1169>:
                x16 = (ee_u8)((data & 1) ^ ((ee_u8)crc & 1));
ee006ac0:	01df4fb3          	xor	t6,t5,t4
                if (x16 == 1)
ee006ac4:	001ff293          	andi	t0,t6,1

ee006ac8 <.LBE1169>:
        crc=crcu8( (ee_u8) ((newval)>>8)        ,crc);
ee006ac8:	00835713          	srli	a4,t1,0x8

ee006acc <.LBB1172>:
                data >>= 1;
ee006acc:	001ed593          	srli	a1,t4,0x1
ee006ad0:	00935313          	srli	t1,t1,0x9

ee006ad4 <.LVL2555>:
                if (x16 == 1)
ee006ad4:	00028b63          	beqz	t0,ee006aea <.L2868>

ee006ad8 <.LVL2556>:
                   crc |= 0x8000;
ee006ad8:	77e9                	lui	a5,0xffffa
ee006ada:	00178693          	addi	a3,a5,1 # ffffa001 <STACK+0xffb1a51>
ee006ade:	00d5c533          	xor	a0,a1,a3

ee006ae2 <.LVL2557>:
ee006ae2:	01051393          	slli	t2,a0,0x10
ee006ae6:	0103d593          	srli	a1,t2,0x10

ee006aea <.L2868>:
                x16 = (ee_u8)((data & 1) ^ ((ee_u8)crc & 1));
ee006aea:	00b34633          	xor	a2,t1,a1
                if (x16 == 1)
ee006aee:	00167813          	andi	a6,a2,1
                data >>= 1;
ee006af2:	00275893          	srli	a7,a4,0x2

ee006af6 <.LVL2559>:
                if (x16 == 1)
ee006af6:	0015d293          	srli	t0,a1,0x1
ee006afa:	00080b63          	beqz	a6,ee006b10 <.L2869>

ee006afe <.LVL2560>:
                   crc |= 0x8000;
ee006afe:	7e69                	lui	t3,0xffffa
ee006b00:	001e0e93          	addi	t4,t3,1 # ffffa001 <STACK+0xffb1a51>
ee006b04:	01d2cf33          	xor	t5,t0,t4

ee006b08 <.LVL2561>:
ee006b08:	010f1f93          	slli	t6,t5,0x10
ee006b0c:	010fd293          	srli	t0,t6,0x10

ee006b10 <.L2869>:
                x16 = (ee_u8)((data & 1) ^ ((ee_u8)crc & 1));
ee006b10:	0112c333          	xor	t1,t0,a7
                if (x16 == 1)
ee006b14:	00137793          	andi	a5,t1,1
                data >>= 1;
ee006b18:	00375693          	srli	a3,a4,0x3

ee006b1c <.LVL2563>:
                if (x16 == 1)
ee006b1c:	0012d813          	srli	a6,t0,0x1
ee006b20:	cb91                	beqz	a5,ee006b34 <.L2870>

ee006b22 <.LVL2564>:
                   crc |= 0x8000;
ee006b22:	73e9                	lui	t2,0xffffa
ee006b24:	00138593          	addi	a1,t2,1 # ffffa001 <STACK+0xffb1a51>
ee006b28:	00b84533          	xor	a0,a6,a1

ee006b2c <.LVL2565>:
ee006b2c:	01051613          	slli	a2,a0,0x10
ee006b30:	01065813          	srli	a6,a2,0x10

ee006b34 <.L2870>:
                x16 = (ee_u8)((data & 1) ^ ((ee_u8)crc & 1));
ee006b34:	00d848b3          	xor	a7,a6,a3
                if (x16 == 1)
ee006b38:	0018fe13          	andi	t3,a7,1
                data >>= 1;
ee006b3c:	00475e93          	srli	t4,a4,0x4

ee006b40 <.LVL2567>:
                if (x16 == 1)
ee006b40:	00185393          	srli	t2,a6,0x1
ee006b44:	000e0b63          	beqz	t3,ee006b5a <.L2871>

ee006b48 <.LVL2568>:
                   crc |= 0x8000;
ee006b48:	7f69                	lui	t5,0xffffa
ee006b4a:	001f0f93          	addi	t6,t5,1 # ffffa001 <STACK+0xffb1a51>
ee006b4e:	01f3c2b3          	xor	t0,t2,t6

ee006b52 <.LVL2569>:
ee006b52:	01029313          	slli	t1,t0,0x10
ee006b56:	01035393          	srli	t2,t1,0x10

ee006b5a <.L2871>:
                x16 = (ee_u8)((data & 1) ^ ((ee_u8)crc & 1));
ee006b5a:	01d3c7b3          	xor	a5,t2,t4
                if (x16 == 1)
ee006b5e:	0017f593          	andi	a1,a5,1
                data >>= 1;
ee006b62:	00575693          	srli	a3,a4,0x5

ee006b66 <.LVL2571>:
                if (x16 == 1)
ee006b66:	0013de13          	srli	t3,t2,0x1
ee006b6a:	c991                	beqz	a1,ee006b7e <.L2872>

ee006b6c <.LVL2572>:
                   crc |= 0x8000;
ee006b6c:	7669                	lui	a2,0xffffa
ee006b6e:	00160813          	addi	a6,a2,1 # ffffa001 <STACK+0xffb1a51>
ee006b72:	010e4533          	xor	a0,t3,a6

ee006b76 <.LVL2573>:
ee006b76:	01051893          	slli	a7,a0,0x10
ee006b7a:	0108de13          	srli	t3,a7,0x10

ee006b7e <.L2872>:
                x16 = (ee_u8)((data & 1) ^ ((ee_u8)crc & 1));
ee006b7e:	00de4eb3          	xor	t4,t3,a3
                if (x16 == 1)
ee006b82:	001eff13          	andi	t5,t4,1
                data >>= 1;
ee006b86:	00675f93          	srli	t6,a4,0x6

ee006b8a <.LVL2575>:
                if (x16 == 1)
ee006b8a:	001e5593          	srli	a1,t3,0x1
ee006b8e:	000f0b63          	beqz	t5,ee006ba4 <.L2873>

ee006b92 <.LVL2576>:
                   crc |= 0x8000;
ee006b92:	72e9                	lui	t0,0xffffa
ee006b94:	00128313          	addi	t1,t0,1 # ffffa001 <STACK+0xffb1a51>
ee006b98:	0065c3b3          	xor	t2,a1,t1

ee006b9c <.LVL2577>:
ee006b9c:	01039793          	slli	a5,t2,0x10
ee006ba0:	0107d593          	srli	a1,a5,0x10

ee006ba4 <.L2873>:
                x16 = (ee_u8)((data & 1) ^ ((ee_u8)crc & 1));
ee006ba4:	01f5c6b3          	xor	a3,a1,t6
                if (x16 == 1)
ee006ba8:	0016f613          	andi	a2,a3,1
                data >>= 1;
ee006bac:	831d                	srli	a4,a4,0x7

ee006bae <.LVL2579>:
                if (x16 == 1)
ee006bae:	0015de93          	srli	t4,a1,0x1
ee006bb2:	ca11                	beqz	a2,ee006bc6 <.L2874>

ee006bb4 <.LVL2580>:
                   crc |= 0x8000;
ee006bb4:	7869                	lui	a6,0xffffa
ee006bb6:	00180893          	addi	a7,a6,1 # ffffa001 <STACK+0xffb1a51>
ee006bba:	011ec533          	xor	a0,t4,a7

ee006bbe <.LVL2581>:
ee006bbe:	01051e13          	slli	t3,a0,0x10
ee006bc2:	010e5e93          	srli	t4,t3,0x10

ee006bc6 <.L2874>:
                if (x16 == 1)
ee006bc6:	001eff13          	andi	t5,t4,1
ee006bca:	001ed513          	srli	a0,t4,0x1
ee006bce:	00ef0b63          	beq	t5,a4,ee006be4 <.L2875>

ee006bd2 <.LVL2583>:
                   crc |= 0x8000;
ee006bd2:	7fe9                	lui	t6,0xffffa
ee006bd4:	001f8293          	addi	t0,t6,1 # ffffa001 <STACK+0xffb1a51>
ee006bd8:	00554333          	xor	t1,a0,t0
ee006bdc:	01031393          	slli	t2,t1,0x10
ee006be0:	0103d513          	srli	a0,t2,0x10

ee006be4 <.L2875>:
}
ee006be4:	8082                	ret

ee006be6 <.L2924>:
                   crc |= 0x8000;
ee006be6:	7669                	lui	a2,0xffffa
ee006be8:	00160813          	addi	a6,a2,1 # ffffa001 <STACK+0xffb1a51>
ee006bec:	010ec8b3          	xor	a7,t4,a6

ee006bf0 <.LVL2586>:
ee006bf0:	01089e13          	slli	t3,a7,0x10
ee006bf4:	010e5e93          	srli	t4,t3,0x10

ee006bf8 <.LVL2587>:
ee006bf8:	b5d1                	j	ee006abc <.L2867>

ee006bfa <check_data_types>:
        }
        if (retval>0) {
                ee_printf("ERROR: Please modify the datatypes in core_portme.h!\n");
        }
        return retval;
}
ee006bfa:	4501                	li	a0,0
ee006bfc:	8082                	ret

ee006bfe <start_time>:
        Implementation may be capturing a system timer (as implemented in the example code)
        or zeroing some system parameters - e.g. setting the cpu clocks cycles to 0.
*/
void start_time(void) {
uint32_t mcyclel;
        asm volatile ("csrr %0,mcycle"  : "=r" (mcyclel) );
ee006bfe:	b0002773          	csrr	a4,mcycle
        start_time_val = mcyclel;
ee006c02:	f00417b7          	lui	a5,0xf0041
ee006c06:	d8e7a023          	sw	a4,-640(a5) # f0040d80 <STACK+0xffff87d0>
}
ee006c0a:	8082                	ret

ee006c0c <stop_time>:
        Implementation may be capturing a system timer (as implemented in the example code)
        or other system parameters - e.g. reading the current value of cpu cycles counter.
*/
void stop_time(void) {
uint32_t mcyclel;
        asm volatile ("csrr %0,mcycle"  : "=r" (mcyclel) );
ee006c0c:	b0002773          	csrr	a4,mcycle
        stop_time_val = mcyclel;
ee006c10:	f00417b7          	lui	a5,0xf0041
ee006c14:	d6e7ae23          	sw	a4,-644(a5) # f0040d7c <STACK+0xffff87cc>
}
ee006c18:	8082                	ret

ee006c1a <get_time>:
        This methodology is taken to accomodate any hardware or simulated platform.
        The sample implementation returns millisecs by default,
        and the resolution is controlled by <TIMER_RES_DIVIDER>
*/
CORE_TICKS get_time(void) {
        CORE_TICKS elapsed=(CORE_TICKS)(MYTIMEDIFF(stop_time_val, start_time_val));
ee006c1a:	f00417b7          	lui	a5,0xf0041
ee006c1e:	f00412b7          	lui	t0,0xf0041
ee006c22:	d7c7a503          	lw	a0,-644(a5) # f0040d7c <STACK+0xffff87cc>
ee006c26:	d802a303          	lw	t1,-640(t0) # f0040d80 <STACK+0xffff87d0>
        return elapsed;
}
ee006c2a:	40650533          	sub	a0,a0,t1

ee006c2e <.LVL2592>:
ee006c2e:	8082                	ret

ee006c30 <time_in_secs>:

        The <secs_ret> type is used to accomodate systems with no support for floating point.
        Default implementation implemented by the EE_TICKS_PER_SEC macro above.
*/
secs_ret time_in_secs(CORE_TICKS ticks) {
        secs_ret retval=((secs_ret)ticks) / (secs_ret)EE_TICKS_PER_SEC;
ee006c30:	3e800793          	li	a5,1000
        return retval;
}
ee006c34:	02f55533          	divu	a0,a0,a5

ee006c38 <.LVL2594>:
ee006c38:	8082                	ret

ee006c3a <portable_init>:
                ee_printf("ERROR! Please define ee_ptr_int to a type that holds a pointer!\n");
        }
        if (sizeof(ee_u32) != 4) {
                ee_printf("ERROR! Please define ee_u32 to a 32b unsigned type!\n");
        }
        p->portable_id=1;
ee006c3a:	4785                	li	a5,1
ee006c3c:	00f50023          	sb	a5,0(a0)
}
ee006c40:	8082                	ret

ee006c42 <portable_fini>:
/* Function : portable_fini
        Target specific final code
*/
void portable_fini(core_portable *p)
{
        p->portable_id=0;
ee006c42:	00050023          	sb	zero,0(a0)
}
ee006c46:	8082                	ret

ee006c48 <whisperPrintfImpl>:
int
whisperPrintfImpl(const char* format, va_list ap)
{
  int count = 0;  // Printed character count

  for (const char* fp = format; *fp; fp++)
ee006c48:	00054783          	lbu	a5,0(a0)
ee006c4c:	0e078ae3          	beqz	a5,ee007540 <.L2967>

ee006c50 <.LBE1222>:
{
ee006c50:	7139                	addi	sp,sp,-64
ee006c52:	f0040fb7          	lui	t6,0xf0040
ee006c56:	de22                	sw	s0,60(sp)
ee006c58:	862a                	mv	a2,a0
ee006c5a:	dc26                	sw	s1,56(sp)
ee006c5c:	da4a                	sw	s2,52(sp)
ee006c5e:	d84e                	sw	s3,48(sp)
ee006c60:	d652                	sw	s4,44(sp)
ee006c62:	d456                	sw	s5,40(sp)
  int count = 0;  // Printed character count
ee006c64:	4501                	li	a0,0

ee006c66 <.LBB1442>:
    {
      if (*fp != '%')
ee006c66:	02500313          	li	t1,37
        {
          whisperPutc('%');
          continue;
        }

      if (*fp == '-')
ee006c6a:	02d00293          	li	t0,45
        {
          fp++;  // Pad right not yet implemented.
        }

      while (*fp == '0')
ee006c6e:	03000893          	li	a7,48
        {
          fp++;  // Pad zero not yet implented.
        }

      if (*fp == '*')
ee006c72:	02a00413          	li	s0,42
ee006c76:	02000393          	li	t2,32
ee006c7a:	024f8f93          	addi	t6,t6,36 # f0040024 <STACK+0xffff7a74>

ee006c7e <.LBB1223>:
  *(volatile char*)(STDOUT) = c;
ee006c7e:	d0580837          	lui	a6,0xd0580
ee006c82:	00b10f13          	addi	t5,sp,11

ee006c86 <.LBB1244>:
          char c = digit < 10 ? '0' + digit : 'a' + digit;
ee006c86:	4ea5                	li	t4,9

ee006c88 <.LBB1284>:
      char c = '0' + (value % 10);
ee006c88:	4e29                	li	t3,10
ee006c8a:	a811                	j	ee006c9e <.L2966>

ee006c8c <.L3194>:
          continue;
ee006c8c:	8736                	mv	a4,a3

ee006c8e <.LBB1335>:
  *(volatile char*)(STDOUT) = c;
ee006c8e:	00f80023          	sb	a5,0(a6) # d0580000 <STACK+0xe0537a50>

ee006c92 <.LBE1335>:
          continue;
ee006c92:	86b2                	mv	a3,a2
          ++count;
ee006c94:	0505                	addi	a0,a0,1
          continue;
ee006c96:	863a                	mv	a2,a4

ee006c98 <.L2935>:
  for (const char* fp = format; *fp; fp++)
ee006c98:	0016c783          	lbu	a5,1(a3)
ee006c9c:	cfdd                	beqz	a5,ee006d5a <.L2932>

ee006c9e <.L2966>:
      ++fp;  // Skip %
ee006c9e:	00160693          	addi	a3,a2,1
      if (*fp != '%')
ee006ca2:	fe6795e3          	bne	a5,t1,ee006c8c <.L3194>

ee006ca6 <.LVL2604>:
      if (*fp == 0)
ee006ca6:	00164783          	lbu	a5,1(a2)
ee006caa:	cbc5                	beqz	a5,ee006d5a <.L2932>
      if (*fp == '%')
ee006cac:	0a678163          	beq	a5,t1,ee006d4e <.L3195>
      if (*fp == '-')
ee006cb0:	08578a63          	beq	a5,t0,ee006d44 <.L3196>

ee006cb4 <.L2937>:
      while (*fp == '0')
ee006cb4:	07179163          	bne	a5,a7,ee006d16 <.L2938>

ee006cb8 <.L2939>:
ee006cb8:	0016c783          	lbu	a5,1(a3)
          fp++;  // Pad zero not yet implented.
ee006cbc:	0685                	addi	a3,a3,1

ee006cbe <.LVL2606>:
ee006cbe:	8736                	mv	a4,a3
      while (*fp == '0')
ee006cc0:	05179b63          	bne	a5,a7,ee006d16 <.L2938>

ee006cc4 <.LVL2607>:
ee006cc4:	0016c783          	lbu	a5,1(a3)
          fp++;  // Pad zero not yet implented.
ee006cc8:	0685                	addi	a3,a3,1

ee006cca <.LVL2608>:
      while (*fp == '0')
ee006cca:	05179663          	bne	a5,a7,ee006d16 <.L2938>

ee006cce <.LVL2609>:
ee006cce:	00274783          	lbu	a5,2(a4)
          fp++;  // Pad zero not yet implented.
ee006cd2:	00270693          	addi	a3,a4,2

ee006cd6 <.LVL2610>:
      while (*fp == '0')
ee006cd6:	05179063          	bne	a5,a7,ee006d16 <.L2938>

ee006cda <.LVL2611>:
ee006cda:	00374783          	lbu	a5,3(a4)
          fp++;  // Pad zero not yet implented.
ee006cde:	00370693          	addi	a3,a4,3

ee006ce2 <.LVL2612>:
      while (*fp == '0')
ee006ce2:	03179a63          	bne	a5,a7,ee006d16 <.L2938>

ee006ce6 <.LVL2613>:
ee006ce6:	00474783          	lbu	a5,4(a4)
          fp++;  // Pad zero not yet implented.
ee006cea:	00470693          	addi	a3,a4,4

ee006cee <.LVL2614>:
      while (*fp == '0')
ee006cee:	03179463          	bne	a5,a7,ee006d16 <.L2938>

ee006cf2 <.LVL2615>:
ee006cf2:	00574783          	lbu	a5,5(a4)
          fp++;  // Pad zero not yet implented.
ee006cf6:	00570693          	addi	a3,a4,5

ee006cfa <.LVL2616>:
      while (*fp == '0')
ee006cfa:	01179e63          	bne	a5,a7,ee006d16 <.L2938>

ee006cfe <.LVL2617>:
ee006cfe:	00674783          	lbu	a5,6(a4)
          fp++;  // Pad zero not yet implented.
ee006d02:	00670693          	addi	a3,a4,6

ee006d06 <.LVL2618>:
      while (*fp == '0')
ee006d06:	01179863          	bne	a5,a7,ee006d16 <.L2938>

ee006d0a <.LVL2619>:
ee006d0a:	00774783          	lbu	a5,7(a4)
          fp++;  // Pad zero not yet implented.
ee006d0e:	00770693          	addi	a3,a4,7

ee006d12 <.LVL2620>:
      while (*fp == '0')
ee006d12:	fb1783e3          	beq	a5,a7,ee006cb8 <.L2939>

ee006d16 <.L2938>:
        {
          int width = va_arg(ap, int);
          fp++;  // Width not yet implemented.
ee006d16:	00168713          	addi	a4,a3,1

ee006d1a <.LBE1336>:
      if (*fp == '*')
ee006d1a:	04879863          	bne	a5,s0,ee006d6a <.L3197>

ee006d1e <.LBB1337>:
        {
          while (*fp >= '0' && *fp <= '9')
            ++fp;   // Width not yet implemented.
        }

      switch (*fp)
ee006d1e:	0016c783          	lbu	a5,1(a3)
  for (const char* fp = format; *fp; fp++)
ee006d22:	00268613          	addi	a2,a3,2

ee006d26 <.LBB1338>:
          int width = va_arg(ap, int);
ee006d26:	0591                	addi	a1,a1,4

ee006d28 <.LVL2622>:
          fp++;  // Width not yet implemented.
ee006d28:	86ba                	mv	a3,a4

ee006d2a <.L2942>:
      switch (*fp)
ee006d2a:	fa878793          	addi	a5,a5,-88
ee006d2e:	0ff7f993          	andi	s3,a5,255
ee006d32:	f733e3e3          	bltu	t2,s3,ee006c98 <.L2935>
ee006d36:	00299a13          	slli	s4,s3,0x2
ee006d3a:	01fa0ab3          	add	s5,s4,t6
ee006d3e:	000aa483          	lw	s1,0(s5)
ee006d42:	8482                	jr	s1

ee006d44 <.L3196>:
      while (*fp == '0')
ee006d44:	00264783          	lbu	a5,2(a2)
          fp++;  // Pad right not yet implemented.
ee006d48:	00260693          	addi	a3,a2,2
ee006d4c:	b7a5                	j	ee006cb4 <.L2937>

ee006d4e <.L3195>:
  *(volatile char*)(STDOUT) = c;
ee006d4e:	00680023          	sb	t1,0(a6)

ee006d52 <.LBE1339>:
  for (const char* fp = format; *fp; fp++)
ee006d52:	0016c783          	lbu	a5,1(a3)
ee006d56:	0609                	addi	a2,a2,2

ee006d58 <.LVL2628>:
ee006d58:	f3b9                	bnez	a5,ee006c9e <.L2966>

ee006d5a <.L2932>:
          break;
        }
    }

  return count;
}
ee006d5a:	5472                	lw	s0,60(sp)
ee006d5c:	54e2                	lw	s1,56(sp)
ee006d5e:	5952                	lw	s2,52(sp)
ee006d60:	59c2                	lw	s3,48(sp)
ee006d62:	5a32                	lw	s4,44(sp)
ee006d64:	5aa2                	lw	s5,40(sp)
ee006d66:	6121                	addi	sp,sp,64
ee006d68:	8082                	ret

ee006d6a <.L3197>:
          while (*fp >= '0' && *fp <= '9')
ee006d6a:	fd078613          	addi	a2,a5,-48
ee006d6e:	0ff67493          	andi	s1,a2,255
ee006d72:	7c9ee463          	bltu	t4,s1,ee00753a <.L3198>
ee006d76:	00074783          	lbu	a5,0(a4)
ee006d7a:	8636                	mv	a2,a3

ee006d7c <.LVL2630>:
            ++fp;   // Width not yet implemented.
ee006d7c:	86ba                	mv	a3,a4

ee006d7e <.LVL2631>:
          while (*fp >= '0' && *fp <= '9')
ee006d7e:	fd078913          	addi	s2,a5,-48
ee006d82:	0ff97993          	andi	s3,s2,255
ee006d86:	0b3eea63          	bltu	t4,s3,ee006e3a <.L3176>

ee006d8a <.L3199>:
ee006d8a:	00174783          	lbu	a5,1(a4)
ee006d8e:	863a                	mv	a2,a4

ee006d90 <.LVL2633>:
            ++fp;   // Width not yet implemented.
ee006d90:	00170693          	addi	a3,a4,1

ee006d94 <.LVL2634>:
          while (*fp >= '0' && *fp <= '9')
ee006d94:	fd078a13          	addi	s4,a5,-48
ee006d98:	0ffa7a93          	andi	s5,s4,255
ee006d9c:	095eef63          	bltu	t4,s5,ee006e3a <.L3176>

ee006da0 <.LVL2635>:
ee006da0:	00274783          	lbu	a5,2(a4)
ee006da4:	8636                	mv	a2,a3

ee006da6 <.LVL2636>:
            ++fp;   // Width not yet implemented.
ee006da6:	00270693          	addi	a3,a4,2

ee006daa <.LVL2637>:
          while (*fp >= '0' && *fp <= '9')
ee006daa:	fd078493          	addi	s1,a5,-48
ee006dae:	0ff4f913          	andi	s2,s1,255
ee006db2:	092ee463          	bltu	t4,s2,ee006e3a <.L3176>

ee006db6 <.LVL2638>:
ee006db6:	00374783          	lbu	a5,3(a4)
ee006dba:	8636                	mv	a2,a3

ee006dbc <.LVL2639>:
            ++fp;   // Width not yet implemented.
ee006dbc:	00370693          	addi	a3,a4,3

ee006dc0 <.LVL2640>:
          while (*fp >= '0' && *fp <= '9')
ee006dc0:	fd078993          	addi	s3,a5,-48
ee006dc4:	0ff9fa13          	andi	s4,s3,255
ee006dc8:	074ee963          	bltu	t4,s4,ee006e3a <.L3176>

ee006dcc <.LVL2641>:
ee006dcc:	00474783          	lbu	a5,4(a4)
ee006dd0:	8636                	mv	a2,a3

ee006dd2 <.LVL2642>:
            ++fp;   // Width not yet implemented.
ee006dd2:	00470693          	addi	a3,a4,4

ee006dd6 <.LVL2643>:
          while (*fp >= '0' && *fp <= '9')
ee006dd6:	fd078a93          	addi	s5,a5,-48
ee006dda:	0ffaf493          	andi	s1,s5,255
ee006dde:	049eee63          	bltu	t4,s1,ee006e3a <.L3176>

ee006de2 <.LVL2644>:
ee006de2:	00574783          	lbu	a5,5(a4)
ee006de6:	8636                	mv	a2,a3

ee006de8 <.LVL2645>:
            ++fp;   // Width not yet implemented.
ee006de8:	00570693          	addi	a3,a4,5

ee006dec <.LVL2646>:
          while (*fp >= '0' && *fp <= '9')
ee006dec:	fd078913          	addi	s2,a5,-48
ee006df0:	0ff97993          	andi	s3,s2,255
ee006df4:	053ee363          	bltu	t4,s3,ee006e3a <.L3176>

ee006df8 <.LVL2647>:
ee006df8:	00674783          	lbu	a5,6(a4)
ee006dfc:	8636                	mv	a2,a3

ee006dfe <.LVL2648>:
            ++fp;   // Width not yet implemented.
ee006dfe:	00670693          	addi	a3,a4,6

ee006e02 <.LVL2649>:
          while (*fp >= '0' && *fp <= '9')
ee006e02:	fd078a13          	addi	s4,a5,-48
ee006e06:	0ffa7a93          	andi	s5,s4,255
ee006e0a:	035ee863          	bltu	t4,s5,ee006e3a <.L3176>

ee006e0e <.LVL2650>:
ee006e0e:	00774783          	lbu	a5,7(a4)
ee006e12:	8636                	mv	a2,a3

ee006e14 <.LVL2651>:
            ++fp;   // Width not yet implemented.
ee006e14:	00770693          	addi	a3,a4,7

ee006e18 <.LVL2652>:
          while (*fp >= '0' && *fp <= '9')
ee006e18:	fd078493          	addi	s1,a5,-48
ee006e1c:	0ff4f913          	andi	s2,s1,255
ee006e20:	012eed63          	bltu	t4,s2,ee006e3a <.L3176>
ee006e24:	00874783          	lbu	a5,8(a4)
ee006e28:	0721                	addi	a4,a4,8

ee006e2a <.LVL2653>:
            ++fp;   // Width not yet implemented.
ee006e2a:	8636                	mv	a2,a3

ee006e2c <.LVL2654>:
          while (*fp >= '0' && *fp <= '9')
ee006e2c:	fd078913          	addi	s2,a5,-48
ee006e30:	0ff97993          	andi	s3,s2,255
            ++fp;   // Width not yet implemented.
ee006e34:	86ba                	mv	a3,a4

ee006e36 <.LVL2655>:
          while (*fp >= '0' && *fp <= '9')
ee006e36:	f53efae3          	bgeu	t4,s3,ee006d8a <.L3199>

ee006e3a <.L3176>:
  for (const char* fp = format; *fp; fp++)
ee006e3a:	0609                	addi	a2,a2,2
ee006e3c:	b5fd                	j	ee006d2a <.L2942>

ee006e3e <.L2943>:
  unsigned uu = value;
ee006e3e:	419c                	lw	a5,0(a1)
  int charCount = 0;
ee006e40:	4981                	li	s3,0

ee006e42 <.LBE1341>:
          count += whisperPrintInt(va_arg(ap, int), 16);
ee006e42:	0591                	addi	a1,a1,4

ee006e44 <.LBB1342>:
  if (base == 8)
ee006e44:	a011                	j	ee006e48 <.L2960>

ee006e46 <.L2970>:
          buffer[charCount++] = c;
ee006e46:	89ba                	mv	s3,a4

ee006e48 <.L2960>:
          char c = digit < 10 ? '0' + digit : 'a' + digit;
ee006e48:	00f7f913          	andi	s2,a5,15
ee006e4c:	06190493          	addi	s1,s2,97 # ffffa061 <STACK+0xffb1ab1>
ee006e50:	012ec463          	blt	t4,s2,ee006e58 <.L2959>
ee006e54:	03090493          	addi	s1,s2,48

ee006e58 <.L2959>:
          buffer[charCount++] = c;
ee006e58:	00198713          	addi	a4,s3,1

ee006e5c <.LVL2660>:
ee006e5c:	00c10a93          	addi	s5,sp,12
ee006e60:	00ea8933          	add	s2,s5,a4
ee006e64:	fe990fa3          	sb	s1,-1(s2)
          uu >>= 4;
ee006e68:	8391                	srli	a5,a5,0x4

ee006e6a <.LBE1248>:
      while (uu);
ee006e6a:	fff1                	bnez	a5,ee006e46 <.L2970>
  char* p = buffer + charCount - 1;
ee006e6c:	00c10a13          	addi	s4,sp,12
ee006e70:	013a07b3          	add	a5,s4,s3

ee006e74 <.LBB1249>:
  for (unsigned i = 0; i < charCount; ++i)
ee006e74:	41e789b3          	sub	s3,a5,t5

ee006e78 <.LVL2663>:
ee006e78:	0079f493          	andi	s1,s3,7

ee006e7c <.LVL2664>:
ee006e7c:	c8a5                	beqz	s1,ee006eec <.L2961>
ee006e7e:	4a85                	li	s5,1
ee006e80:	05548f63          	beq	s1,s5,ee006ede <.L3127>
ee006e84:	4909                	li	s2,2

ee006e86 <.LVL2665>:
ee006e86:	05248763          	beq	s1,s2,ee006ed4 <.L3128>
ee006e8a:	4a0d                	li	s4,3

ee006e8c <.LVL2666>:
ee006e8c:	03448f63          	beq	s1,s4,ee006eca <.L3129>
ee006e90:	4991                	li	s3,4
ee006e92:	03348763          	beq	s1,s3,ee006ec0 <.L3130>
ee006e96:	4a95                	li	s5,5
ee006e98:	01548f63          	beq	s1,s5,ee006eb6 <.L3131>
ee006e9c:	4919                	li	s2,6
ee006e9e:	01248763          	beq	s1,s2,ee006eac <.L3132>

ee006ea2 <.LVL2667>:
    whisperPutc(*p--);
ee006ea2:	0007c483          	lbu	s1,0(a5)
ee006ea6:	17fd                	addi	a5,a5,-1

ee006ea8 <.LBB1250>:
  *(volatile char*)(STDOUT) = c;
ee006ea8:	00980023          	sb	s1,0(a6)

ee006eac <.L3132>:
    whisperPutc(*p--);
ee006eac:	0007ca03          	lbu	s4,0(a5)
ee006eb0:	17fd                	addi	a5,a5,-1

ee006eb2 <.LBB1267>:
  *(volatile char*)(STDOUT) = c;
ee006eb2:	01480023          	sb	s4,0(a6)

ee006eb6 <.L3131>:
    whisperPutc(*p--);
ee006eb6:	0007c983          	lbu	s3,0(a5)
ee006eba:	17fd                	addi	a5,a5,-1

ee006ebc <.LBB1268>:
  *(volatile char*)(STDOUT) = c;
ee006ebc:	01380023          	sb	s3,0(a6)

ee006ec0 <.L3130>:
    whisperPutc(*p--);
ee006ec0:	0007ca83          	lbu	s5,0(a5)
ee006ec4:	17fd                	addi	a5,a5,-1

ee006ec6 <.LBB1269>:
  *(volatile char*)(STDOUT) = c;
ee006ec6:	01580023          	sb	s5,0(a6)

ee006eca <.L3129>:
    whisperPutc(*p--);
ee006eca:	0007c903          	lbu	s2,0(a5)
ee006ece:	17fd                	addi	a5,a5,-1

ee006ed0 <.LBB1270>:
  *(volatile char*)(STDOUT) = c;
ee006ed0:	01280023          	sb	s2,0(a6)

ee006ed4 <.L3128>:
    whisperPutc(*p--);
ee006ed4:	0007c483          	lbu	s1,0(a5)
ee006ed8:	17fd                	addi	a5,a5,-1

ee006eda <.LBB1271>:
  *(volatile char*)(STDOUT) = c;
ee006eda:	00980023          	sb	s1,0(a6)

ee006ede <.L3127>:
    whisperPutc(*p--);
ee006ede:	0007ca03          	lbu	s4,0(a5)
ee006ee2:	17fd                	addi	a5,a5,-1

ee006ee4 <.LBB1272>:
  *(volatile char*)(STDOUT) = c;
ee006ee4:	01480023          	sb	s4,0(a6)

ee006ee8 <.LBE1272>:
  for (unsigned i = 0; i < charCount; ++i)
ee006ee8:	05e78563          	beq	a5,t5,ee006f32 <.L3181>

ee006eec <.L2961>:
    whisperPutc(*p--);
ee006eec:	0007c983          	lbu	s3,0(a5)

ee006ef0 <.LBB1273>:
ee006ef0:	17e1                	addi	a5,a5,-8

ee006ef2 <.LBB1274>:
  *(volatile char*)(STDOUT) = c;
ee006ef2:	01380023          	sb	s3,0(a6)

ee006ef6 <.LBE1274>:
    whisperPutc(*p--);
ee006ef6:	0077ca83          	lbu	s5,7(a5)

ee006efa <.LBB1275>:
  *(volatile char*)(STDOUT) = c;
ee006efa:	01580023          	sb	s5,0(a6)

ee006efe <.LBE1275>:
    whisperPutc(*p--);
ee006efe:	0067c903          	lbu	s2,6(a5)

ee006f02 <.LBB1276>:
  *(volatile char*)(STDOUT) = c;
ee006f02:	01280023          	sb	s2,0(a6)

ee006f06 <.LBE1276>:
    whisperPutc(*p--);
ee006f06:	0057c483          	lbu	s1,5(a5)

ee006f0a <.LBB1277>:
  *(volatile char*)(STDOUT) = c;
ee006f0a:	00980023          	sb	s1,0(a6)

ee006f0e <.LBE1277>:
    whisperPutc(*p--);
ee006f0e:	0047ca03          	lbu	s4,4(a5)

ee006f12 <.LBB1278>:
  *(volatile char*)(STDOUT) = c;
ee006f12:	01480023          	sb	s4,0(a6)

ee006f16 <.LBE1278>:
    whisperPutc(*p--);
ee006f16:	0037c983          	lbu	s3,3(a5)

ee006f1a <.LBB1279>:
  *(volatile char*)(STDOUT) = c;
ee006f1a:	01380023          	sb	s3,0(a6)

ee006f1e <.LBE1279>:
    whisperPutc(*p--);
ee006f1e:	0027ca83          	lbu	s5,2(a5)

ee006f22 <.LBB1280>:
  *(volatile char*)(STDOUT) = c;
ee006f22:	01580023          	sb	s5,0(a6)

ee006f26 <.LBE1280>:
    whisperPutc(*p--);
ee006f26:	0017c903          	lbu	s2,1(a5)

ee006f2a <.LBB1281>:
  *(volatile char*)(STDOUT) = c;
ee006f2a:	01280023          	sb	s2,0(a6)

ee006f2e <.LBE1281>:
  for (unsigned i = 0; i < charCount; ++i)
ee006f2e:	fbe79fe3          	bne	a5,t5,ee006eec <.L2961>

ee006f32 <.L3181>:
          count += whisperPrintInt(va_arg(ap, int), 16);
ee006f32:	953a                	add	a0,a0,a4
          break;
ee006f34:	b395                	j	ee006c98 <.L2935>

ee006f36 <.L2945>:
          count += whisperPrintDecimal((unsigned) va_arg(ap, unsigned));
ee006f36:	0005a983          	lw	s3,0(a1)
ee006f3a:	0591                	addi	a1,a1,4

ee006f3c <.LBB1343>:
  if (neg)
ee006f3c:	87ce                	mv	a5,s3
ee006f3e:	5e09c963          	bltz	s3,ee007530 <.L3200>

ee006f42 <.L2954>:
ee006f42:	4701                	li	a4,0

ee006f44 <.L2955>:
      char c = '0' + (value % 10);
ee006f44:	03c7ea33          	rem	s4,a5,t3
      buffer[charCount++] = c;
ee006f48:	00c10913          	addi	s2,sp,12
ee006f4c:	84ba                	mv	s1,a4
ee006f4e:	0705                	addi	a4,a4,1

ee006f50 <.LVL2698>:
ee006f50:	00e90ab3          	add	s5,s2,a4
ee006f54:	893a                	mv	s2,a4
      value = value / 10;
ee006f56:	03c7c7b3          	div	a5,a5,t3

ee006f5a <.LVL2699>:
      char c = '0' + (value % 10);
ee006f5a:	030a0a13          	addi	s4,s4,48

ee006f5e <.LVL2700>:
      buffer[charCount++] = c;
ee006f5e:	ff4a8fa3          	sb	s4,-1(s5)

ee006f62 <.LBE1287>:
  while (value);
ee006f62:	cbf1                	beqz	a5,ee007036 <.L3187>

ee006f64 <.LBB1288>:
      char c = '0' + (value % 10);
ee006f64:	03c7ea33          	rem	s4,a5,t3

ee006f68 <.LVL2701>:
ee006f68:	84ba                	mv	s1,a4
      buffer[charCount++] = c;
ee006f6a:	00c10a93          	addi	s5,sp,12

ee006f6e <.LVL2702>:
ee006f6e:	0705                	addi	a4,a4,1

ee006f70 <.LVL2703>:
ee006f70:	9aba                	add	s5,s5,a4

ee006f72 <.LVL2704>:
      value = value / 10;
ee006f72:	03c7c7b3          	div	a5,a5,t3

ee006f76 <.LVL2705>:
      char c = '0' + (value % 10);
ee006f76:	030a0a13          	addi	s4,s4,48
      buffer[charCount++] = c;
ee006f7a:	ff4a8fa3          	sb	s4,-1(s5)

ee006f7e <.LBE1288>:
  while (value);
ee006f7e:	cfc5                	beqz	a5,ee007036 <.L3187>

ee006f80 <.LBB1289>:
      char c = '0' + (value % 10);
ee006f80:	03c7ea33          	rem	s4,a5,t3
ee006f84:	84ba                	mv	s1,a4

ee006f86 <.LVL2706>:
      buffer[charCount++] = c;
ee006f86:	00c10a93          	addi	s5,sp,12

ee006f8a <.LVL2707>:
ee006f8a:	00290713          	addi	a4,s2,2

ee006f8e <.LVL2708>:
ee006f8e:	9aba                	add	s5,s5,a4

ee006f90 <.LVL2709>:
      value = value / 10;
ee006f90:	03c7c7b3          	div	a5,a5,t3

ee006f94 <.LVL2710>:
      char c = '0' + (value % 10);
ee006f94:	030a0a13          	addi	s4,s4,48
      buffer[charCount++] = c;
ee006f98:	ff4a8fa3          	sb	s4,-1(s5)

ee006f9c <.LBE1289>:
  while (value);
ee006f9c:	cfc9                	beqz	a5,ee007036 <.L3187>

ee006f9e <.LBB1290>:
      char c = '0' + (value % 10);
ee006f9e:	03c7ea33          	rem	s4,a5,t3
ee006fa2:	84ba                	mv	s1,a4
      buffer[charCount++] = c;
ee006fa4:	00c10a93          	addi	s5,sp,12

ee006fa8 <.LVL2711>:
ee006fa8:	00390713          	addi	a4,s2,3

ee006fac <.LVL2712>:
ee006fac:	9aba                	add	s5,s5,a4

ee006fae <.LVL2713>:
      value = value / 10;
ee006fae:	03c7c7b3          	div	a5,a5,t3

ee006fb2 <.LVL2714>:
      char c = '0' + (value % 10);
ee006fb2:	030a0a13          	addi	s4,s4,48
      buffer[charCount++] = c;
ee006fb6:	ff4a8fa3          	sb	s4,-1(s5)

ee006fba <.LBE1290>:
  while (value);
ee006fba:	cfb5                	beqz	a5,ee007036 <.L3187>

ee006fbc <.LBB1291>:
      char c = '0' + (value % 10);
ee006fbc:	03c7ea33          	rem	s4,a5,t3
ee006fc0:	84ba                	mv	s1,a4
      buffer[charCount++] = c;
ee006fc2:	00c10a93          	addi	s5,sp,12

ee006fc6 <.LVL2715>:
ee006fc6:	00490713          	addi	a4,s2,4

ee006fca <.LVL2716>:
ee006fca:	9aba                	add	s5,s5,a4

ee006fcc <.LVL2717>:
      value = value / 10;
ee006fcc:	03c7c7b3          	div	a5,a5,t3

ee006fd0 <.LVL2718>:
      char c = '0' + (value % 10);
ee006fd0:	030a0a13          	addi	s4,s4,48
      buffer[charCount++] = c;
ee006fd4:	ff4a8fa3          	sb	s4,-1(s5)

ee006fd8 <.LBE1291>:
  while (value);
ee006fd8:	cfb9                	beqz	a5,ee007036 <.L3187>

ee006fda <.LBB1292>:
      char c = '0' + (value % 10);
ee006fda:	03c7ea33          	rem	s4,a5,t3
ee006fde:	84ba                	mv	s1,a4
      buffer[charCount++] = c;
ee006fe0:	00c10a93          	addi	s5,sp,12

ee006fe4 <.LVL2719>:
ee006fe4:	00590713          	addi	a4,s2,5

ee006fe8 <.LVL2720>:
ee006fe8:	9aba                	add	s5,s5,a4

ee006fea <.LVL2721>:
      value = value / 10;
ee006fea:	03c7c7b3          	div	a5,a5,t3

ee006fee <.LVL2722>:
      char c = '0' + (value % 10);
ee006fee:	030a0a13          	addi	s4,s4,48
      buffer[charCount++] = c;
ee006ff2:	ff4a8fa3          	sb	s4,-1(s5)

ee006ff6 <.LBE1292>:
  while (value);
ee006ff6:	c3a1                	beqz	a5,ee007036 <.L3187>

ee006ff8 <.LBB1293>:
      char c = '0' + (value % 10);
ee006ff8:	03c7ea33          	rem	s4,a5,t3
ee006ffc:	84ba                	mv	s1,a4
      buffer[charCount++] = c;
ee006ffe:	00c10a93          	addi	s5,sp,12

ee007002 <.LVL2723>:
ee007002:	00690713          	addi	a4,s2,6

ee007006 <.LVL2724>:
ee007006:	9aba                	add	s5,s5,a4

ee007008 <.LVL2725>:
      value = value / 10;
ee007008:	03c7c7b3          	div	a5,a5,t3

ee00700c <.LVL2726>:
      char c = '0' + (value % 10);
ee00700c:	030a0a13          	addi	s4,s4,48
      buffer[charCount++] = c;
ee007010:	ff4a8fa3          	sb	s4,-1(s5)

ee007014 <.LBE1293>:
  while (value);
ee007014:	c38d                	beqz	a5,ee007036 <.L3187>

ee007016 <.LBB1294>:
      char c = '0' + (value % 10);
ee007016:	03c7ea33          	rem	s4,a5,t3
ee00701a:	84ba                	mv	s1,a4
      buffer[charCount++] = c;
ee00701c:	00790713          	addi	a4,s2,7

ee007020 <.LVL2728>:
ee007020:	00c10913          	addi	s2,sp,12

ee007024 <.LVL2729>:
ee007024:	00e90ab3          	add	s5,s2,a4
      value = value / 10;
ee007028:	03c7c7b3          	div	a5,a5,t3

ee00702c <.LVL2730>:
      char c = '0' + (value % 10);
ee00702c:	030a0a13          	addi	s4,s4,48
      buffer[charCount++] = c;
ee007030:	ff4a8fa3          	sb	s4,-1(s5)

ee007034 <.LBE1294>:
  while (value);
ee007034:	fb81                	bnez	a5,ee006f44 <.L2955>

ee007036 <.L3187>:
  char* p = buffer + charCount - 1;
ee007036:	00c10913          	addi	s2,sp,12
ee00703a:	009907b3          	add	a5,s2,s1

ee00703e <.LBB1295>:
  for (unsigned i = 0; i < charCount; ++i)
ee00703e:	41e78ab3          	sub	s5,a5,t5
ee007042:	007af913          	andi	s2,s5,7
ee007046:	06090963          	beqz	s2,ee0070b8 <.L2956>
ee00704a:	4a05                	li	s4,1
ee00704c:	05490f63          	beq	s2,s4,ee0070aa <.L3121>
ee007050:	4a89                	li	s5,2
ee007052:	05590763          	beq	s2,s5,ee0070a0 <.L3122>
ee007056:	4a0d                	li	s4,3
ee007058:	03490f63          	beq	s2,s4,ee007096 <.L3123>
ee00705c:	4a91                	li	s5,4
ee00705e:	03590763          	beq	s2,s5,ee00708c <.L3124>
ee007062:	4a15                	li	s4,5
ee007064:	01490f63          	beq	s2,s4,ee007082 <.L3125>
ee007068:	4a99                	li	s5,6
ee00706a:	01590763          	beq	s2,s5,ee007078 <.L3126>

ee00706e <.LVL2733>:
    whisperPutc(*p--);
ee00706e:	0007c903          	lbu	s2,0(a5)
ee007072:	17fd                	addi	a5,a5,-1

ee007074 <.LBB1296>:
  *(volatile char*)(STDOUT) = c;
ee007074:	01280023          	sb	s2,0(a6)

ee007078 <.L3126>:
    whisperPutc(*p--);
ee007078:	0007ca03          	lbu	s4,0(a5)
ee00707c:	17fd                	addi	a5,a5,-1

ee00707e <.LBB1313>:
  *(volatile char*)(STDOUT) = c;
ee00707e:	01480023          	sb	s4,0(a6)

ee007082 <.L3125>:
    whisperPutc(*p--);
ee007082:	0007ca83          	lbu	s5,0(a5)
ee007086:	17fd                	addi	a5,a5,-1

ee007088 <.LBB1314>:
  *(volatile char*)(STDOUT) = c;
ee007088:	01580023          	sb	s5,0(a6)

ee00708c <.L3124>:
    whisperPutc(*p--);
ee00708c:	0007c903          	lbu	s2,0(a5)
ee007090:	17fd                	addi	a5,a5,-1

ee007092 <.LBB1315>:
  *(volatile char*)(STDOUT) = c;
ee007092:	01280023          	sb	s2,0(a6)

ee007096 <.L3123>:
    whisperPutc(*p--);
ee007096:	0007ca03          	lbu	s4,0(a5)
ee00709a:	17fd                	addi	a5,a5,-1

ee00709c <.LBB1316>:
  *(volatile char*)(STDOUT) = c;
ee00709c:	01480023          	sb	s4,0(a6)

ee0070a0 <.L3122>:
    whisperPutc(*p--);
ee0070a0:	0007ca83          	lbu	s5,0(a5)
ee0070a4:	17fd                	addi	a5,a5,-1

ee0070a6 <.LBB1317>:
  *(volatile char*)(STDOUT) = c;
ee0070a6:	01580023          	sb	s5,0(a6)

ee0070aa <.L3121>:
    whisperPutc(*p--);
ee0070aa:	0007c903          	lbu	s2,0(a5)
ee0070ae:	17fd                	addi	a5,a5,-1

ee0070b0 <.LBB1318>:
  *(volatile char*)(STDOUT) = c;
ee0070b0:	01280023          	sb	s2,0(a6)

ee0070b4 <.LBE1318>:
  for (unsigned i = 0; i < charCount; ++i)
ee0070b4:	05e78563          	beq	a5,t5,ee0070fe <.L3186>

ee0070b8 <.L2956>:
    whisperPutc(*p--);
ee0070b8:	0007ca03          	lbu	s4,0(a5)

ee0070bc <.LBB1319>:
ee0070bc:	17e1                	addi	a5,a5,-8

ee0070be <.LBB1320>:
  *(volatile char*)(STDOUT) = c;
ee0070be:	01480023          	sb	s4,0(a6)

ee0070c2 <.LBE1320>:
    whisperPutc(*p--);
ee0070c2:	0077ca83          	lbu	s5,7(a5)

ee0070c6 <.LBB1321>:
  *(volatile char*)(STDOUT) = c;
ee0070c6:	01580023          	sb	s5,0(a6)

ee0070ca <.LBE1321>:
    whisperPutc(*p--);
ee0070ca:	0067c903          	lbu	s2,6(a5)

ee0070ce <.LBB1322>:
  *(volatile char*)(STDOUT) = c;
ee0070ce:	01280023          	sb	s2,0(a6)

ee0070d2 <.LBE1322>:
    whisperPutc(*p--);
ee0070d2:	0057ca03          	lbu	s4,5(a5)

ee0070d6 <.LBB1323>:
  *(volatile char*)(STDOUT) = c;
ee0070d6:	01480023          	sb	s4,0(a6)

ee0070da <.LBE1323>:
    whisperPutc(*p--);
ee0070da:	0047ca83          	lbu	s5,4(a5)

ee0070de <.LBB1324>:
  *(volatile char*)(STDOUT) = c;
ee0070de:	01580023          	sb	s5,0(a6)

ee0070e2 <.LBE1324>:
    whisperPutc(*p--);
ee0070e2:	0037c903          	lbu	s2,3(a5)

ee0070e6 <.LBB1325>:
  *(volatile char*)(STDOUT) = c;
ee0070e6:	01280023          	sb	s2,0(a6)

ee0070ea <.LBE1325>:
    whisperPutc(*p--);
ee0070ea:	0027ca03          	lbu	s4,2(a5)

ee0070ee <.LBB1326>:
  *(volatile char*)(STDOUT) = c;
ee0070ee:	01480023          	sb	s4,0(a6)

ee0070f2 <.LBE1326>:
    whisperPutc(*p--);
ee0070f2:	0017ca83          	lbu	s5,1(a5)

ee0070f6 <.LBB1327>:
  *(volatile char*)(STDOUT) = c;
ee0070f6:	01580023          	sb	s5,0(a6)

ee0070fa <.LBE1327>:
  for (unsigned i = 0; i < charCount; ++i)
ee0070fa:	fbe79fe3          	bne	a5,t5,ee0070b8 <.L2956>

ee0070fe <.L3186>:
  if (neg)
ee0070fe:	e209dae3          	bgez	s3,ee006f32 <.L3181>
    charCount++;
ee007102:	00248713          	addi	a4,s1,2

ee007106 <.LBE1343>:
          count += whisperPrintInt(va_arg(ap, int), 16);
ee007106:	953a                	add	a0,a0,a4
          break;
ee007108:	be41                	j	ee006c98 <.L2935>

ee00710a <.L2946>:
          count += whisperPuts(va_arg(ap, char*));
ee00710a:	419c                	lw	a5,0(a1)
ee00710c:	0591                	addi	a1,a1,4

ee00710e <.LBB1344>:
  while (*s)
ee00710e:	0007c483          	lbu	s1,0(a5)
ee007112:	ccb9                	beqz	s1,ee007170 <.L2965>

ee007114 <.L2964>:
  *(volatile char*)(STDOUT) = c;
ee007114:	00980023          	sb	s1,0(a6)

ee007118 <.LBE1235>:
  while (*s)
ee007118:	0017c983          	lbu	s3,1(a5)
ee00711c:	04098a63          	beqz	s3,ee007170 <.L2965>

ee007120 <.LBB1236>:
  *(volatile char*)(STDOUT) = c;
ee007120:	01380023          	sb	s3,0(a6)

ee007124 <.LBE1236>:
  while (*s)
ee007124:	0027c483          	lbu	s1,2(a5)
ee007128:	c4a1                	beqz	s1,ee007170 <.L2965>

ee00712a <.LBB1237>:
  *(volatile char*)(STDOUT) = c;
ee00712a:	00980023          	sb	s1,0(a6)

ee00712e <.LBE1237>:
  while (*s)
ee00712e:	0037c703          	lbu	a4,3(a5)
ee007132:	cf1d                	beqz	a4,ee007170 <.L2965>

ee007134 <.LBB1238>:
  *(volatile char*)(STDOUT) = c;
ee007134:	00e80023          	sb	a4,0(a6)

ee007138 <.LBE1238>:
  while (*s)
ee007138:	0047c903          	lbu	s2,4(a5)
ee00713c:	02090a63          	beqz	s2,ee007170 <.L2965>

ee007140 <.LBB1239>:
  *(volatile char*)(STDOUT) = c;
ee007140:	01280023          	sb	s2,0(a6)

ee007144 <.LBE1239>:
  while (*s)
ee007144:	0057ca03          	lbu	s4,5(a5)
ee007148:	020a0463          	beqz	s4,ee007170 <.L2965>

ee00714c <.LBB1240>:
  *(volatile char*)(STDOUT) = c;
ee00714c:	01480023          	sb	s4,0(a6)

ee007150 <.LBE1240>:
  while (*s)
ee007150:	0067ca83          	lbu	s5,6(a5)
ee007154:	000a8e63          	beqz	s5,ee007170 <.L2965>

ee007158 <.LBB1241>:
  *(volatile char*)(STDOUT) = c;
ee007158:	01580023          	sb	s5,0(a6)

ee00715c <.LBE1241>:
  while (*s)
ee00715c:	0077c983          	lbu	s3,7(a5)
ee007160:	00098863          	beqz	s3,ee007170 <.L2965>
    whisperPutc(*s++);
ee007164:	07a1                	addi	a5,a5,8

ee007166 <.LBB1242>:
  *(volatile char*)(STDOUT) = c;
ee007166:	01380023          	sb	s3,0(a6)

ee00716a <.LBE1242>:
  while (*s)
ee00716a:	0007c483          	lbu	s1,0(a5)
ee00716e:	f0dd                	bnez	s1,ee007114 <.L2964>

ee007170 <.L2965>:
          count += whisperPuts(va_arg(ap, char*));
ee007170:	0505                	addi	a0,a0,1
          break;
ee007172:	b61d                	j	ee006c98 <.L2935>

ee007174 <.L2948>:
          count += whisperPrintDecimal(va_arg(ap, int));
ee007174:	0005a983          	lw	s3,0(a1)
ee007178:	0591                	addi	a1,a1,4

ee00717a <.LBB1345>:
  if (neg)
ee00717a:	87ce                	mv	a5,s3
ee00717c:	3a09c563          	bltz	s3,ee007526 <.L3201>

ee007180 <.L2950>:
ee007180:	4701                	li	a4,0

ee007182 <.L2951>:
      char c = '0' + (value % 10);
ee007182:	03c7ea33          	rem	s4,a5,t3
ee007186:	84ba                	mv	s1,a4
      buffer[charCount++] = c;
ee007188:	00c10a93          	addi	s5,sp,12
ee00718c:	0705                	addi	a4,a4,1

ee00718e <.LVL2766>:
ee00718e:	9aba                	add	s5,s5,a4
ee007190:	893a                	mv	s2,a4
      value = value / 10;
ee007192:	03c7c7b3          	div	a5,a5,t3

ee007196 <.LVL2767>:
      char c = '0' + (value % 10);
ee007196:	030a0a13          	addi	s4,s4,48

ee00719a <.LVL2768>:
      buffer[charCount++] = c;
ee00719a:	ff4a8fa3          	sb	s4,-1(s5)

ee00719e <.LBE1347>:
  while (value);
ee00719e:	cbf1                	beqz	a5,ee007272 <.L3183>

ee0071a0 <.LBB1348>:
      char c = '0' + (value % 10);
ee0071a0:	03c7ea33          	rem	s4,a5,t3

ee0071a4 <.LVL2769>:
ee0071a4:	84ba                	mv	s1,a4
      buffer[charCount++] = c;
ee0071a6:	00c10a93          	addi	s5,sp,12

ee0071aa <.LVL2770>:
ee0071aa:	0705                	addi	a4,a4,1

ee0071ac <.LVL2771>:
ee0071ac:	9aba                	add	s5,s5,a4

ee0071ae <.LVL2772>:
      value = value / 10;
ee0071ae:	03c7c7b3          	div	a5,a5,t3

ee0071b2 <.LVL2773>:
      char c = '0' + (value % 10);
ee0071b2:	030a0a13          	addi	s4,s4,48
      buffer[charCount++] = c;
ee0071b6:	ff4a8fa3          	sb	s4,-1(s5)

ee0071ba <.LBE1348>:
  while (value);
ee0071ba:	cfc5                	beqz	a5,ee007272 <.L3183>

ee0071bc <.LBB1349>:
      char c = '0' + (value % 10);
ee0071bc:	03c7ea33          	rem	s4,a5,t3
ee0071c0:	84ba                	mv	s1,a4

ee0071c2 <.LVL2774>:
      buffer[charCount++] = c;
ee0071c2:	00c10a93          	addi	s5,sp,12

ee0071c6 <.LVL2775>:
ee0071c6:	00290713          	addi	a4,s2,2

ee0071ca <.LVL2776>:
ee0071ca:	9aba                	add	s5,s5,a4

ee0071cc <.LVL2777>:
      value = value / 10;
ee0071cc:	03c7c7b3          	div	a5,a5,t3

ee0071d0 <.LVL2778>:
      char c = '0' + (value % 10);
ee0071d0:	030a0a13          	addi	s4,s4,48
      buffer[charCount++] = c;
ee0071d4:	ff4a8fa3          	sb	s4,-1(s5)

ee0071d8 <.LBE1349>:
  while (value);
ee0071d8:	cfc9                	beqz	a5,ee007272 <.L3183>

ee0071da <.LBB1350>:
      char c = '0' + (value % 10);
ee0071da:	03c7ea33          	rem	s4,a5,t3
ee0071de:	84ba                	mv	s1,a4
      buffer[charCount++] = c;
ee0071e0:	00c10a93          	addi	s5,sp,12

ee0071e4 <.LVL2779>:
ee0071e4:	00390713          	addi	a4,s2,3

ee0071e8 <.LVL2780>:
ee0071e8:	9aba                	add	s5,s5,a4

ee0071ea <.LVL2781>:
      value = value / 10;
ee0071ea:	03c7c7b3          	div	a5,a5,t3

ee0071ee <.LVL2782>:
      char c = '0' + (value % 10);
ee0071ee:	030a0a13          	addi	s4,s4,48
      buffer[charCount++] = c;
ee0071f2:	ff4a8fa3          	sb	s4,-1(s5)

ee0071f6 <.LBE1350>:
  while (value);
ee0071f6:	cfb5                	beqz	a5,ee007272 <.L3183>

ee0071f8 <.LBB1351>:
      char c = '0' + (value % 10);
ee0071f8:	03c7ea33          	rem	s4,a5,t3
ee0071fc:	84ba                	mv	s1,a4
      buffer[charCount++] = c;
ee0071fe:	00c10a93          	addi	s5,sp,12

ee007202 <.LVL2783>:
ee007202:	00490713          	addi	a4,s2,4

ee007206 <.LVL2784>:
ee007206:	9aba                	add	s5,s5,a4

ee007208 <.LVL2785>:
      value = value / 10;
ee007208:	03c7c7b3          	div	a5,a5,t3

ee00720c <.LVL2786>:
      char c = '0' + (value % 10);
ee00720c:	030a0a13          	addi	s4,s4,48
      buffer[charCount++] = c;
ee007210:	ff4a8fa3          	sb	s4,-1(s5)

ee007214 <.LBE1351>:
  while (value);
ee007214:	cfb9                	beqz	a5,ee007272 <.L3183>

ee007216 <.LBB1352>:
      char c = '0' + (value % 10);
ee007216:	03c7ea33          	rem	s4,a5,t3
ee00721a:	84ba                	mv	s1,a4
      buffer[charCount++] = c;
ee00721c:	00c10a93          	addi	s5,sp,12

ee007220 <.LVL2787>:
ee007220:	00590713          	addi	a4,s2,5

ee007224 <.LVL2788>:
ee007224:	9aba                	add	s5,s5,a4

ee007226 <.LVL2789>:
      value = value / 10;
ee007226:	03c7c7b3          	div	a5,a5,t3

ee00722a <.LVL2790>:
      char c = '0' + (value % 10);
ee00722a:	030a0a13          	addi	s4,s4,48
      buffer[charCount++] = c;
ee00722e:	ff4a8fa3          	sb	s4,-1(s5)

ee007232 <.LBE1352>:
  while (value);
ee007232:	c3a1                	beqz	a5,ee007272 <.L3183>

ee007234 <.LBB1353>:
      char c = '0' + (value % 10);
ee007234:	03c7ea33          	rem	s4,a5,t3
ee007238:	84ba                	mv	s1,a4
      buffer[charCount++] = c;
ee00723a:	00c10a93          	addi	s5,sp,12

ee00723e <.LVL2791>:
ee00723e:	00690713          	addi	a4,s2,6

ee007242 <.LVL2792>:
ee007242:	9aba                	add	s5,s5,a4

ee007244 <.LVL2793>:
      value = value / 10;
ee007244:	03c7c7b3          	div	a5,a5,t3

ee007248 <.LVL2794>:
      char c = '0' + (value % 10);
ee007248:	030a0a13          	addi	s4,s4,48
      buffer[charCount++] = c;
ee00724c:	ff4a8fa3          	sb	s4,-1(s5)

ee007250 <.LBE1353>:
  while (value);
ee007250:	c38d                	beqz	a5,ee007272 <.L3183>

ee007252 <.LBB1354>:
      char c = '0' + (value % 10);
ee007252:	03c7ea33          	rem	s4,a5,t3
ee007256:	84ba                	mv	s1,a4
      buffer[charCount++] = c;
ee007258:	00790713          	addi	a4,s2,7

ee00725c <.LVL2796>:
ee00725c:	00c10913          	addi	s2,sp,12

ee007260 <.LVL2797>:
ee007260:	00e90ab3          	add	s5,s2,a4
      value = value / 10;
ee007264:	03c7c7b3          	div	a5,a5,t3

ee007268 <.LVL2798>:
      char c = '0' + (value % 10);
ee007268:	030a0a13          	addi	s4,s4,48
      buffer[charCount++] = c;
ee00726c:	ff4a8fa3          	sb	s4,-1(s5)

ee007270 <.LBE1354>:
  while (value);
ee007270:	fb89                	bnez	a5,ee007182 <.L2951>

ee007272 <.L3183>:
  char* p = buffer + charCount - 1;
ee007272:	00c10913          	addi	s2,sp,12
ee007276:	009907b3          	add	a5,s2,s1

ee00727a <.LBB1355>:
  for (unsigned i = 0; i < charCount; ++i)
ee00727a:	41e78ab3          	sub	s5,a5,t5
ee00727e:	007af913          	andi	s2,s5,7
ee007282:	06090963          	beqz	s2,ee0072f4 <.L2952>
ee007286:	4a05                	li	s4,1
ee007288:	05490f63          	beq	s2,s4,ee0072e6 <.L3114>
ee00728c:	4a89                	li	s5,2
ee00728e:	05590763          	beq	s2,s5,ee0072dc <.L3115>
ee007292:	4a0d                	li	s4,3
ee007294:	03490f63          	beq	s2,s4,ee0072d2 <.L3116>
ee007298:	4a91                	li	s5,4
ee00729a:	03590763          	beq	s2,s5,ee0072c8 <.L3117>
ee00729e:	4a15                	li	s4,5
ee0072a0:	01490f63          	beq	s2,s4,ee0072be <.L3118>
ee0072a4:	4a99                	li	s5,6
ee0072a6:	01590763          	beq	s2,s5,ee0072b4 <.L3119>

ee0072aa <.LVL2801>:
    whisperPutc(*p--);
ee0072aa:	0007c903          	lbu	s2,0(a5)
ee0072ae:	17fd                	addi	a5,a5,-1

ee0072b0 <.LBB1356>:
  *(volatile char*)(STDOUT) = c;
ee0072b0:	01280023          	sb	s2,0(a6)

ee0072b4 <.L3119>:
    whisperPutc(*p--);
ee0072b4:	0007ca03          	lbu	s4,0(a5)
ee0072b8:	17fd                	addi	a5,a5,-1

ee0072ba <.LBB1373>:
  *(volatile char*)(STDOUT) = c;
ee0072ba:	01480023          	sb	s4,0(a6)

ee0072be <.L3118>:
    whisperPutc(*p--);
ee0072be:	0007ca83          	lbu	s5,0(a5)
ee0072c2:	17fd                	addi	a5,a5,-1

ee0072c4 <.LBB1374>:
  *(volatile char*)(STDOUT) = c;
ee0072c4:	01580023          	sb	s5,0(a6)

ee0072c8 <.L3117>:
    whisperPutc(*p--);
ee0072c8:	0007c903          	lbu	s2,0(a5)
ee0072cc:	17fd                	addi	a5,a5,-1

ee0072ce <.LBB1375>:
  *(volatile char*)(STDOUT) = c;
ee0072ce:	01280023          	sb	s2,0(a6)

ee0072d2 <.L3116>:
    whisperPutc(*p--);
ee0072d2:	0007ca03          	lbu	s4,0(a5)
ee0072d6:	17fd                	addi	a5,a5,-1

ee0072d8 <.LBB1376>:
  *(volatile char*)(STDOUT) = c;
ee0072d8:	01480023          	sb	s4,0(a6)

ee0072dc <.L3115>:
    whisperPutc(*p--);
ee0072dc:	0007ca83          	lbu	s5,0(a5)
ee0072e0:	17fd                	addi	a5,a5,-1

ee0072e2 <.LBB1377>:
  *(volatile char*)(STDOUT) = c;
ee0072e2:	01580023          	sb	s5,0(a6)

ee0072e6 <.L3114>:
    whisperPutc(*p--);
ee0072e6:	0007c903          	lbu	s2,0(a5)
ee0072ea:	17fd                	addi	a5,a5,-1

ee0072ec <.LBB1378>:
  *(volatile char*)(STDOUT) = c;
ee0072ec:	01280023          	sb	s2,0(a6)

ee0072f0 <.LBE1378>:
  for (unsigned i = 0; i < charCount; ++i)
ee0072f0:	e1e787e3          	beq	a5,t5,ee0070fe <.L3186>

ee0072f4 <.L2952>:
    whisperPutc(*p--);
ee0072f4:	0007ca03          	lbu	s4,0(a5)

ee0072f8 <.LBB1379>:
ee0072f8:	17e1                	addi	a5,a5,-8

ee0072fa <.LBB1380>:
  *(volatile char*)(STDOUT) = c;
ee0072fa:	01480023          	sb	s4,0(a6)

ee0072fe <.LBE1380>:
    whisperPutc(*p--);
ee0072fe:	0077ca83          	lbu	s5,7(a5)

ee007302 <.LBB1381>:
  *(volatile char*)(STDOUT) = c;
ee007302:	01580023          	sb	s5,0(a6)

ee007306 <.LBE1381>:
    whisperPutc(*p--);
ee007306:	0067c903          	lbu	s2,6(a5)

ee00730a <.LBB1382>:
  *(volatile char*)(STDOUT) = c;
ee00730a:	01280023          	sb	s2,0(a6)

ee00730e <.LBE1382>:
    whisperPutc(*p--);
ee00730e:	0057ca03          	lbu	s4,5(a5)

ee007312 <.LBB1383>:
  *(volatile char*)(STDOUT) = c;
ee007312:	01480023          	sb	s4,0(a6)

ee007316 <.LBE1383>:
    whisperPutc(*p--);
ee007316:	0047ca83          	lbu	s5,4(a5)

ee00731a <.LBB1384>:
  *(volatile char*)(STDOUT) = c;
ee00731a:	01580023          	sb	s5,0(a6)

ee00731e <.LBE1384>:
    whisperPutc(*p--);
ee00731e:	0037c903          	lbu	s2,3(a5)

ee007322 <.LBB1385>:
  *(volatile char*)(STDOUT) = c;
ee007322:	01280023          	sb	s2,0(a6)

ee007326 <.LBE1385>:
    whisperPutc(*p--);
ee007326:	0027ca03          	lbu	s4,2(a5)

ee00732a <.LBB1386>:
  *(volatile char*)(STDOUT) = c;
ee00732a:	01480023          	sb	s4,0(a6)

ee00732e <.LBE1386>:
    whisperPutc(*p--);
ee00732e:	0017ca83          	lbu	s5,1(a5)

ee007332 <.LBB1387>:
  *(volatile char*)(STDOUT) = c;
ee007332:	01580023          	sb	s5,0(a6)

ee007336 <.LBE1387>:
  for (unsigned i = 0; i < charCount; ++i)
ee007336:	fbe79fe3          	bne	a5,t5,ee0072f4 <.L2952>
ee00733a:	b3d1                	j	ee0070fe <.L3186>

ee00733c <.L2947>:
  unsigned uu = value;
ee00733c:	4184                	lw	s1,0(a1)
  int charCount = 0;
ee00733e:	4781                	li	a5,0

ee007340 <.LBE1391>:
          count += whisperPrintInt(va_arg(ap, int), 8);
ee007340:	0591                	addi	a1,a1,4

ee007342 <.L2962>:
          char c = '0' + (uu & 7);
ee007342:	0074f913          	andi	s2,s1,7
ee007346:	873e                	mv	a4,a5
          buffer[charCount++] = c;
ee007348:	00c10a13          	addi	s4,sp,12
ee00734c:	0785                	addi	a5,a5,1

ee00734e <.LVL2825>:
ee00734e:	00fa0ab3          	add	s5,s4,a5
          char c = '0' + (uu & 7);
ee007352:	03090993          	addi	s3,s2,48
          buffer[charCount++] = c;
ee007356:	ff3a8fa3          	sb	s3,-1(s5)
          uu >>= 3;
ee00735a:	0034d913          	srli	s2,s1,0x3
          buffer[charCount++] = c;
ee00735e:	8abe                	mv	s5,a5

ee007360 <.LBE1393>:
      while (uu);
ee007360:	0e090563          	beqz	s2,ee00744a <.L3185>

ee007364 <.LBB1394>:
          char c = '0' + (uu & 7);
ee007364:	00797993          	andi	s3,s2,7
ee007368:	873e                	mv	a4,a5
          buffer[charCount++] = c;
ee00736a:	00c10a13          	addi	s4,sp,12
ee00736e:	0785                	addi	a5,a5,1
          char c = '0' + (uu & 7);
ee007370:	03098913          	addi	s2,s3,48
          buffer[charCount++] = c;
ee007374:	9a3e                	add	s4,s4,a5
ee007376:	ff2a0fa3          	sb	s2,-1(s4)
          uu >>= 3;
ee00737a:	0064d993          	srli	s3,s1,0x6

ee00737e <.LBE1394>:
      while (uu);
ee00737e:	0c098663          	beqz	s3,ee00744a <.L3185>

ee007382 <.LBB1395>:
          char c = '0' + (uu & 7);
ee007382:	0079f913          	andi	s2,s3,7
          buffer[charCount++] = c;
ee007386:	00c10a13          	addi	s4,sp,12
ee00738a:	873e                	mv	a4,a5
ee00738c:	002a8793          	addi	a5,s5,2
ee007390:	00fa09b3          	add	s3,s4,a5
          char c = '0' + (uu & 7);
ee007394:	03090913          	addi	s2,s2,48
          buffer[charCount++] = c;
ee007398:	ff298fa3          	sb	s2,-1(s3)
          uu >>= 3;
ee00739c:	0094da13          	srli	s4,s1,0x9

ee0073a0 <.LBE1395>:
      while (uu);
ee0073a0:	0a0a0563          	beqz	s4,ee00744a <.L3185>

ee0073a4 <.LBB1396>:
          char c = '0' + (uu & 7);
ee0073a4:	007a7993          	andi	s3,s4,7
          buffer[charCount++] = c;
ee0073a8:	00c10913          	addi	s2,sp,12
ee0073ac:	873e                	mv	a4,a5
ee0073ae:	003a8793          	addi	a5,s5,3
ee0073b2:	00f90a33          	add	s4,s2,a5
          char c = '0' + (uu & 7);
ee0073b6:	03098993          	addi	s3,s3,48
          buffer[charCount++] = c;
ee0073ba:	ff3a0fa3          	sb	s3,-1(s4)
          uu >>= 3;
ee0073be:	00c4d913          	srli	s2,s1,0xc

ee0073c2 <.LBE1396>:
      while (uu);
ee0073c2:	08090463          	beqz	s2,ee00744a <.L3185>

ee0073c6 <.LBB1397>:
          char c = '0' + (uu & 7);
ee0073c6:	00797993          	andi	s3,s2,7
ee0073ca:	873e                	mv	a4,a5
          buffer[charCount++] = c;
ee0073cc:	00c10a13          	addi	s4,sp,12
ee0073d0:	004a8793          	addi	a5,s5,4
          char c = '0' + (uu & 7);
ee0073d4:	03098913          	addi	s2,s3,48
          buffer[charCount++] = c;
ee0073d8:	9a3e                	add	s4,s4,a5
ee0073da:	ff2a0fa3          	sb	s2,-1(s4)
          uu >>= 3;
ee0073de:	00f4d993          	srli	s3,s1,0xf

ee0073e2 <.LBE1397>:
      while (uu);
ee0073e2:	06098463          	beqz	s3,ee00744a <.L3185>

ee0073e6 <.LBB1398>:
          char c = '0' + (uu & 7);
ee0073e6:	0079f913          	andi	s2,s3,7
          buffer[charCount++] = c;
ee0073ea:	00c10a13          	addi	s4,sp,12
ee0073ee:	873e                	mv	a4,a5
ee0073f0:	005a8793          	addi	a5,s5,5
ee0073f4:	00fa09b3          	add	s3,s4,a5
          char c = '0' + (uu & 7);
ee0073f8:	03090913          	addi	s2,s2,48
          buffer[charCount++] = c;
ee0073fc:	ff298fa3          	sb	s2,-1(s3)
          uu >>= 3;
ee007400:	0124da13          	srli	s4,s1,0x12

ee007404 <.LBE1398>:
      while (uu);
ee007404:	040a0363          	beqz	s4,ee00744a <.L3185>

ee007408 <.LBB1399>:
          char c = '0' + (uu & 7);
ee007408:	007a7993          	andi	s3,s4,7
          buffer[charCount++] = c;
ee00740c:	00c10913          	addi	s2,sp,12
ee007410:	873e                	mv	a4,a5
ee007412:	006a8793          	addi	a5,s5,6
ee007416:	00f90a33          	add	s4,s2,a5
          char c = '0' + (uu & 7);
ee00741a:	03098993          	addi	s3,s3,48
          buffer[charCount++] = c;
ee00741e:	ff3a0fa3          	sb	s3,-1(s4)
          uu >>= 3;
ee007422:	0154d913          	srli	s2,s1,0x15

ee007426 <.LBE1399>:
      while (uu);
ee007426:	02090263          	beqz	s2,ee00744a <.L3185>

ee00742a <.LBB1400>:
          buffer[charCount++] = c;
ee00742a:	873e                	mv	a4,a5
          char c = '0' + (uu & 7);
ee00742c:	00797a13          	andi	s4,s2,7
          buffer[charCount++] = c;
ee007430:	007a8793          	addi	a5,s5,7
ee007434:	00c10a93          	addi	s5,sp,12
ee007438:	00fa89b3          	add	s3,s5,a5
          char c = '0' + (uu & 7);
ee00743c:	030a0913          	addi	s2,s4,48
          buffer[charCount++] = c;
ee007440:	ff298fa3          	sb	s2,-1(s3)

ee007444 <.LVL2834>:
          uu >>= 3;
ee007444:	80e1                	srli	s1,s1,0x18

ee007446 <.LBE1400>:
      while (uu);
ee007446:	ee049ee3          	bnez	s1,ee007342 <.L2962>

ee00744a <.L3185>:
  char* p = buffer + charCount - 1;
ee00744a:	00c10a13          	addi	s4,sp,12
ee00744e:	9752                	add	a4,a4,s4

ee007450 <.LBB1401>:
  for (unsigned i = 0; i < charCount; ++i)
ee007450:	41e70ab3          	sub	s5,a4,t5
ee007454:	007af993          	andi	s3,s5,7
ee007458:	06098963          	beqz	s3,ee0074ca <.L2963>
ee00745c:	4905                	li	s2,1
ee00745e:	05298f63          	beq	s3,s2,ee0074bc <.L3134>
ee007462:	4489                	li	s1,2
ee007464:	04998763          	beq	s3,s1,ee0074b2 <.L3135>
ee007468:	4a0d                	li	s4,3
ee00746a:	03498f63          	beq	s3,s4,ee0074a8 <.L3136>
ee00746e:	4a91                	li	s5,4
ee007470:	03598763          	beq	s3,s5,ee00749e <.L3137>
ee007474:	4915                	li	s2,5
ee007476:	01298f63          	beq	s3,s2,ee007494 <.L3138>
ee00747a:	4499                	li	s1,6
ee00747c:	00998763          	beq	s3,s1,ee00748a <.L3139>

ee007480 <.LVL2837>:
    whisperPutc(*p--);
ee007480:	00074983          	lbu	s3,0(a4)
ee007484:	177d                	addi	a4,a4,-1

ee007486 <.LBB1402>:
  *(volatile char*)(STDOUT) = c;
ee007486:	01380023          	sb	s3,0(a6)

ee00748a <.L3139>:
    whisperPutc(*p--);
ee00748a:	00074a03          	lbu	s4,0(a4)
ee00748e:	177d                	addi	a4,a4,-1

ee007490 <.LBB1419>:
  *(volatile char*)(STDOUT) = c;
ee007490:	01480023          	sb	s4,0(a6)

ee007494 <.L3138>:
    whisperPutc(*p--);
ee007494:	00074a83          	lbu	s5,0(a4)
ee007498:	177d                	addi	a4,a4,-1

ee00749a <.LBB1420>:
  *(volatile char*)(STDOUT) = c;
ee00749a:	01580023          	sb	s5,0(a6)

ee00749e <.L3137>:
    whisperPutc(*p--);
ee00749e:	00074903          	lbu	s2,0(a4)
ee0074a2:	177d                	addi	a4,a4,-1

ee0074a4 <.LBB1421>:
  *(volatile char*)(STDOUT) = c;
ee0074a4:	01280023          	sb	s2,0(a6)

ee0074a8 <.L3136>:
    whisperPutc(*p--);
ee0074a8:	00074483          	lbu	s1,0(a4)
ee0074ac:	177d                	addi	a4,a4,-1

ee0074ae <.LBB1422>:
  *(volatile char*)(STDOUT) = c;
ee0074ae:	00980023          	sb	s1,0(a6)

ee0074b2 <.L3135>:
    whisperPutc(*p--);
ee0074b2:	00074983          	lbu	s3,0(a4)
ee0074b6:	177d                	addi	a4,a4,-1

ee0074b8 <.LBB1423>:
  *(volatile char*)(STDOUT) = c;
ee0074b8:	01380023          	sb	s3,0(a6)

ee0074bc <.L3134>:
    whisperPutc(*p--);
ee0074bc:	00074a03          	lbu	s4,0(a4)
ee0074c0:	177d                	addi	a4,a4,-1

ee0074c2 <.LBB1424>:
  *(volatile char*)(STDOUT) = c;
ee0074c2:	01480023          	sb	s4,0(a6)

ee0074c6 <.LBE1424>:
  for (unsigned i = 0; i < charCount; ++i)
ee0074c6:	05e70563          	beq	a4,t5,ee007510 <.L3184>

ee0074ca <.L2963>:
    whisperPutc(*p--);
ee0074ca:	00074a83          	lbu	s5,0(a4)

ee0074ce <.LBB1425>:
ee0074ce:	1761                	addi	a4,a4,-8

ee0074d0 <.LBB1426>:
  *(volatile char*)(STDOUT) = c;
ee0074d0:	01580023          	sb	s5,0(a6)

ee0074d4 <.LBE1426>:
    whisperPutc(*p--);
ee0074d4:	00774903          	lbu	s2,7(a4)

ee0074d8 <.LBB1427>:
  *(volatile char*)(STDOUT) = c;
ee0074d8:	01280023          	sb	s2,0(a6)

ee0074dc <.LBE1427>:
    whisperPutc(*p--);
ee0074dc:	00674483          	lbu	s1,6(a4)

ee0074e0 <.LBB1428>:
  *(volatile char*)(STDOUT) = c;
ee0074e0:	00980023          	sb	s1,0(a6)

ee0074e4 <.LBE1428>:
    whisperPutc(*p--);
ee0074e4:	00574983          	lbu	s3,5(a4)

ee0074e8 <.LBB1429>:
  *(volatile char*)(STDOUT) = c;
ee0074e8:	01380023          	sb	s3,0(a6)

ee0074ec <.LBE1429>:
    whisperPutc(*p--);
ee0074ec:	00474a03          	lbu	s4,4(a4)

ee0074f0 <.LBB1430>:
  *(volatile char*)(STDOUT) = c;
ee0074f0:	01480023          	sb	s4,0(a6)

ee0074f4 <.LBE1430>:
    whisperPutc(*p--);
ee0074f4:	00374a83          	lbu	s5,3(a4)

ee0074f8 <.LBB1431>:
  *(volatile char*)(STDOUT) = c;
ee0074f8:	01580023          	sb	s5,0(a6)

ee0074fc <.LBE1431>:
    whisperPutc(*p--);
ee0074fc:	00274903          	lbu	s2,2(a4)

ee007500 <.LBB1432>:
  *(volatile char*)(STDOUT) = c;
ee007500:	01280023          	sb	s2,0(a6)

ee007504 <.LBE1432>:
    whisperPutc(*p--);
ee007504:	00174483          	lbu	s1,1(a4)

ee007508 <.LBB1433>:
  *(volatile char*)(STDOUT) = c;
ee007508:	00980023          	sb	s1,0(a6)

ee00750c <.LBE1433>:
  for (unsigned i = 0; i < charCount; ++i)
ee00750c:	fbe71fe3          	bne	a4,t5,ee0074ca <.L2963>

ee007510 <.L3184>:
          count += whisperPrintInt(va_arg(ap, int), 8);
ee007510:	953e                	add	a0,a0,a5
          break;
ee007512:	f86ff06f          	j	ee006c98 <.L2935>

ee007516 <.L2949>:
          whisperPutc(va_arg(ap, int));
ee007516:	0005c703          	lbu	a4,0(a1)

ee00751a <.LBB1436>:
          ++count;
ee00751a:	0505                	addi	a0,a0,1

ee00751c <.LVL2867>:
          whisperPutc(va_arg(ap, int));
ee00751c:	0591                	addi	a1,a1,4

ee00751e <.LBB1439>:
  *(volatile char*)(STDOUT) = c;
ee00751e:	00e80023          	sb	a4,0(a6)

ee007522 <.LBE1439>:
          break;
ee007522:	f76ff06f          	j	ee006c98 <.L2935>

ee007526 <.L3201>:
      value = -value;
ee007526:	413007b3          	neg	a5,s3

ee00752a <.LBB1388>:
  *(volatile char*)(STDOUT) = c;
ee00752a:	00580023          	sb	t0,0(a6)
  return c;
ee00752e:	b989                	j	ee007180 <.L2950>

ee007530 <.L3200>:
      value = -value;
ee007530:	413007b3          	neg	a5,s3

ee007534 <.LBB1328>:
  *(volatile char*)(STDOUT) = c;
ee007534:	00580023          	sb	t0,0(a6)
  return c;
ee007538:	b429                	j	ee006f42 <.L2954>

ee00753a <.L3198>:
          while (*fp >= '0' && *fp <= '9')
ee00753a:	863a                	mv	a2,a4
ee00753c:	feeff06f          	j	ee006d2a <.L2942>

ee007540 <.L2967>:
  int count = 0;  // Printed character count
ee007540:	4501                	li	a0,0

ee007542 <.LVL2876>:
}
ee007542:	8082                	ret

ee007544 <whisperPrintf>:


int
whisperPrintf(const char* format, ...)
{
ee007544:	7139                	addi	sp,sp,-64
  va_list ap;

  va_start(ap, format);
ee007546:	02410313          	addi	t1,sp,36
{
ee00754a:	d22e                	sw	a1,36(sp)
  int code = whisperPrintfImpl(format, ap);
ee00754c:	859a                	mv	a1,t1
{
ee00754e:	ce06                	sw	ra,28(sp)
ee007550:	d432                	sw	a2,40(sp)
ee007552:	d636                	sw	a3,44(sp)
ee007554:	d83a                	sw	a4,48(sp)
ee007556:	da3e                	sw	a5,52(sp)
ee007558:	dc42                	sw	a6,56(sp)
ee00755a:	de46                	sw	a7,60(sp)
  va_start(ap, format);
ee00755c:	c61a                	sw	t1,12(sp)
  int code = whisperPrintfImpl(format, ap);
ee00755e:	eeaff0ef          	jal	ra,ee006c48 <whisperPrintfImpl>

ee007562 <.LVL2878>:
  va_end(ap);

  return code;
}
ee007562:	40f2                	lw	ra,28(sp)
ee007564:	6121                	addi	sp,sp,64
ee007566:	8082                	ret

ee007568 <printf>:


int
printf(const char* format, ...)
{
ee007568:	7139                	addi	sp,sp,-64
  va_list ap;

  va_start(ap, format);
ee00756a:	02410313          	addi	t1,sp,36
{
ee00756e:	d22e                	sw	a1,36(sp)
  int code = whisperPrintfImpl(format, ap);
ee007570:	859a                	mv	a1,t1
{
ee007572:	ce06                	sw	ra,28(sp)
ee007574:	d432                	sw	a2,40(sp)
ee007576:	d636                	sw	a3,44(sp)
ee007578:	d83a                	sw	a4,48(sp)
ee00757a:	da3e                	sw	a5,52(sp)
ee00757c:	dc42                	sw	a6,56(sp)
ee00757e:	de46                	sw	a7,60(sp)
  va_start(ap, format);
ee007580:	c61a                	sw	t1,12(sp)
  int code = whisperPrintfImpl(format, ap);
ee007582:	ec6ff0ef          	jal	ra,ee006c48 <whisperPrintfImpl>

ee007586 <.LVL3147>:
  va_end(ap);

  return code;
}
ee007586:	40f2                	lw	ra,28(sp)
ee007588:	6121                	addi	sp,sp,64
ee00758a:	8082                	ret

ee00758c <memset>:


void* memset(void* s, int c, size_t n)
{
  asm("mv t0, a0");
ee00758c:	82aa                	mv	t0,a0
  asm("add a2, a2, a0");  // end = s + n
ee00758e:	962a                	add	a2,a2,a0

ee007590 <.memset_loop>:
  asm(".memset_loop: bge a0, a2, .memset_end");
ee007590:	00c55663          	bge	a0,a2,ee00759c <.memset_end>
  asm("sb a1, 0(a0)");
ee007594:	00b50023          	sb	a1,0(a0)
  asm("addi a0, a0, 1");
ee007598:	0505                	addi	a0,a0,1
  asm("j .memset_loop");
ee00759a:	bfdd                	j	ee007590 <.memset_loop>

ee00759c <.memset_end>:
  asm(".memset_end:");
  asm("mv a0, t0");
ee00759c:	8516                	mv	a0,t0
  asm("jr ra");
ee00759e:	8082                	ret

ee0075a0 <.LVL3149>:
}
ee0075a0:	8082                	ret

ee0075a2 <main>:
MAIN_RETURN_TYPE main(void) {
ee0075a2:	7175                	addi	sp,sp,-144

ee0075a4 <.LBB1496>:
ee0075a4:	c706                	sw	ra,140(sp)

ee0075a6 <.LBB1500>:
                                retval=seed1_volatile;
ee0075a6:	f00417b7          	lui	a5,0xf0041

ee0075aa <.LBB1504>:
                                retval=seed2_volatile;
ee0075aa:	f00410b7          	lui	ra,0xf0041

ee0075ae <.LBB1508>:
                                retval=seed3_volatile;
ee0075ae:	f00402b7          	lui	t0,0xf0040

ee0075b2 <.LBB1512>:
                                retval=seed1_volatile;
ee0075b2:	d8c7a603          	lw	a2,-628(a5) # f0040d8c <STACK+0xffff87dc>

ee0075b6 <.LBB1513>:
                                retval=seed2_volatile;
ee0075b6:	d880a583          	lw	a1,-632(ra) # f0040d88 <STACK+0xffff87d8>

ee0075ba <.LBB1514>:
                                retval=seed3_volatile;
ee0075ba:	0f02a303          	lw	t1,240(t0) # f00400f0 <STACK+0xffff7b40>

ee0075be <.LBB1515>:
                                retval=seed4_volatile;
ee0075be:	f0040737          	lui	a4,0xf0040
ee0075c2:	0ec72683          	lw	a3,236(a4) # f00400ec <STACK+0xffff7b3c>

ee0075c6 <.LBB1518>:
                                retval=seed5_volatile;
ee0075c6:	f00413b7          	lui	t2,0xf0041

ee0075ca <.LBE1518>:
MAIN_RETURN_TYPE main(void) {
ee0075ca:	c522                	sw	s0,136(sp)
ee0075cc:	c326                	sw	s1,132(sp)
        results[0].seed1=get_seed(1);
ee0075ce:	01061413          	slli	s0,a2,0x10
        results[0].seed3=get_seed(3);
ee0075d2:	01031493          	slli	s1,t1,0x10

ee0075d6 <.LBB1522>:
                                retval=seed5_volatile;
ee0075d6:	d843a883          	lw	a7,-636(t2) # f0040d84 <STACK+0xffff87d4>

ee0075da <.LBE1522>:
        results[0].seed1=get_seed(1);
ee0075da:	41045613          	srai	a2,s0,0x10
        results[0].seed3=get_seed(3);
ee0075de:	4104d813          	srai	a6,s1,0x10

ee0075e2 <.LBB1523>:
        p->portable_id=1;
ee0075e2:	4505                	li	a0,1

ee0075e4 <.LBE1523>:
MAIN_RETURN_TYPE main(void) {
ee0075e4:	c14a                	sw	s2,128(sp)
ee0075e6:	dece                	sw	s3,124(sp)
ee0075e8:	dcd2                	sw	s4,120(sp)
ee0075ea:	dad6                	sw	s5,116(sp)
ee0075ec:	d8da                	sw	s6,112(sp)
ee0075ee:	d6de                	sw	s7,108(sp)
ee0075f0:	d4e2                	sw	s8,104(sp)
ee0075f2:	d2e6                	sw	s9,100(sp)
ee0075f4:	d0ea                	sw	s10,96(sp)
ee0075f6:	ceee                	sw	s11,92(sp)

ee0075f8 <.LBB1524>:
        p->portable_id=1;
ee0075f8:	04a10723          	sb	a0,78(sp)

ee0075fc <.LBB1525>:
        results[0].seed1=get_seed(1);
ee0075fc:	00c11623          	sh	a2,12(sp)

ee007600 <.LBB1526>:
        results[0].seed2=get_seed(2);
ee007600:	00b11723          	sh	a1,14(sp)

ee007604 <.LBB1527>:
        results[0].seed3=get_seed(3);
ee007604:	01011823          	sh	a6,16(sp)

ee007608 <.LBB1528>:
        results[0].iterations=get_seed_32(4);
ee007608:	d436                	sw	a3,40(sp)

ee00760a <.LBB1529>:
        if (results[0].execs==0) { /* if not supplied, execute all algorithms */
ee00760a:	00089363          	bnez	a7,ee007610 <.L3458>
                results[0].execs=ALL_ALGORITHMS_MASK;
ee00760e:	489d                	li	a7,7

ee007610 <.L3458>:
        if ((results[0].seed1==0) && (results[0].seed2==0) && (results[0].seed3==0)) { /* validation run */
ee007610:	4932                	lw	s2,12(sp)
                results[0].execs=ALL_ALGORITHMS_MASK;
ee007612:	d646                	sw	a7,44(sp)
        if ((results[0].seed1==0) && (results[0].seed2==0) && (results[0].seed3==0)) { /* validation run */
ee007614:	3c091de3          	bnez	s2,ee0081ee <.L3207>
ee007618:	00081763          	bnez	a6,ee007626 <.L3208>
                results[0].seed3=0x66;
ee00761c:	06600c13          	li	s8,102
ee007620:	01811823          	sh	s8,16(sp)
ee007624:	4601                	li	a2,0

ee007626 <.L3208>:
                if ((1<<(ee_u32)i) & results[0].execs)
ee007626:	5832                	lw	a6,44(sp)
                results[i].size=results[i].size/num_algorithms;
ee007628:	7d000f93          	li	t6,2000
        results[0].memblock[0]=(void *)static_memblk;
ee00762c:	f00400b7          	lui	ra,0xf0040
                if ((1<<(ee_u32)i) & results[0].execs)
ee007630:	00287713          	andi	a4,a6,2
ee007634:	00187c93          	andi	s9,a6,1
                        num_algorithms++;
ee007638:	00e03d33          	snez	s10,a4
                if ((1<<(ee_u32)i) & results[0].execs)
ee00763c:	00487d93          	andi	s11,a6,4
                        num_algorithms++;
ee007640:	01ac8e33          	add	t3,s9,s10
ee007644:	01b03eb3          	snez	t4,s11
ee007648:	01de0f33          	add	t5,t3,t4
                results[i].size=results[i].size/num_algorithms;
ee00764c:	03efd533          	divu	a0,t6,t5
        results[0].memblock[0]=(void *)static_memblk;
ee007650:	5a808293          	addi	t0,ra,1448 # f00405a8 <STACK+0xffff7ff8>
ee007654:	ca16                	sw	t0,20(sp)
        results[0].err=0;
ee007656:	04011623          	sh	zero,76(sp)

ee00765a <.LVL2886>:
                if ((1<<(ee_u32)i) & results[0].execs)
ee00765a:	8366                	mv	t1,s9

ee00765c <.LVL2887>:
                results[i].size=results[i].size/num_algorithms;
ee00765c:	d22a                	sw	a0,36(sp)

ee00765e <.LBB1530>:
                if ((1<<(ee_u32)i) & results[0].execs) {
ee00765e:	360c9de3          	bnez	s9,ee0081d8 <.L3460>

ee007662 <.LBB1531>:
ee007662:	360713e3          	bnez	a4,ee0081c8 <.L3461>

ee007666 <.L3212>:
ee007666:	340d98e3          	bnez	s11,ee0081b6 <.L3462>

ee00766a <.L3213>:
                if (results[i].execs & ID_LIST) {
ee00766a:	1a031563          	bnez	t1,ee007814 <.L3463>

ee00766e <.L3214>:
                if (results[i].execs & ID_MATRIX) {
ee00766e:	1a071c63          	bnez	a4,ee007826 <.L3464>

ee007672 <.L3215>:
                if (results[i].execs & ID_STATE) {
ee007672:	00487513          	andi	a0,a6,4
ee007676:	c519                	beqz	a0,ee007684 <.L3216>
                        core_init_state(results[0].size,results[i].seed1,results[i].memblock[3]);
ee007678:	5602                	lw	a2,32(sp)
ee00767a:	00c11583          	lh	a1,12(sp)
ee00767e:	5512                	lw	a0,36(sp)
ee007680:	e13fb0ef          	jal	ra,ee003492 <core_init_state>

ee007684 <.L3216>:
        if (results[0].iterations==0) {
ee007684:	58a2                	lw	a7,40(sp)
ee007686:	6a088c63          	beqz	a7,ee007d3e <.L3451>
ee00768a:	f0041a37          	lui	s4,0xf0041
ee00768e:	f0041ab7          	lui	s5,0xf0041
ee007692:	00c10c13          	addi	s8,sp,12

ee007696 <.L3217>:
        asm volatile ("csrr %0,mcycle"  : "=r" (mcyclel) );
ee007696:	b0002373          	csrr	t1,mcycle

ee00769a <.LVL2895>:
        start_time_val = mcyclel;
ee00769a:	d86a2023          	sw	t1,-640(s4) # f0040d80 <STACK+0xffff87d0>

ee00769e <__perf_start>:
        iterate(&results[0]);
ee00769e:	8562                	mv	a0,s8
ee0076a0:	e22fe0ef          	jal	ra,ee005cc2 <iterate>

ee0076a4 <__perf_end>:
        asm volatile ("csrr %0,mcycle"  : "=r" (mcyclel) );
ee0076a4:	b0002c73          	csrr	s8,mcycle

ee0076a8 <.LBB1538>:
        return crcu16((ee_u16)newval, crc);
ee0076a8:	00c15503          	lhu	a0,12(sp)
ee0076ac:	4581                	li	a1,0

ee0076ae <.LBB1542>:
        stop_time_val = mcyclel;
ee0076ae:	d78aae23          	sw	s8,-644(s5) # f0040d7c <STACK+0xffff87cc>

ee0076b2 <.LBB1543>:
        return crcu16((ee_u16)newval, crc);
ee0076b2:	be1fe0ef          	jal	ra,ee006292 <crcu16>

ee0076b6 <.LVL2900>:
ee0076b6:	85aa                	mv	a1,a0

ee0076b8 <.LBB1548>:
ee0076b8:	00e15503          	lhu	a0,14(sp)

ee0076bc <.LBB1552>:
        CORE_TICKS elapsed=(CORE_TICKS)(MYTIMEDIFF(stop_time_val, start_time_val));
ee0076bc:	d80a2a03          	lw	s4,-640(s4)

ee0076c0 <.LBB1553>:
        return crcu16((ee_u16)newval, crc);
ee0076c0:	bd3fe0ef          	jal	ra,ee006292 <crcu16>

ee0076c4 <.LVL2901>:
ee0076c4:	85aa                	mv	a1,a0

ee0076c6 <.LBB1554>:
ee0076c6:	01015503          	lhu	a0,16(sp)

ee0076ca <.LBB1558>:
        CORE_TICKS elapsed=(CORE_TICKS)(MYTIMEDIFF(stop_time_val, start_time_val));
ee0076ca:	414c0bb3          	sub	s7,s8,s4

ee0076ce <.LBB1559>:
        return crcu16((ee_u16)newval, crc);
ee0076ce:	bc5fe0ef          	jal	ra,ee006292 <crcu16>

ee0076d2 <.LBB1562>:
ee0076d2:	5c12                	lw	s8,36(sp)

ee0076d4 <.LBB1566>:
ee0076d4:	85aa                	mv	a1,a0

ee0076d6 <.LBB1567>:
ee0076d6:	010c1a93          	slli	s5,s8,0x10
ee0076da:	010ad513          	srli	a0,s5,0x10
ee0076de:	bb5fe0ef          	jal	ra,ee006292 <crcu16>

ee0076e2 <.LBE1567>:
        switch (seedcrc) { /* test known output for common seeds */
ee0076e2:	65a1                	lui	a1,0x8
ee0076e4:	b0558393          	addi	t2,a1,-1275 # 7b05 <.LLST450+0xcf>

ee0076e8 <.LBB1568>:
        return crcu16((ee_u16)newval, crc);
ee0076e8:	8aaa                	mv	s5,a0

ee0076ea <.LBE1568>:
        switch (seedcrc) { /* test known output for common seeds */
ee0076ea:	32750ce3          	beq	a0,t2,ee008222 <.L3258>
ee0076ee:	16a3ec63          	bltu	t2,a0,ee007866 <.L3259>
ee0076f2:	6d09                	lui	s10,0x2
ee0076f4:	8f2d0b13          	addi	s6,s10,-1806 # 18f2 <.LLST248+0x42>
ee0076f8:	356507e3          	beq	a0,s6,ee008246 <.L3260>
ee0076fc:	6c95                	lui	s9,0x5
ee0076fe:	eafc8093          	addi	ra,s9,-337 # 4eaf <.LLST585+0x15>
ee007702:	38151ae3          	bne	a0,ra,ee008296 <.L3459>

ee007706 <.LVL2907>:
                        ee_printf("Profile generation run parameters for coremark.\n");
ee007706:	f0040337          	lui	t1,0xf0040
ee00770a:	15030513          	addi	a0,t1,336 # f0040150 <STACK+0xffff7ba0>

ee00770e <.LVL2908>:
ee00770e:	3d1d                	jal	ee007544 <whisperPrintf>

ee007710 <.LVL2909>:
ee007710:	608c8b13          	addi	s6,s9,1544
ee007714:	65b9                	lui	a1,0xe
ee007716:	639d                	lui	t2,0x7
ee007718:	5a458993          	addi	s3,a1,1444 # e5a4 <.LLST534+0xf55>
ee00771c:	8c5a                	mv	s8,s6
ee00771e:	a7938a13          	addi	s4,t2,-1415 # 6a79 <.LLST402+0x18>

ee007722 <.L3265>:
                for (i=0 ; i<default_num_contexts; i++) {
ee007722:	f0040cb7          	lui	s9,0xf0040
ee007726:	0e8ca483          	lw	s1,232(s9) # f00400e8 <STACK+0xffff7b38>
ee00772a:	4901                	li	s2,0
ee00772c:	4d01                	li	s10,0
ee00772e:	360480e3          	beqz	s1,ee00828e <.L3453>
                                ee_printf("[%u]ERROR! list crc 0x%04x - should be 0x%04x\n",i,results[i].crclist,list_known_crc[known_id]);
ee007732:	f0040db7          	lui	s11,0xf0040
ee007736:	a81d                	j	ee00776c <.L3271>

ee007738 <.L3466>:
                        total_errors+=results[i].err;
ee007738:	946a                	add	s0,s0,s10
ee00773a:	00241693          	slli	a3,s0,0x2
ee00773e:	0888                	addi	a0,sp,80
ee007740:	00d50733          	add	a4,a0,a3
ee007744:	ffc75f03          	lhu	t5,-4(a4)

ee007748 <.L3269>:
                for (i=0 ; i<default_num_contexts; i++) {
ee007748:	0d05                	addi	s10,s10,1

ee00774a <.LVL2912>:
ee00774a:	0e8ca283          	lw	t0,232(s9)
                        total_errors+=results[i].err;
ee00774e:	997a                	add	s2,s2,t5

ee007750 <.LVL2913>:
                for (i=0 ; i<default_num_contexts; i++) {
ee007750:	010d1313          	slli	t1,s10,0x10
                        total_errors+=results[i].err;
ee007754:	01091593          	slli	a1,s2,0x10
ee007758:	01091393          	slli	t2,s2,0x10
                for (i=0 ; i<default_num_contexts; i++) {
ee00775c:	01035d13          	srli	s10,t1,0x10
                        total_errors+=results[i].err;
ee007760:	0105d413          	srli	s0,a1,0x10
ee007764:	4103d913          	srai	s2,t2,0x10

ee007768 <.LVL2914>:
                for (i=0 ; i<default_num_contexts; i++) {
ee007768:	125d7863          	bgeu	s10,t0,ee007898 <.L3465>

ee00776c <.L3271>:
                        results[i].err=0;
ee00776c:	004d1413          	slli	s0,s10,0x4
ee007770:	01a406b3          	add	a3,s0,s10
ee007774:	00269513          	slli	a0,a3,0x2
ee007778:	0898                	addi	a4,sp,80
ee00777a:	00a704b3          	add	s1,a4,a0
                        if ((results[i].execs & ID_LIST) &&
ee00777e:	fdc4a603          	lw	a2,-36(s1)
                        results[i].err=0;
ee007782:	fe049e23          	sh	zero,-4(s1)
                        if ((results[i].execs & ID_LIST) &&
ee007786:	00167813          	andi	a6,a2,1
ee00778a:	02080163          	beqz	a6,ee0077ac <.L3266>
                                (results[i].crclist!=list_known_crc[known_id])) {
ee00778e:	ff64d603          	lhu	a2,-10(s1)
                        if ((results[i].execs & ID_LIST) &&
ee007792:	01460d63          	beq	a2,s4,ee0077ac <.L3266>
                                ee_printf("[%u]ERROR! list crc 0x%04x - should be 0x%04x\n",i,results[i].crclist,list_known_crc[known_id]);
ee007796:	86d2                	mv	a3,s4
ee007798:	85ea                	mv	a1,s10
ee00779a:	1e0d8513          	addi	a0,s11,480 # f00401e0 <STACK+0xffff7c30>
ee00779e:	335d                	jal	ee007544 <whisperPrintf>

ee0077a0 <.LVL2916>:
                                results[i].err++;
ee0077a0:	ffc4d883          	lhu	a7,-4(s1)
ee0077a4:	00188793          	addi	a5,a7,1
ee0077a8:	fef49e23          	sh	a5,-4(s1)

ee0077ac <.L3266>:
                        if ((results[i].execs & ID_MATRIX) &&
ee0077ac:	01a40eb3          	add	t4,s0,s10
ee0077b0:	002e9e13          	slli	t3,t4,0x2
ee0077b4:	05010f93          	addi	t6,sp,80
ee0077b8:	01cf84b3          	add	s1,t6,t3
ee0077bc:	fdc4a583          	lw	a1,-36(s1)
ee0077c0:	0025ff13          	andi	t5,a1,2
ee0077c4:	020f0563          	beqz	t5,ee0077ee <.L3267>
                                (results[i].crcmatrix!=matrix_known_crc[known_id])) {
ee0077c8:	ff84d603          	lhu	a2,-8(s1)
                        if ((results[i].execs & ID_MATRIX) &&
ee0077cc:	03860163          	beq	a2,s8,ee0077ee <.L3267>
                                ee_printf("[%u]ERROR! matrix crc 0x%04x - should be 0x%04x\n",i,results[i].crcmatrix,matrix_known_crc[known_id]);
ee0077d0:	f00402b7          	lui	t0,0xf0040
ee0077d4:	85ea                	mv	a1,s10
ee0077d6:	86da                	mv	a3,s6
ee0077d8:	21028513          	addi	a0,t0,528 # f0040210 <STACK+0xffff7c60>
ee0077dc:	33a5                	jal	ee007544 <whisperPrintf>

ee0077de <.LVL2917>:
                                results[i].err++;
ee0077de:	ffc4d303          	lhu	t1,-4(s1)
                        if ((results[i].execs & ID_STATE) &&
ee0077e2:	fdc4a583          	lw	a1,-36(s1)
                                results[i].err++;
ee0077e6:	00130393          	addi	t2,t1,1
ee0077ea:	fe749e23          	sh	t2,-4(s1)

ee0077ee <.L3267>:
                        if ((results[i].execs & ID_STATE) &&
ee0077ee:	0045f093          	andi	ra,a1,4
ee0077f2:	f40083e3          	beqz	ra,ee007738 <.L3466>
                                (results[i].crcstate!=state_known_crc[known_id])) {
ee0077f6:	01a40633          	add	a2,s0,s10
ee0077fa:	00261813          	slli	a6,a2,0x2
ee0077fe:	05010893          	addi	a7,sp,80
ee007802:	010884b3          	add	s1,a7,a6
ee007806:	ffa4d603          	lhu	a2,-6(s1)
                        if ((results[i].execs & ID_STATE) &&
ee00780a:	03361c63          	bne	a2,s3,ee007842 <.L3270>
                        total_errors+=results[i].err;
ee00780e:	ffc4df03          	lhu	t5,-4(s1)
ee007812:	bf1d                	j	ee007748 <.L3269>

ee007814 <.L3463>:
                        results[i].list=core_list_init(results[0].size,results[i].memblock[1],results[i].seed1);
ee007814:	45e2                	lw	a1,24(sp)
ee007816:	84ff80ef          	jal	ra,ee000064 <core_list_init>

ee00781a <.LVL2919>:
                if (results[i].execs & ID_MATRIX) {
ee00781a:	5832                	lw	a6,44(sp)
                        results[i].list=core_list_init(results[0].size,results[i].memblock[1],results[i].seed1);
ee00781c:	d82a                	sw	a0,48(sp)
ee00781e:	00287713          	andi	a4,a6,2
                if (results[i].execs & ID_MATRIX) {
ee007822:	e40708e3          	beqz	a4,ee007672 <.L3215>

ee007826 <.L3464>:
                        core_init_matrix(results[0].size, results[i].memblock[2], (ee_s32)results[i].seed1 | (((ee_s32)results[i].seed2) << 16), &(results[i].mat) );
ee007826:	00e11783          	lh	a5,14(sp)
ee00782a:	00c11603          	lh	a2,12(sp)
ee00782e:	45f2                	lw	a1,28(sp)
ee007830:	5512                	lw	a0,36(sp)
ee007832:	01079493          	slli	s1,a5,0x10
ee007836:	1854                	addi	a3,sp,52
ee007838:	8e45                	or	a2,a2,s1
ee00783a:	c1dfa0ef          	jal	ra,ee002456 <core_init_matrix>

ee00783e <.LVL2920>:
                if (results[i].execs & ID_STATE) {
ee00783e:	5832                	lw	a6,44(sp)
ee007840:	bd0d                	j	ee007672 <.L3215>

ee007842 <.L3270>:
                                ee_printf("[%u]ERROR! state crc 0x%04x - should be 0x%04x\n",i,results[i].crcstate,state_known_crc[known_id]);
ee007842:	f00407b7          	lui	a5,0xf0040
ee007846:	86ce                	mv	a3,s3
ee007848:	85ea                	mv	a1,s10
ee00784a:	24478513          	addi	a0,a5,580 # f0040244 <STACK+0xffff7c94>
ee00784e:	39dd                	jal	ee007544 <whisperPrintf>

ee007850 <.LVL2922>:
                                results[i].err++;
ee007850:	ffc4de83          	lhu	t4,-4(s1)
ee007854:	001e8e13          	addi	t3,t4,1
ee007858:	010e1f93          	slli	t6,t3,0x10
ee00785c:	010fdf13          	srli	t5,t6,0x10
ee007860:	ffe49e23          	sh	t5,-4(s1)
ee007864:	b5d5                	j	ee007748 <.L3269>

ee007866 <.L3259>:
        switch (seedcrc) { /* test known output for common seeds */
ee007866:	69a5                	lui	s3,0x9
ee007868:	a0298613          	addi	a2,s3,-1534 # 8a02 <.LLST362+0x2>
ee00786c:	1ec50fe3          	beq	a0,a2,ee00826a <.L3263>
ee007870:	6dbd                	lui	s11,0xf
ee007872:	9f5d8e93          	addi	t4,s11,-1547 # e9f5 <.LLST534+0x13a6>
ee007876:	23d510e3          	bne	a0,t4,ee008296 <.L3459>

ee00787a <.LVL2924>:
                        ee_printf("2K performance run parameters for coremark.\n");
ee00787a:	f0040437          	lui	s0,0xf0040
ee00787e:	18440513          	addi	a0,s0,388 # f0040184 <STACK+0xffff7bd4>

ee007882 <.LVL2925>:
ee007882:	31c9                	jal	ee007544 <whisperPrintf>

ee007884 <.LVL2926>:
ee007884:	6909                	lui	s2,0x2
ee007886:	fd790b13          	addi	s6,s2,-41 # 1fd7 <.LLST261+0xe2>
ee00788a:	6e39                	lui	t3,0xe
ee00788c:	e3a98993          	addi	s3,s3,-454
ee007890:	8c5a                	mv	s8,s6
ee007892:	714e0a13          	addi	s4,t3,1812 # e714 <.LLST534+0x10c5>
ee007896:	b571                	j	ee007722 <.L3265>

ee007898 <.L3465>:
ee007898:	5c12                	lw	s8,36(sp)

ee00789a <.L3262>:
        ee_printf("CoreMark Size    : %u\n",(ee_u32)results[0].size);
ee00789a:	f0040b37          	lui	s6,0xf0040
ee00789e:	85e2                	mv	a1,s8
ee0078a0:	274b0513          	addi	a0,s6,628 # f0040274 <STACK+0xffff7cc4>
ee0078a4:	3145                	jal	ee007544 <whisperPrintf>

ee0078a6 <.LVL2929>:
        ee_printf("Total ticks      : %u\n",(ee_u32)total_time);
ee0078a6:	f0040a37          	lui	s4,0xf0040
ee0078aa:	85de                	mv	a1,s7
ee0078ac:	28ca0513          	addi	a0,s4,652 # f004028c <STACK+0xffff7cdc>

ee0078b0 <.LBB1569>:
        secs_ret retval=((secs_ret)ticks) / (secs_ret)EE_TICKS_PER_SEC;
ee0078b0:	3e800c13          	li	s8,1000

ee0078b4 <.LBE1569>:
        ee_printf("Total ticks      : %u\n",(ee_u32)total_time);
ee0078b4:	3941                	jal	ee007544 <whisperPrintf>

ee0078b6 <.LBB1572>:
        secs_ret retval=((secs_ret)ticks) / (secs_ret)EE_TICKS_PER_SEC;
ee0078b6:	038bddb3          	divu	s11,s7,s8

ee0078ba <.LBE1572>:
        ee_printf("Total time (secs): %d\n",time_in_secs(total_time));
ee0078ba:	f00406b7          	lui	a3,0xf0040
ee0078be:	2a468513          	addi	a0,a3,676 # f00402a4 <STACK+0xffff7cf4>
ee0078c2:	85ee                	mv	a1,s11
ee0078c4:	3141                	jal	ee007544 <whisperPrintf>

ee0078c6 <.LVL2932>:
        if (time_in_secs(total_time) > 0)
ee0078c6:	3e700513          	li	a0,999
ee0078ca:	43756a63          	bltu	a0,s7,ee007cfe <.L3272>

ee0078ce <.L3274>:
                ee_printf("ERROR! Must execute for at least 10 secs for a valid result!\n");
ee0078ce:	f0040bb7          	lui	s7,0xf0040

ee0078d2 <.LVL2933>:
                total_errors++;
ee0078d2:	0405                	addi	s0,s0,1
                ee_printf("ERROR! Must execute for at least 10 secs for a valid result!\n");
ee0078d4:	2bcb8513          	addi	a0,s7,700 # f00402bc <STACK+0xffff7d0c>
                total_errors++;
ee0078d8:	01041d13          	slli	s10,s0,0x10
                ee_printf("ERROR! Must execute for at least 10 secs for a valid result!\n");
ee0078dc:	31a5                	jal	ee007544 <whisperPrintf>

ee0078de <.LVL2934>:
                total_errors++;
ee0078de:	410d5913          	srai	s2,s10,0x10

ee0078e2 <.L3273>:
        ee_printf("Iterations       : %u\n",(ee_u32)default_num_contexts*results[0].iterations);
ee0078e2:	0e8ca303          	lw	t1,232(s9)
ee0078e6:	53a2                	lw	t2,40(sp)
ee0078e8:	f00405b7          	lui	a1,0xf0040
ee0078ec:	31858513          	addi	a0,a1,792 # f0040318 <STACK+0xffff7d68>
ee0078f0:	026385b3          	mul	a1,t2,t1
        ee_printf("Compiler version : %s\n",COMPILER_VERSION);
ee0078f4:	f00409b7          	lui	s3,0xf0040
ee0078f8:	f0040b37          	lui	s6,0xf0040
        ee_printf("Compiler flags   : %s\n",COMPILER_FLAGS);
ee0078fc:	f0040a37          	lui	s4,0xf0040
ee007900:	f0040c37          	lui	s8,0xf0040
        ee_printf("Memory location  : %s\n",MEM_LOCATION);
ee007904:	f0040db7          	lui	s11,0xf0040
        ee_printf("Iterations       : %u\n",(ee_u32)default_num_contexts*results[0].iterations);
ee007908:	3935                	jal	ee007544 <whisperPrintf>

ee00790a <.LVL2936>:
        ee_printf("Compiler version : %s\n",COMPILER_VERSION);
ee00790a:	33098593          	addi	a1,s3,816 # f0040330 <STACK+0xffff7d80>
ee00790e:	33cb0513          	addi	a0,s6,828 # f004033c <STACK+0xffff7d8c>
ee007912:	390d                	jal	ee007544 <whisperPrintf>

ee007914 <.LVL2937>:
        ee_printf("Compiler flags   : %s\n",COMPILER_FLAGS);
ee007914:	354a0593          	addi	a1,s4,852 # f0040354 <STACK+0xffff7da4>
ee007918:	358c0513          	addi	a0,s8,856 # f0040358 <STACK+0xffff7da8>
ee00791c:	3125                	jal	ee007544 <whisperPrintf>

ee00791e <.LVL2938>:
        ee_printf("Memory location  : %s\n",MEM_LOCATION);
ee00791e:	f00406b7          	lui	a3,0xf0040
ee007922:	370d8593          	addi	a1,s11,880 # f0040370 <STACK+0xffff7dc0>
ee007926:	37868513          	addi	a0,a3,888 # f0040378 <STACK+0xffff7dc8>
ee00792a:	3929                	jal	ee007544 <whisperPrintf>

ee00792c <.LVL2939>:
        ee_printf("seedcrc          : 0x%04x\n",seedcrc);
ee00792c:	85d6                	mv	a1,s5
ee00792e:	f0040ab7          	lui	s5,0xf0040
ee007932:	390a8513          	addi	a0,s5,912 # f0040390 <STACK+0xffff7de0>
ee007936:	3139                	jal	ee007544 <whisperPrintf>

ee007938 <.LVL2940>:
        if (results[0].execs & ID_LIST)
ee007938:	59b2                	lw	s3,44(sp)
ee00793a:	0019f513          	andi	a0,s3,1
ee00793e:	c165                	beqz	a0,ee007a1e <.L3278>

ee007940 <.LVL2941>:
                for (i=0 ; i<default_num_contexts; i++)
ee007940:	0e8ca083          	lw	ra,232(s9)
ee007944:	0c008d63          	beqz	ra,ee007a1e <.L3278>
ee007948:	4401                	li	s0,0
ee00794a:	f00404b7          	lui	s1,0xf0040

ee00794e <.L3279>:
                        ee_printf("[%d]crclist       : 0x%04x\n",i,results[i].crclist);
ee00794e:	00441713          	slli	a4,s0,0x4
ee007952:	00870633          	add	a2,a4,s0
ee007956:	00261813          	slli	a6,a2,0x2
ee00795a:	05010893          	addi	a7,sp,80
ee00795e:	010887b3          	add	a5,a7,a6
ee007962:	ff67d603          	lhu	a2,-10(a5)
ee007966:	85a2                	mv	a1,s0
ee007968:	3ac48513          	addi	a0,s1,940 # f00403ac <STACK+0xffff7dfc>
ee00796c:	3ee1                	jal	ee007544 <whisperPrintf>

ee00796e <.LVL2943>:
                for (i=0 ; i<default_num_contexts; i++)
ee00796e:	00140e13          	addi	t3,s0,1
ee007972:	010e1f93          	slli	t6,t3,0x10
ee007976:	010fdb93          	srli	s7,t6,0x10
                        ee_printf("[%d]crclist       : 0x%04x\n",i,results[i].crclist);
ee00797a:	004b9f13          	slli	t5,s7,0x4
                for (i=0 ; i<default_num_contexts; i++)
ee00797e:	0e8cae83          	lw	t4,232(s9)
                        ee_printf("[%d]crclist       : 0x%04x\n",i,results[i].crclist);
ee007982:	017f02b3          	add	t0,t5,s7
ee007986:	00229413          	slli	s0,t0,0x2
ee00798a:	05010d13          	addi	s10,sp,80
ee00798e:	3ac48513          	addi	a0,s1,940
ee007992:	008d0333          	add	t1,s10,s0
ee007996:	85de                	mv	a1,s7
                for (i=0 ; i<default_num_contexts; i++)
ee007998:	09dbf263          	bgeu	s7,t4,ee007a1c <.L3456>
                        ee_printf("[%d]crclist       : 0x%04x\n",i,results[i].crclist);
ee00799c:	ff635603          	lhu	a2,-10(t1)
ee0079a0:	3655                	jal	ee007544 <whisperPrintf>

ee0079a2 <.LVL2944>:
                for (i=0 ; i<default_num_contexts; i++)
ee0079a2:	001b8593          	addi	a1,s7,1
ee0079a6:	01059993          	slli	s3,a1,0x10
ee0079aa:	0109db13          	srli	s6,s3,0x10
                        ee_printf("[%d]crclist       : 0x%04x\n",i,results[i].crclist);
ee0079ae:	004b1a13          	slli	s4,s6,0x4
                for (i=0 ; i<default_num_contexts; i++)
ee0079b2:	0e8ca383          	lw	t2,232(s9)
                        ee_printf("[%d]crclist       : 0x%04x\n",i,results[i].crclist);
ee0079b6:	016a0c33          	add	s8,s4,s6
ee0079ba:	002c1d93          	slli	s11,s8,0x2
ee0079be:	0894                	addi	a3,sp,80
ee0079c0:	3ac48513          	addi	a0,s1,940
ee0079c4:	01b68ab3          	add	s5,a3,s11
ee0079c8:	85da                	mv	a1,s6
                for (i=0 ; i<default_num_contexts; i++)
ee0079ca:	047b7963          	bgeu	s6,t2,ee007a1c <.L3456>
                        ee_printf("[%d]crclist       : 0x%04x\n",i,results[i].crclist);
ee0079ce:	ff6ad603          	lhu	a2,-10(s5)
ee0079d2:	3e8d                	jal	ee007544 <whisperPrintf>

ee0079d4 <.LVL2945>:
                for (i=0 ; i<default_num_contexts; i++)
ee0079d4:	001b0713          	addi	a4,s6,1
ee0079d8:	01071813          	slli	a6,a4,0x10
ee0079dc:	01085b93          	srli	s7,a6,0x10
                        ee_printf("[%d]crclist       : 0x%04x\n",i,results[i].crclist);
ee0079e0:	004b9893          	slli	a7,s7,0x4
                for (i=0 ; i<default_num_contexts; i++)
ee0079e4:	0e8ca603          	lw	a2,232(s9)
                        ee_printf("[%d]crclist       : 0x%04x\n",i,results[i].crclist);
ee0079e8:	017887b3          	add	a5,a7,s7
ee0079ec:	00279e93          	slli	t4,a5,0x2
ee0079f0:	05010e13          	addi	t3,sp,80
ee0079f4:	3ac48513          	addi	a0,s1,940
ee0079f8:	01de0fb3          	add	t6,t3,t4
ee0079fc:	85de                	mv	a1,s7
                for (i=0 ; i<default_num_contexts; i++)
ee0079fe:	00cbff63          	bgeu	s7,a2,ee007a1c <.L3456>
                        ee_printf("[%d]crclist       : 0x%04x\n",i,results[i].crclist);
ee007a02:	ff6fd603          	lhu	a2,-10(t6)
ee007a06:	3e3d                	jal	ee007544 <whisperPrintf>

ee007a08 <.LVL2946>:
                for (i=0 ; i<default_num_contexts; i++)
ee007a08:	001b8f13          	addi	t5,s7,1

ee007a0c <.LVL2947>:
ee007a0c:	0e8ca503          	lw	a0,232(s9)
ee007a10:	010f1293          	slli	t0,t5,0x10
ee007a14:	0102d413          	srli	s0,t0,0x10
ee007a18:	f2a46be3          	bltu	s0,a0,ee00794e <.L3279>

ee007a1c <.L3456>:
ee007a1c:	59b2                	lw	s3,44(sp)

ee007a1e <.L3278>:
        if (results[0].execs & ID_MATRIX)
ee007a1e:	0029f093          	andi	ra,s3,2
ee007a22:	0e008063          	beqz	ra,ee007b02 <.L3277>

ee007a26 <.LVL2949>:
                for (i=0 ; i<default_num_contexts; i++)
ee007a26:	0e8ca483          	lw	s1,232(s9)
ee007a2a:	1e048663          	beqz	s1,ee007c16 <.L3282>
ee007a2e:	4b81                	li	s7,0
ee007a30:	f00409b7          	lui	s3,0xf0040

ee007a34 <.L3283>:
                        ee_printf("[%d]crcmatrix     : 0x%04x\n",i,results[i].crcmatrix);
ee007a34:	004b9313          	slli	t1,s7,0x4
ee007a38:	017303b3          	add	t2,t1,s7
ee007a3c:	00239593          	slli	a1,t2,0x2
ee007a40:	05010b13          	addi	s6,sp,80
ee007a44:	00bb0a33          	add	s4,s6,a1
ee007a48:	ff8a5603          	lhu	a2,-8(s4)
ee007a4c:	85de                	mv	a1,s7
ee007a4e:	3c898513          	addi	a0,s3,968 # f00403c8 <STACK+0xffff7e18>
ee007a52:	3ccd                	jal	ee007544 <whisperPrintf>

ee007a54 <.LVL2951>:
                for (i=0 ; i<default_num_contexts; i++)
ee007a54:	001b8d93          	addi	s11,s7,1
ee007a58:	010d9693          	slli	a3,s11,0x10
ee007a5c:	0106da93          	srli	s5,a3,0x10
                        ee_printf("[%d]crcmatrix     : 0x%04x\n",i,results[i].crcmatrix);
ee007a60:	004a9613          	slli	a2,s5,0x4
                for (i=0 ; i<default_num_contexts; i++)
ee007a64:	0e8cac03          	lw	s8,232(s9)
                        ee_printf("[%d]crcmatrix     : 0x%04x\n",i,results[i].crcmatrix);
ee007a68:	01560733          	add	a4,a2,s5
ee007a6c:	00271813          	slli	a6,a4,0x2
ee007a70:	05010b93          	addi	s7,sp,80
ee007a74:	3c898513          	addi	a0,s3,968
ee007a78:	010b88b3          	add	a7,s7,a6
ee007a7c:	85d6                	mv	a1,s5
                for (i=0 ; i<default_num_contexts; i++)
ee007a7e:	098af163          	bgeu	s5,s8,ee007b00 <.L3455>
                        ee_printf("[%d]crcmatrix     : 0x%04x\n",i,results[i].crcmatrix);
ee007a82:	ff88d603          	lhu	a2,-8(a7)
ee007a86:	0884                	addi	s1,sp,80
ee007a88:	3c75                	jal	ee007544 <whisperPrintf>

ee007a8a <.LVL2952>:
                for (i=0 ; i<default_num_contexts; i++)
ee007a8a:	001a8793          	addi	a5,s5,1
ee007a8e:	01079e13          	slli	t3,a5,0x10
ee007a92:	010e5413          	srli	s0,t3,0x10
                        ee_printf("[%d]crcmatrix     : 0x%04x\n",i,results[i].crcmatrix);
ee007a96:	00441f93          	slli	t6,s0,0x4
                for (i=0 ; i<default_num_contexts; i++)
ee007a9a:	0e8cae83          	lw	t4,232(s9)
                        ee_printf("[%d]crcmatrix     : 0x%04x\n",i,results[i].crcmatrix);
ee007a9e:	008f8f33          	add	t5,t6,s0
ee007aa2:	002f1293          	slli	t0,t5,0x2
ee007aa6:	3c898513          	addi	a0,s3,968
ee007aaa:	00548d33          	add	s10,s1,t0
ee007aae:	85a2                	mv	a1,s0
                for (i=0 ; i<default_num_contexts; i++)
ee007ab0:	05d47863          	bgeu	s0,t4,ee007b00 <.L3455>
                        ee_printf("[%d]crcmatrix     : 0x%04x\n",i,results[i].crcmatrix);
ee007ab4:	ff8d5603          	lhu	a2,-8(s10)
ee007ab8:	3471                	jal	ee007544 <whisperPrintf>

ee007aba <.LVL2953>:
                for (i=0 ; i<default_num_contexts; i++)
ee007aba:	00140393          	addi	t2,s0,1
ee007abe:	01039593          	slli	a1,t2,0x10
ee007ac2:	0105db13          	srli	s6,a1,0x10
                        ee_printf("[%d]crcmatrix     : 0x%04x\n",i,results[i].crcmatrix);
ee007ac6:	004b1a13          	slli	s4,s6,0x4
                for (i=0 ; i<default_num_contexts; i++)
ee007aca:	0e8ca303          	lw	t1,232(s9)
                        ee_printf("[%d]crcmatrix     : 0x%04x\n",i,results[i].crcmatrix);
ee007ace:	016a0c33          	add	s8,s4,s6
ee007ad2:	002c1d93          	slli	s11,s8,0x2
ee007ad6:	0894                	addi	a3,sp,80
ee007ad8:	3c898513          	addi	a0,s3,968
ee007adc:	01b68ab3          	add	s5,a3,s11
ee007ae0:	85da                	mv	a1,s6
                for (i=0 ; i<default_num_contexts; i++)
ee007ae2:	006b7f63          	bgeu	s6,t1,ee007b00 <.L3455>
                        ee_printf("[%d]crcmatrix     : 0x%04x\n",i,results[i].crcmatrix);
ee007ae6:	ff8ad603          	lhu	a2,-8(s5)
ee007aea:	3ca9                	jal	ee007544 <whisperPrintf>

ee007aec <.LVL2954>:
                for (i=0 ; i<default_num_contexts; i++)
ee007aec:	001b0613          	addi	a2,s6,1

ee007af0 <.LVL2955>:
ee007af0:	0e8ca503          	lw	a0,232(s9)
ee007af4:	01061713          	slli	a4,a2,0x10
ee007af8:	01075b93          	srli	s7,a4,0x10
ee007afc:	f2abece3          	bltu	s7,a0,ee007a34 <.L3283>

ee007b00 <.L3455>:
ee007b00:	59b2                	lw	s3,44(sp)

ee007b02 <.L3277>:
        if (results[0].execs & ID_STATE)
ee007b02:	0049f093          	andi	ra,s3,4
ee007b06:	10009c63          	bnez	ra,ee007c1e <.L3280>

ee007b0a <.L3281>:
        for (i=0 ; i<default_num_contexts; i++)
ee007b0a:	0e8ca083          	lw	ra,232(s9)
ee007b0e:	4401                	li	s0,0
ee007b10:	f00404b7          	lui	s1,0xf0040
ee007b14:	0c008963          	beqz	ra,ee007be6 <.L3285>

ee007b18 <.L3284>:
                ee_printf("[%d]crcfinal      : 0x%04x\n",i,results[i].crc);
ee007b18:	00441593          	slli	a1,s0,0x4
ee007b1c:	00858a33          	add	s4,a1,s0
ee007b20:	002a1c13          	slli	s8,s4,0x2
ee007b24:	05010d93          	addi	s11,sp,80
ee007b28:	018d86b3          	add	a3,s11,s8
ee007b2c:	ff46d603          	lhu	a2,-12(a3)
ee007b30:	85a2                	mv	a1,s0
ee007b32:	40048513          	addi	a0,s1,1024 # f0040400 <STACK+0xffff7e50>
ee007b36:	3439                	jal	ee007544 <whisperPrintf>

ee007b38 <.LVL2959>:
        for (i=0 ; i<default_num_contexts; i++)
ee007b38:	00140613          	addi	a2,s0,1
ee007b3c:	01061713          	slli	a4,a2,0x10
ee007b40:	01075b93          	srli	s7,a4,0x10
                ee_printf("[%d]crcfinal      : 0x%04x\n",i,results[i].crc);
ee007b44:	004b9993          	slli	s3,s7,0x4
        for (i=0 ; i<default_num_contexts; i++)
ee007b48:	0e8caa83          	lw	s5,232(s9)
                ee_printf("[%d]crcfinal      : 0x%04x\n",i,results[i].crc);
ee007b4c:	01798833          	add	a6,s3,s7
ee007b50:	00281893          	slli	a7,a6,0x2
ee007b54:	05010e93          	addi	t4,sp,80
ee007b58:	40048513          	addi	a0,s1,1024
ee007b5c:	011e8e33          	add	t3,t4,a7
ee007b60:	85de                	mv	a1,s7
        for (i=0 ; i<default_num_contexts; i++)
ee007b62:	095bf263          	bgeu	s7,s5,ee007be6 <.L3285>
                ee_printf("[%d]crcfinal      : 0x%04x\n",i,results[i].crc);
ee007b66:	ff4e5603          	lhu	a2,-12(t3)
        for (i=0 ; i<default_num_contexts; i++)
ee007b6a:	001b8413          	addi	s0,s7,1
                ee_printf("[%d]crcfinal      : 0x%04x\n",i,results[i].crc);
ee007b6e:	3ad9                	jal	ee007544 <whisperPrintf>

ee007b70 <.LVL2960>:
        for (i=0 ; i<default_num_contexts; i++)
ee007b70:	01041793          	slli	a5,s0,0x10
ee007b74:	0107dd13          	srli	s10,a5,0x10
                ee_printf("[%d]crcfinal      : 0x%04x\n",i,results[i].crc);
ee007b78:	004d1f13          	slli	t5,s10,0x4
        for (i=0 ; i<default_num_contexts; i++)
ee007b7c:	0e8caf83          	lw	t6,232(s9)
                ee_printf("[%d]crcfinal      : 0x%04x\n",i,results[i].crc);
ee007b80:	01af02b3          	add	t0,t5,s10
ee007b84:	00229313          	slli	t1,t0,0x2
ee007b88:	05010393          	addi	t2,sp,80
ee007b8c:	40048513          	addi	a0,s1,1024
ee007b90:	00638b33          	add	s6,t2,t1
ee007b94:	85ea                	mv	a1,s10
        for (i=0 ; i<default_num_contexts; i++)
ee007b96:	05fd7863          	bgeu	s10,t6,ee007be6 <.L3285>
                ee_printf("[%d]crcfinal      : 0x%04x\n",i,results[i].crc);
ee007b9a:	ff4b5603          	lhu	a2,-12(s6)
ee007b9e:	325d                	jal	ee007544 <whisperPrintf>

ee007ba0 <.LVL2961>:
        for (i=0 ; i<default_num_contexts; i++)
ee007ba0:	001d0593          	addi	a1,s10,1
ee007ba4:	01059c13          	slli	s8,a1,0x10
ee007ba8:	010c5d93          	srli	s11,s8,0x10
                ee_printf("[%d]crcfinal      : 0x%04x\n",i,results[i].crc);
ee007bac:	004d9693          	slli	a3,s11,0x4
        for (i=0 ; i<default_num_contexts; i++)
ee007bb0:	0e8caa03          	lw	s4,232(s9)
                ee_printf("[%d]crcfinal      : 0x%04x\n",i,results[i].crc);
ee007bb4:	01b68ab3          	add	s5,a3,s11
ee007bb8:	002a9613          	slli	a2,s5,0x2
ee007bbc:	0898                	addi	a4,sp,80
ee007bbe:	40048513          	addi	a0,s1,1024
ee007bc2:	00c70bb3          	add	s7,a4,a2
ee007bc6:	85ee                	mv	a1,s11
        for (i=0 ; i<default_num_contexts; i++)
ee007bc8:	014dff63          	bgeu	s11,s4,ee007be6 <.L3285>
                ee_printf("[%d]crcfinal      : 0x%04x\n",i,results[i].crc);
ee007bcc:	ff4bd603          	lhu	a2,-12(s7)
        for (i=0 ; i<default_num_contexts; i++)
ee007bd0:	001d8993          	addi	s3,s11,1
                ee_printf("[%d]crcfinal      : 0x%04x\n",i,results[i].crc);
ee007bd4:	3a85                	jal	ee007544 <whisperPrintf>

ee007bd6 <.LVL2962>:
        for (i=0 ; i<default_num_contexts; i++)
ee007bd6:	0e8ca503          	lw	a0,232(s9)
ee007bda:	01099813          	slli	a6,s3,0x10
ee007bde:	01085413          	srli	s0,a6,0x10
ee007be2:	f2a46be3          	bltu	s0,a0,ee007b18 <.L3284>

ee007be6 <.L3285>:
        if (total_errors==0) {
ee007be6:	62090763          	beqz	s2,ee008214 <.L3467>
        if (total_errors>0)
ee007bea:	5f205b63          	blez	s2,ee0081e0 <.L3290>
                ee_printf("Errors detected\n");
ee007bee:	f0040937          	lui	s2,0xf0040

ee007bf2 <.LVL2964>:
ee007bf2:	46890513          	addi	a0,s2,1128 # f0040468 <STACK+0xffff7eb8>
ee007bf6:	32b9                	jal	ee007544 <whisperPrintf>

ee007bf8 <.L3204>:
}
ee007bf8:	40ba                	lw	ra,140(sp)
ee007bfa:	442a                	lw	s0,136(sp)
ee007bfc:	449a                	lw	s1,132(sp)
ee007bfe:	490a                	lw	s2,128(sp)
ee007c00:	59f6                	lw	s3,124(sp)
ee007c02:	5a66                	lw	s4,120(sp)
ee007c04:	5ad6                	lw	s5,116(sp)
ee007c06:	5b46                	lw	s6,112(sp)
ee007c08:	5bb6                	lw	s7,108(sp)
ee007c0a:	5c26                	lw	s8,104(sp)
ee007c0c:	5c96                	lw	s9,100(sp)
ee007c0e:	5d06                	lw	s10,96(sp)
ee007c10:	4df6                	lw	s11,92(sp)
ee007c12:	6149                	addi	sp,sp,144
ee007c14:	8082                	ret

ee007c16 <.L3282>:
        if (results[0].execs & ID_STATE)
ee007c16:	0049fd13          	andi	s10,s3,4
ee007c1a:	fc0d06e3          	beqz	s10,ee007be6 <.L3285>

ee007c1e <.L3280>:
                for (i=0 ; i<default_num_contexts; i++)
ee007c1e:	0e8ca803          	lw	a6,232(s9)
ee007c22:	fc0802e3          	beqz	a6,ee007be6 <.L3285>
ee007c26:	4b01                	li	s6,0
ee007c28:	f00404b7          	lui	s1,0xf0040

ee007c2c <.L3286>:
                        ee_printf("[%d]crcstate      : 0x%04x\n",i,results[i].crcstate);
ee007c2c:	004b1893          	slli	a7,s6,0x4
ee007c30:	01688eb3          	add	t4,a7,s6
ee007c34:	002e9e13          	slli	t3,t4,0x2
ee007c38:	089c                	addi	a5,sp,80
ee007c3a:	01c78fb3          	add	t6,a5,t3
ee007c3e:	ffafd603          	lhu	a2,-6(t6)
ee007c42:	85da                	mv	a1,s6
ee007c44:	3e448513          	addi	a0,s1,996 # f00403e4 <STACK+0xffff7e34>
ee007c48:	38f5                	jal	ee007544 <whisperPrintf>

ee007c4a <.LVL2969>:
                for (i=0 ; i<default_num_contexts; i++)
ee007c4a:	001b0413          	addi	s0,s6,1
ee007c4e:	01041293          	slli	t0,s0,0x10
ee007c52:	0102dd13          	srli	s10,t0,0x10
                        ee_printf("[%d]crcstate      : 0x%04x\n",i,results[i].crcstate);
ee007c56:	004d1313          	slli	t1,s10,0x4
                for (i=0 ; i<default_num_contexts; i++)
ee007c5a:	0e8caf03          	lw	t5,232(s9)
                        ee_printf("[%d]crcstate      : 0x%04x\n",i,results[i].crcstate);
ee007c5e:	01a303b3          	add	t2,t1,s10
ee007c62:	00239593          	slli	a1,t2,0x2
ee007c66:	05010b13          	addi	s6,sp,80
ee007c6a:	00bb0a33          	add	s4,s6,a1
ee007c6e:	3e448513          	addi	a0,s1,996
ee007c72:	85ea                	mv	a1,s10
                for (i=0 ; i<default_num_contexts; i++)
ee007c74:	e9ed7be3          	bgeu	s10,t5,ee007b0a <.L3281>
                        ee_printf("[%d]crcstate      : 0x%04x\n",i,results[i].crcstate);
ee007c78:	ffaa5603          	lhu	a2,-6(s4)
                for (i=0 ; i<default_num_contexts; i++)
ee007c7c:	001d0d93          	addi	s11,s10,1
                        ee_printf("[%d]crcstate      : 0x%04x\n",i,results[i].crcstate);
ee007c80:	05010993          	addi	s3,sp,80
ee007c84:	30c1                	jal	ee007544 <whisperPrintf>

ee007c86 <.LVL2970>:
                for (i=0 ; i<default_num_contexts; i++)
ee007c86:	010d9693          	slli	a3,s11,0x10
ee007c8a:	0106da93          	srli	s5,a3,0x10
                        ee_printf("[%d]crcstate      : 0x%04x\n",i,results[i].crcstate);
ee007c8e:	004a9613          	slli	a2,s5,0x4
                for (i=0 ; i<default_num_contexts; i++)
ee007c92:	0e8cac03          	lw	s8,232(s9)
                        ee_printf("[%d]crcstate      : 0x%04x\n",i,results[i].crcstate);
ee007c96:	01560733          	add	a4,a2,s5
ee007c9a:	00271b93          	slli	s7,a4,0x2
ee007c9e:	3e448513          	addi	a0,s1,996
ee007ca2:	01798833          	add	a6,s3,s7
ee007ca6:	85d6                	mv	a1,s5
                for (i=0 ; i<default_num_contexts; i++)
ee007ca8:	e78af1e3          	bgeu	s5,s8,ee007b0a <.L3281>
                        ee_printf("[%d]crcstate      : 0x%04x\n",i,results[i].crcstate);
ee007cac:	ffa85603          	lhu	a2,-6(a6)
ee007cb0:	3851                	jal	ee007544 <whisperPrintf>

ee007cb2 <.LVL2971>:
                for (i=0 ; i<default_num_contexts; i++)
ee007cb2:	001a8e93          	addi	t4,s5,1
ee007cb6:	010e9e13          	slli	t3,t4,0x10
ee007cba:	010e5413          	srli	s0,t3,0x10
                        ee_printf("[%d]crcstate      : 0x%04x\n",i,results[i].crcstate);
ee007cbe:	00441793          	slli	a5,s0,0x4
                for (i=0 ; i<default_num_contexts; i++)
ee007cc2:	0e8ca883          	lw	a7,232(s9)
                        ee_printf("[%d]crcstate      : 0x%04x\n",i,results[i].crcstate);
ee007cc6:	00878fb3          	add	t6,a5,s0
ee007cca:	002f9f13          	slli	t5,t6,0x2
ee007cce:	05010293          	addi	t0,sp,80
ee007cd2:	3e448513          	addi	a0,s1,996
ee007cd6:	01e28d33          	add	s10,t0,t5
ee007cda:	85a2                	mv	a1,s0
                for (i=0 ; i<default_num_contexts; i++)
ee007cdc:	e31477e3          	bgeu	s0,a7,ee007b0a <.L3281>
                        ee_printf("[%d]crcstate      : 0x%04x\n",i,results[i].crcstate);
ee007ce0:	ffad5603          	lhu	a2,-6(s10)
ee007ce4:	861ff0ef          	jal	ra,ee007544 <whisperPrintf>

ee007ce8 <.LVL2972>:
                for (i=0 ; i<default_num_contexts; i++)
ee007ce8:	00140313          	addi	t1,s0,1

ee007cec <.LVL2973>:
ee007cec:	0e8ca503          	lw	a0,232(s9)
ee007cf0:	01031393          	slli	t2,t1,0x10
ee007cf4:	0103db13          	srli	s6,t2,0x10
ee007cf8:	f2ab6ae3          	bltu	s6,a0,ee007c2c <.L3286>
ee007cfc:	b539                	j	ee007b0a <.L3281>

ee007cfe <.L3272>:
                ee_printf("Iterat/Sec/MHz   : %d.%d\n",1000*default_num_contexts*results[0].iterations/time_in_secs(total_time),
ee007cfe:	0e8ca083          	lw	ra,232(s9)
ee007d02:	5722                	lw	a4,40(sp)
                             100000*default_num_contexts*results[0].iterations/time_in_secs(total_time) % 100);
ee007d04:	68e1                	lui	a7,0x18
ee007d06:	6a088493          	addi	s1,a7,1696 # 186a0 <.LLST534+0xb051>
                ee_printf("Iterat/Sec/MHz   : %d.%d\n",1000*default_num_contexts*results[0].iterations/time_in_secs(total_time),
ee007d0a:	02170633          	mul	a2,a4,ra
ee007d0e:	06400f93          	li	t6,100
ee007d12:	f0040837          	lui	a6,0xf0040
ee007d16:	2fc80513          	addi	a0,a6,764 # f00402fc <STACK+0xffff7d4c>
                             100000*default_num_contexts*results[0].iterations/time_in_secs(total_time) % 100);
ee007d1a:	029607b3          	mul	a5,a2,s1
ee007d1e:	03b7deb3          	divu	t4,a5,s11
                ee_printf("Iterat/Sec/MHz   : %d.%d\n",1000*default_num_contexts*results[0].iterations/time_in_secs(total_time),
ee007d22:	03860e33          	mul	t3,a2,s8
ee007d26:	03fef633          	remu	a2,t4,t6
ee007d2a:	03be55b3          	divu	a1,t3,s11
ee007d2e:	817ff0ef          	jal	ra,ee007544 <whisperPrintf>

ee007d32 <.LVL2976>:
        if (time_in_secs(total_time) < 10) {
ee007d32:	6f09                	lui	t5,0x2
ee007d34:	70ff0293          	addi	t0,t5,1807 # 270f <.LLST278+0x71>
ee007d38:	bb72e5e3          	bltu	t0,s7,ee0078e2 <.L3273>
ee007d3c:	be49                	j	ee0078ce <.L3274>

ee007d3e <.L3451>:
                   crc |= 0x8000;
ee007d3e:	79e9                	lui	s3,0xffffa
ee007d40:	4905                	li	s2,1
ee007d42:	f0041a37          	lui	s4,0xf0041
ee007d46:	f0041ab7          	lui	s5,0xf0041
ee007d4a:	00c10c13          	addi	s8,sp,12
ee007d4e:	00198b93          	addi	s7,s3,1 # ffffa001 <STACK+0xffb1a51>

ee007d52 <.LBE1574>:
                while (secs_passed < (secs_ret)1) {
ee007d52:	3e700b13          	li	s6,999

ee007d56 <.L3219>:
                        results[0].iterations*=10;
ee007d56:	00291c93          	slli	s9,s2,0x2
ee007d5a:	9966                	add	s2,s2,s9
ee007d5c:	0906                	slli	s2,s2,0x1
ee007d5e:	d44a                	sw	s2,40(sp)

ee007d60 <.LBB1598>:
        asm volatile ("csrr %0,mcycle"  : "=r" (mcyclel) );
ee007d60:	b0002d73          	csrr	s10,mcycle

ee007d64 <.LVL2979>:
        start_time_val = mcyclel;
ee007d64:	d9aa2023          	sw	s10,-640(s4) # f0040d80 <STACK+0xffff87d0>

ee007d68 <.LBB1600>:
        res->crc=0;
ee007d68:	c282                	sw	zero,68(sp)
ee007d6a:	c482                	sw	zero,72(sp)

ee007d6c <.LVL2981>:
        for (i=0; i<iterations; i++) {
ee007d6c:	4401                	li	s0,0
ee007d6e:	40090a63          	beqz	s2,ee008182 <.L3257>

ee007d72 <.L3218>:
                crc=core_bench_list(res,1);
ee007d72:	4585                	li	a1,1
ee007d74:	8562                	mv	a0,s8
ee007d76:	e1efd0ef          	jal	ra,ee005394 <core_bench_list>

ee007d7a <.LVL2983>:
                res->crc=crcu16(crc,res->crc);
ee007d7a:	04415d83          	lhu	s11,68(sp)

ee007d7e <.LBB1587>:
        crc=crcu8( (ee_u8) (newval)                             ,crc);
ee007d7e:	0ff57e13          	andi	t3,a0,255

ee007d82 <.LBB1581>:
                data >>= 1;
ee007d82:	001e5f93          	srli	t6,t3,0x1

ee007d86 <.LVL2986>:
                x16 = (ee_u8)((data & 1) ^ ((ee_u8)crc & 1));
ee007d86:	00adceb3          	xor	t4,s11,a0
                if (x16 == 1)
ee007d8a:	001eff13          	andi	t5,t4,1
                crc >>= 1;
ee007d8e:	001dd313          	srli	t1,s11,0x1
                if (x16 == 1)
ee007d92:	000f0863          	beqz	t5,ee007da2 <.L3222>

ee007d96 <.LVL2987>:
                   crc |= 0x8000;
ee007d96:	017340b3          	xor	ra,t1,s7
ee007d9a:	01009293          	slli	t0,ra,0x10
ee007d9e:	0102d313          	srli	t1,t0,0x10

ee007da2 <.L3222>:
                x16 = (ee_u8)((data & 1) ^ ((ee_u8)crc & 1));
ee007da2:	01f345b3          	xor	a1,t1,t6
                if (x16 == 1)
ee007da6:	0015f693          	andi	a3,a1,1
                data >>= 1;
ee007daa:	002e5393          	srli	t2,t3,0x2

ee007dae <.LVL2989>:
                if (x16 == 1)
ee007dae:	00135493          	srli	s1,t1,0x1
ee007db2:	c699                	beqz	a3,ee007dc0 <.L3223>

ee007db4 <.LVL2990>:
                   crc |= 0x8000;
ee007db4:	0174c733          	xor	a4,s1,s7

ee007db8 <.LVL2991>:
ee007db8:	01071793          	slli	a5,a4,0x10
ee007dbc:	0107d493          	srli	s1,a5,0x10

ee007dc0 <.L3223>:
                x16 = (ee_u8)((data & 1) ^ ((ee_u8)crc & 1));
ee007dc0:	0074c633          	xor	a2,s1,t2
                if (x16 == 1)
ee007dc4:	00167813          	andi	a6,a2,1
                data >>= 1;
ee007dc8:	003e5893          	srli	a7,t3,0x3

ee007dcc <.LVL2993>:
                if (x16 == 1)
ee007dcc:	0014dd93          	srli	s11,s1,0x1

ee007dd0 <.LVL2994>:
ee007dd0:	00080863          	beqz	a6,ee007de0 <.L3224>

ee007dd4 <.LVL2995>:
                   crc |= 0x8000;
ee007dd4:	017dc9b3          	xor	s3,s11,s7

ee007dd8 <.LVL2996>:
ee007dd8:	01099c93          	slli	s9,s3,0x10
ee007ddc:	010cdd93          	srli	s11,s9,0x10

ee007de0 <.L3224>:
                x16 = (ee_u8)((data & 1) ^ ((ee_u8)crc & 1));
ee007de0:	011dceb3          	xor	t4,s11,a7
                if (x16 == 1)
ee007de4:	001eff13          	andi	t5,t4,1
                data >>= 1;
ee007de8:	004e5f93          	srli	t6,t3,0x4

ee007dec <.LVL2998>:
                if (x16 == 1)
ee007dec:	001dd313          	srli	t1,s11,0x1
ee007df0:	000f0863          	beqz	t5,ee007e00 <.L3225>

ee007df4 <.LVL2999>:
                   crc |= 0x8000;
ee007df4:	017340b3          	xor	ra,t1,s7

ee007df8 <.LVL3000>:
ee007df8:	01009293          	slli	t0,ra,0x10
ee007dfc:	0102d313          	srli	t1,t0,0x10

ee007e00 <.L3225>:
                x16 = (ee_u8)((data & 1) ^ ((ee_u8)crc & 1));
ee007e00:	01f345b3          	xor	a1,t1,t6
                if (x16 == 1)
ee007e04:	0015f693          	andi	a3,a1,1
                data >>= 1;
ee007e08:	005e5393          	srli	t2,t3,0x5

ee007e0c <.LVL3002>:
                if (x16 == 1)
ee007e0c:	00135493          	srli	s1,t1,0x1
ee007e10:	c699                	beqz	a3,ee007e1e <.L3226>

ee007e12 <.LVL3003>:
                   crc |= 0x8000;
ee007e12:	0174c733          	xor	a4,s1,s7

ee007e16 <.LVL3004>:
ee007e16:	01071793          	slli	a5,a4,0x10
ee007e1a:	0107d493          	srli	s1,a5,0x10

ee007e1e <.L3226>:
                x16 = (ee_u8)((data & 1) ^ ((ee_u8)crc & 1));
ee007e1e:	0074c633          	xor	a2,s1,t2
                if (x16 == 1)
ee007e22:	00167813          	andi	a6,a2,1
                data >>= 1;
ee007e26:	006e5893          	srli	a7,t3,0x6

ee007e2a <.LVL3006>:
                if (x16 == 1)
ee007e2a:	0014dd93          	srli	s11,s1,0x1
ee007e2e:	00080863          	beqz	a6,ee007e3e <.L3227>

ee007e32 <.LVL3007>:
                   crc |= 0x8000;
ee007e32:	017dc9b3          	xor	s3,s11,s7

ee007e36 <.LVL3008>:
ee007e36:	01099c93          	slli	s9,s3,0x10
ee007e3a:	010cdd93          	srli	s11,s9,0x10

ee007e3e <.L3227>:
                x16 = (ee_u8)((data & 1) ^ ((ee_u8)crc & 1));
ee007e3e:	011dceb3          	xor	t4,s11,a7
                if (x16 == 1)
ee007e42:	001eff13          	andi	t5,t4,1
                data >>= 1;
ee007e46:	007e5e13          	srli	t3,t3,0x7

ee007e4a <.LVL3010>:
                if (x16 == 1)
ee007e4a:	001dd293          	srli	t0,s11,0x1
ee007e4e:	000f0863          	beqz	t5,ee007e5e <.L3228>

ee007e52 <.LVL3011>:
                   crc |= 0x8000;
ee007e52:	0172cfb3          	xor	t6,t0,s7

ee007e56 <.LVL3012>:
ee007e56:	010f9093          	slli	ra,t6,0x10
ee007e5a:	0100d293          	srli	t0,ra,0x10

ee007e5e <.L3228>:
                if (x16 == 1)
ee007e5e:	0012f313          	andi	t1,t0,1
ee007e62:	0012d393          	srli	t2,t0,0x1
ee007e66:	01c30863          	beq	t1,t3,ee007e76 <.L3229>

ee007e6a <.LVL3014>:
                   crc |= 0x8000;
ee007e6a:	0173c5b3          	xor	a1,t2,s7

ee007e6e <.LVL3015>:
ee007e6e:	01059693          	slli	a3,a1,0x10
ee007e72:	0106d393          	srli	t2,a3,0x10

ee007e76 <.L3229>:
        crc=crcu8( (ee_u8) ((newval)>>8)        ,crc);
ee007e76:	8121                	srli	a0,a0,0x8

ee007e78 <.LBB1582>:
                x16 = (ee_u8)((data & 1) ^ ((ee_u8)crc & 1));
ee007e78:	007547b3          	xor	a5,a0,t2

ee007e7c <.LBE1582>:
        crc=crcu8( (ee_u8) ((newval)>>8)        ,crc);
ee007e7c:	0ff57713          	andi	a4,a0,255

ee007e80 <.LBB1585>:
                if (x16 == 1)
ee007e80:	0017f493          	andi	s1,a5,1
                data >>= 1;
ee007e84:	00175613          	srli	a2,a4,0x1

ee007e88 <.LVL3019>:
                if (x16 == 1)
ee007e88:	0013d993          	srli	s3,t2,0x1
ee007e8c:	c499                	beqz	s1,ee007e9a <.L3230>

ee007e8e <.LVL3020>:
                   crc |= 0x8000;
ee007e8e:	0179c833          	xor	a6,s3,s7

ee007e92 <.LVL3021>:
ee007e92:	01081893          	slli	a7,a6,0x10
ee007e96:	0108d993          	srli	s3,a7,0x10

ee007e9a <.L3230>:
                x16 = (ee_u8)((data & 1) ^ ((ee_u8)crc & 1));
ee007e9a:	00c9ccb3          	xor	s9,s3,a2
                if (x16 == 1)
ee007e9e:	001cfd93          	andi	s11,s9,1
                data >>= 1;
ee007ea2:	00275e93          	srli	t4,a4,0x2

ee007ea6 <.LVL3023>:
                if (x16 == 1)
ee007ea6:	0019df93          	srli	t6,s3,0x1
ee007eaa:	000d8863          	beqz	s11,ee007eba <.L3231>

ee007eae <.LVL3024>:
                   crc |= 0x8000;
ee007eae:	017fcf33          	xor	t5,t6,s7

ee007eb2 <.LVL3025>:
ee007eb2:	010f1e13          	slli	t3,t5,0x10
ee007eb6:	010e5f93          	srli	t6,t3,0x10

ee007eba <.L3231>:
                x16 = (ee_u8)((data & 1) ^ ((ee_u8)crc & 1));
ee007eba:	01dfc0b3          	xor	ra,t6,t4
                if (x16 == 1)
ee007ebe:	0010f293          	andi	t0,ra,1
                data >>= 1;
ee007ec2:	00375313          	srli	t1,a4,0x3

ee007ec6 <.LVL3027>:
                if (x16 == 1)
ee007ec6:	001fd393          	srli	t2,t6,0x1
ee007eca:	00028863          	beqz	t0,ee007eda <.L3232>

ee007ece <.LVL3028>:
                   crc |= 0x8000;
ee007ece:	0173c5b3          	xor	a1,t2,s7

ee007ed2 <.LVL3029>:
ee007ed2:	01059693          	slli	a3,a1,0x10
ee007ed6:	0106d393          	srli	t2,a3,0x10

ee007eda <.L3232>:
                x16 = (ee_u8)((data & 1) ^ ((ee_u8)crc & 1));
ee007eda:	0063c533          	xor	a0,t2,t1
                if (x16 == 1)
ee007ede:	00157493          	andi	s1,a0,1
                data >>= 1;
ee007ee2:	00475613          	srli	a2,a4,0x4

ee007ee6 <.LVL3031>:
                if (x16 == 1)
ee007ee6:	0013d893          	srli	a7,t2,0x1
ee007eea:	c499                	beqz	s1,ee007ef8 <.L3233>

ee007eec <.LVL3032>:
                   crc |= 0x8000;
ee007eec:	0178c7b3          	xor	a5,a7,s7

ee007ef0 <.LVL3033>:
ee007ef0:	01079813          	slli	a6,a5,0x10
ee007ef4:	01085893          	srli	a7,a6,0x10

ee007ef8 <.L3233>:
                x16 = (ee_u8)((data & 1) ^ ((ee_u8)crc & 1));
ee007ef8:	00c8c9b3          	xor	s3,a7,a2
                if (x16 == 1)
ee007efc:	0019fc93          	andi	s9,s3,1
                data >>= 1;
ee007f00:	00575d93          	srli	s11,a4,0x5

ee007f04 <.LVL3035>:
                if (x16 == 1)
ee007f04:	0018de13          	srli	t3,a7,0x1
ee007f08:	000c8863          	beqz	s9,ee007f18 <.L3234>

ee007f0c <.LVL3036>:
                   crc |= 0x8000;
ee007f0c:	017e4eb3          	xor	t4,t3,s7

ee007f10 <.LVL3037>:
ee007f10:	010e9f13          	slli	t5,t4,0x10
ee007f14:	010f5e13          	srli	t3,t5,0x10

ee007f18 <.L3234>:
                x16 = (ee_u8)((data & 1) ^ ((ee_u8)crc & 1));
ee007f18:	01be4fb3          	xor	t6,t3,s11
                if (x16 == 1)
ee007f1c:	001ff093          	andi	ra,t6,1
                data >>= 1;
ee007f20:	00675293          	srli	t0,a4,0x6

ee007f24 <.LVL3039>:
                if (x16 == 1)
ee007f24:	001e5393          	srli	t2,t3,0x1
ee007f28:	00008863          	beqz	ra,ee007f38 <.L3235>

ee007f2c <.LVL3040>:
                   crc |= 0x8000;
ee007f2c:	0173c333          	xor	t1,t2,s7

ee007f30 <.LVL3041>:
ee007f30:	01031593          	slli	a1,t1,0x10
ee007f34:	0105d393          	srli	t2,a1,0x10

ee007f38 <.L3235>:
                x16 = (ee_u8)((data & 1) ^ ((ee_u8)crc & 1));
ee007f38:	0053c6b3          	xor	a3,t2,t0
                if (x16 == 1)
ee007f3c:	0016f513          	andi	a0,a3,1
                data >>= 1;
ee007f40:	831d                	srli	a4,a4,0x7

ee007f42 <.LVL3043>:
                if (x16 == 1)
ee007f42:	0013d793          	srli	a5,t2,0x1
ee007f46:	c519                	beqz	a0,ee007f54 <.L3236>

ee007f48 <.LVL3044>:
                   crc |= 0x8000;
ee007f48:	0177c4b3          	xor	s1,a5,s7

ee007f4c <.LVL3045>:
ee007f4c:	01049613          	slli	a2,s1,0x10
ee007f50:	01065793          	srli	a5,a2,0x10

ee007f54 <.L3236>:
                x16 = (ee_u8)((data & 1) ^ ((ee_u8)crc & 1));
ee007f54:	00e7c833          	xor	a6,a5,a4
                if (x16 == 1)
ee007f58:	00187893          	andi	a7,a6,1
ee007f5c:	0017dd93          	srli	s11,a5,0x1
ee007f60:	00088863          	beqz	a7,ee007f70 <.L3237>

ee007f64 <.LVL3047>:
                   crc |= 0x8000;
ee007f64:	017dc9b3          	xor	s3,s11,s7
ee007f68:	01099c93          	slli	s9,s3,0x10
ee007f6c:	010cdd93          	srli	s11,s9,0x10

ee007f70 <.L3237>:
                crc=core_bench_list(res,-1);
ee007f70:	55fd                	li	a1,-1
ee007f72:	8562                	mv	a0,s8
                res->crc=crcu16(crc,res->crc);
ee007f74:	05b11223          	sh	s11,68(sp)
                crc=core_bench_list(res,-1);
ee007f78:	c1cfd0ef          	jal	ra,ee005394 <core_bench_list>

ee007f7c <.LVL3049>:
                res->crc=crcu16(crc,res->crc);
ee007f7c:	04415e83          	lhu	t4,68(sp)

ee007f80 <.LBB1588>:
        crc=crcu8( (ee_u8) (newval)                             ,crc);
ee007f80:	0ff57f13          	andi	t5,a0,255

ee007f84 <.LBB1590>:
                data >>= 1;
ee007f84:	001f5293          	srli	t0,t5,0x1

ee007f88 <.LVL3052>:
                x16 = (ee_u8)((data & 1) ^ ((ee_u8)crc & 1));
ee007f88:	00aece33          	xor	t3,t4,a0
                if (x16 == 1)
ee007f8c:	001e7f93          	andi	t6,t3,1
                crc >>= 1;
ee007f90:	001ed593          	srli	a1,t4,0x1
                if (x16 == 1)
ee007f94:	000f8863          	beqz	t6,ee007fa4 <.L3239>

ee007f98 <.LVL3053>:
                   crc |= 0x8000;
ee007f98:	0175c0b3          	xor	ra,a1,s7
ee007f9c:	01009313          	slli	t1,ra,0x10
ee007fa0:	01035593          	srli	a1,t1,0x10

ee007fa4 <.L3239>:
                x16 = (ee_u8)((data & 1) ^ ((ee_u8)crc & 1));
ee007fa4:	0055c3b3          	xor	t2,a1,t0
                if (x16 == 1)
ee007fa8:	0013f693          	andi	a3,t2,1
                data >>= 1;
ee007fac:	002f5713          	srli	a4,t5,0x2

ee007fb0 <.LVL3055>:
                if (x16 == 1)
ee007fb0:	0015d793          	srli	a5,a1,0x1
ee007fb4:	c699                	beqz	a3,ee007fc2 <.L3240>

ee007fb6 <.LVL3056>:
                   crc |= 0x8000;
ee007fb6:	0177c4b3          	xor	s1,a5,s7

ee007fba <.LVL3057>:
ee007fba:	01049613          	slli	a2,s1,0x10
ee007fbe:	01065793          	srli	a5,a2,0x10

ee007fc2 <.L3240>:
                x16 = (ee_u8)((data & 1) ^ ((ee_u8)crc & 1));
ee007fc2:	00e7c833          	xor	a6,a5,a4
                if (x16 == 1)
ee007fc6:	00187893          	andi	a7,a6,1
                data >>= 1;
ee007fca:	003f5993          	srli	s3,t5,0x3

ee007fce <.LVL3059>:
                if (x16 == 1)
ee007fce:	0017de93          	srli	t4,a5,0x1

ee007fd2 <.LVL3060>:
ee007fd2:	00088863          	beqz	a7,ee007fe2 <.L3241>

ee007fd6 <.LVL3061>:
                   crc |= 0x8000;
ee007fd6:	017eccb3          	xor	s9,t4,s7

ee007fda <.LVL3062>:
ee007fda:	010c9d93          	slli	s11,s9,0x10
ee007fde:	010dde93          	srli	t4,s11,0x10

ee007fe2 <.L3241>:
                x16 = (ee_u8)((data & 1) ^ ((ee_u8)crc & 1));
ee007fe2:	013ece33          	xor	t3,t4,s3
                if (x16 == 1)
ee007fe6:	001e7f93          	andi	t6,t3,1
                data >>= 1;
ee007fea:	004f5293          	srli	t0,t5,0x4

ee007fee <.LVL3064>:
                if (x16 == 1)
ee007fee:	001ed593          	srli	a1,t4,0x1
ee007ff2:	000f8863          	beqz	t6,ee008002 <.L3242>

ee007ff6 <.LVL3065>:
                   crc |= 0x8000;
ee007ff6:	0175c0b3          	xor	ra,a1,s7

ee007ffa <.LVL3066>:
ee007ffa:	01009313          	slli	t1,ra,0x10
ee007ffe:	01035593          	srli	a1,t1,0x10

ee008002 <.L3242>:
                x16 = (ee_u8)((data & 1) ^ ((ee_u8)crc & 1));
ee008002:	0055c3b3          	xor	t2,a1,t0
                if (x16 == 1)
ee008006:	0013f693          	andi	a3,t2,1
                data >>= 1;
ee00800a:	005f5713          	srli	a4,t5,0x5

ee00800e <.LVL3068>:
                if (x16 == 1)
ee00800e:	0015d793          	srli	a5,a1,0x1
ee008012:	c699                	beqz	a3,ee008020 <.L3243>

ee008014 <.LVL3069>:
                   crc |= 0x8000;
ee008014:	0177c4b3          	xor	s1,a5,s7

ee008018 <.LVL3070>:
ee008018:	01049613          	slli	a2,s1,0x10
ee00801c:	01065793          	srli	a5,a2,0x10

ee008020 <.L3243>:
                x16 = (ee_u8)((data & 1) ^ ((ee_u8)crc & 1));
ee008020:	00e7c833          	xor	a6,a5,a4
                if (x16 == 1)
ee008024:	00187893          	andi	a7,a6,1
                data >>= 1;
ee008028:	006f5993          	srli	s3,t5,0x6

ee00802c <.LVL3072>:
                if (x16 == 1)
ee00802c:	0017de93          	srli	t4,a5,0x1
ee008030:	00088863          	beqz	a7,ee008040 <.L3244>

ee008034 <.LVL3073>:
                   crc |= 0x8000;
ee008034:	017eccb3          	xor	s9,t4,s7

ee008038 <.LVL3074>:
ee008038:	010c9d93          	slli	s11,s9,0x10
ee00803c:	010dde93          	srli	t4,s11,0x10

ee008040 <.L3244>:
                x16 = (ee_u8)((data & 1) ^ ((ee_u8)crc & 1));
ee008040:	013ece33          	xor	t3,t4,s3
                if (x16 == 1)
ee008044:	001e7f93          	andi	t6,t3,1
                data >>= 1;
ee008048:	007f5f13          	srli	t5,t5,0x7

ee00804c <.LVL3076>:
                if (x16 == 1)
ee00804c:	001ed313          	srli	t1,t4,0x1
ee008050:	000f8863          	beqz	t6,ee008060 <.L3245>

ee008054 <.LVL3077>:
                   crc |= 0x8000;
ee008054:	017342b3          	xor	t0,t1,s7

ee008058 <.LVL3078>:
ee008058:	01029093          	slli	ra,t0,0x10
ee00805c:	0100d313          	srli	t1,ra,0x10

ee008060 <.L3245>:
                if (x16 == 1)
ee008060:	00137593          	andi	a1,t1,1
ee008064:	00135493          	srli	s1,t1,0x1
ee008068:	01e58863          	beq	a1,t5,ee008078 <.L3246>

ee00806c <.LVL3080>:
                   crc |= 0x8000;
ee00806c:	0174c3b3          	xor	t2,s1,s7

ee008070 <.LVL3081>:
ee008070:	01039693          	slli	a3,t2,0x10
ee008074:	0106d493          	srli	s1,a3,0x10

ee008078 <.L3246>:
        crc=crcu8( (ee_u8) ((newval)>>8)        ,crc);
ee008078:	8121                	srli	a0,a0,0x8

ee00807a <.LBB1592>:
                x16 = (ee_u8)((data & 1) ^ ((ee_u8)crc & 1));
ee00807a:	00954633          	xor	a2,a0,s1

ee00807e <.LBE1592>:
        crc=crcu8( (ee_u8) ((newval)>>8)        ,crc);
ee00807e:	0ff57713          	andi	a4,a0,255

ee008082 <.LBB1595>:
                if (x16 == 1)
ee008082:	00167813          	andi	a6,a2,1
                data >>= 1;
ee008086:	00175893          	srli	a7,a4,0x1

ee00808a <.LVL3085>:
                if (x16 == 1)
ee00808a:	0014dc93          	srli	s9,s1,0x1
ee00808e:	00080863          	beqz	a6,ee00809e <.L3247>

ee008092 <.LVL3086>:
                   crc |= 0x8000;
ee008092:	017cc7b3          	xor	a5,s9,s7

ee008096 <.LVL3087>:
ee008096:	01079993          	slli	s3,a5,0x10
ee00809a:	0109dc93          	srli	s9,s3,0x10

ee00809e <.L3247>:
                x16 = (ee_u8)((data & 1) ^ ((ee_u8)crc & 1));
ee00809e:	011ccdb3          	xor	s11,s9,a7
                if (x16 == 1)
ee0080a2:	001dfe93          	andi	t4,s11,1
                data >>= 1;
ee0080a6:	00275e13          	srli	t3,a4,0x2

ee0080aa <.LVL3089>:
                if (x16 == 1)
ee0080aa:	001cd293          	srli	t0,s9,0x1
ee0080ae:	000e8863          	beqz	t4,ee0080be <.L3248>

ee0080b2 <.LVL3090>:
                   crc |= 0x8000;
ee0080b2:	0172cfb3          	xor	t6,t0,s7

ee0080b6 <.LVL3091>:
ee0080b6:	010f9f13          	slli	t5,t6,0x10
ee0080ba:	010f5293          	srli	t0,t5,0x10

ee0080be <.L3248>:
                x16 = (ee_u8)((data & 1) ^ ((ee_u8)crc & 1));
ee0080be:	01c2c0b3          	xor	ra,t0,t3
                if (x16 == 1)
ee0080c2:	0010f313          	andi	t1,ra,1
                data >>= 1;
ee0080c6:	00375593          	srli	a1,a4,0x3

ee0080ca <.LVL3093>:
                if (x16 == 1)
ee0080ca:	0012d493          	srli	s1,t0,0x1
ee0080ce:	00030863          	beqz	t1,ee0080de <.L3249>

ee0080d2 <.LVL3094>:
                   crc |= 0x8000;
ee0080d2:	0174c3b3          	xor	t2,s1,s7

ee0080d6 <.LVL3095>:
ee0080d6:	01039693          	slli	a3,t2,0x10
ee0080da:	0106d493          	srli	s1,a3,0x10

ee0080de <.L3249>:
                x16 = (ee_u8)((data & 1) ^ ((ee_u8)crc & 1));
ee0080de:	00b4c533          	xor	a0,s1,a1
                if (x16 == 1)
ee0080e2:	00157613          	andi	a2,a0,1
                data >>= 1;
ee0080e6:	00475813          	srli	a6,a4,0x4

ee0080ea <.LVL3097>:
                if (x16 == 1)
ee0080ea:	0014d993          	srli	s3,s1,0x1
ee0080ee:	c619                	beqz	a2,ee0080fc <.L3250>

ee0080f0 <.LVL3098>:
                   crc |= 0x8000;
ee0080f0:	0179c8b3          	xor	a7,s3,s7

ee0080f4 <.LVL3099>:
ee0080f4:	01089793          	slli	a5,a7,0x10
ee0080f8:	0107d993          	srli	s3,a5,0x10

ee0080fc <.L3250>:
                x16 = (ee_u8)((data & 1) ^ ((ee_u8)crc & 1));
ee0080fc:	0109ccb3          	xor	s9,s3,a6
                if (x16 == 1)
ee008100:	001cfd93          	andi	s11,s9,1
                data >>= 1;
ee008104:	00575e93          	srli	t4,a4,0x5

ee008108 <.LVL3101>:
                if (x16 == 1)
ee008108:	0019df13          	srli	t5,s3,0x1
ee00810c:	000d8863          	beqz	s11,ee00811c <.L3251>

ee008110 <.LVL3102>:
                   crc |= 0x8000;
ee008110:	017f4e33          	xor	t3,t5,s7

ee008114 <.LVL3103>:
ee008114:	010e1f93          	slli	t6,t3,0x10
ee008118:	010fdf13          	srli	t5,t6,0x10

ee00811c <.L3251>:
                x16 = (ee_u8)((data & 1) ^ ((ee_u8)crc & 1));
ee00811c:	01df42b3          	xor	t0,t5,t4
                if (x16 == 1)
ee008120:	0012f093          	andi	ra,t0,1
                data >>= 1;
ee008124:	00675313          	srli	t1,a4,0x6

ee008128 <.LVL3105>:
                if (x16 == 1)
ee008128:	001f5493          	srli	s1,t5,0x1
ee00812c:	00008863          	beqz	ra,ee00813c <.L3252>

ee008130 <.LVL3106>:
                   crc |= 0x8000;
ee008130:	0174c5b3          	xor	a1,s1,s7

ee008134 <.LVL3107>:
ee008134:	01059393          	slli	t2,a1,0x10
ee008138:	0103d493          	srli	s1,t2,0x10

ee00813c <.L3252>:
                x16 = (ee_u8)((data & 1) ^ ((ee_u8)crc & 1));
ee00813c:	0064c6b3          	xor	a3,s1,t1
                if (x16 == 1)
ee008140:	0016f513          	andi	a0,a3,1
                data >>= 1;
ee008144:	831d                	srli	a4,a4,0x7

ee008146 <.LVL3109>:
                if (x16 == 1)
ee008146:	0014d893          	srli	a7,s1,0x1
ee00814a:	c519                	beqz	a0,ee008158 <.L3253>

ee00814c <.LVL3110>:
                   crc |= 0x8000;
ee00814c:	0178c633          	xor	a2,a7,s7

ee008150 <.LVL3111>:
ee008150:	01061813          	slli	a6,a2,0x10
ee008154:	01085893          	srli	a7,a6,0x10

ee008158 <.L3253>:
                x16 = (ee_u8)((data & 1) ^ ((ee_u8)crc & 1));
ee008158:	00e8c7b3          	xor	a5,a7,a4
                if (x16 == 1)
ee00815c:	0017f993          	andi	s3,a5,1
ee008160:	0018de93          	srli	t4,a7,0x1
ee008164:	00098863          	beqz	s3,ee008174 <.L3254>

ee008168 <.LVL3113>:
                   crc |= 0x8000;
ee008168:	017eccb3          	xor	s9,t4,s7
ee00816c:	010c9d93          	slli	s11,s9,0x10
ee008170:	010dde93          	srli	t4,s11,0x10

ee008174 <.L3254>:
                res->crc=crcu16(crc,res->crc);
ee008174:	05d11223          	sh	t4,68(sp)
                if (i==0) res->crclist=res->crc;
ee008178:	c81d                	beqz	s0,ee0081ae <.L3468>
        for (i=0; i<iterations; i++) {
ee00817a:	0405                	addi	s0,s0,1
ee00817c:	be891be3          	bne	s2,s0,ee007d72 <.L3218>
ee008180:	5922                	lw	s2,40(sp)

ee008182 <.L3257>:
        asm volatile ("csrr %0,mcycle"  : "=r" (mcyclel) );
ee008182:	b0002e73          	csrr	t3,mcycle

ee008186 <.LVL3117>:
        stop_time_val = mcyclel;
ee008186:	d7caae23          	sw	t3,-644(s5) # f0040d7c <STACK+0xffff87cc>

ee00818a <.LBB1603>:
        CORE_TICKS elapsed=(CORE_TICKS)(MYTIMEDIFF(stop_time_val, start_time_val));
ee00818a:	41ae0d33          	sub	s10,t3,s10

ee00818e <.LBB1605>:
                while (secs_passed < (secs_ret)1) {
ee00818e:	bdab74e3          	bgeu	s6,s10,ee007d56 <.L3219>

ee008192 <.LBB1608>:
        secs_ret retval=((secs_ret)ticks) / (secs_ret)EE_TICKS_PER_SEC;
ee008192:	3e800b93          	li	s7,1000
ee008196:	037d5b33          	divu	s6,s10,s7

ee00819a <.LBE1608>:
                results[0].iterations*=1+10/divisor;
ee00819a:	4fa9                	li	t6,10
ee00819c:	036fdf33          	divu	t5,t6,s6
ee0081a0:	001f0293          	addi	t0,t5,1
ee0081a4:	025900b3          	mul	ra,s2,t0
ee0081a8:	d406                	sw	ra,40(sp)
ee0081aa:	cecff06f          	j	ee007696 <.L3217>

ee0081ae <.L3468>:
                if (i==0) res->crclist=res->crc;
ee0081ae:	05d11323          	sh	t4,70(sp)

ee0081b2 <.LVL3123>:
        for (i=0; i<iterations; i++) {
ee0081b2:	4405                	li	s0,1
ee0081b4:	be7d                	j	ee007d72 <.L3218>

ee0081b6 <.L3462>:
                                results[ctx].memblock[i+1]=(char *)(results[ctx].memblock[0])+results[0].size*j;
ee0081b6:	02ae03b3          	mul	t2,t3,a0
ee0081ba:	00728433          	add	s0,t0,t2
ee0081be:	d022                	sw	s0,32(sp)

ee0081c0 <.LBE1610>:
                if (results[i].execs & ID_LIST) {
ee0081c0:	ca030763          	beqz	t1,ee00766e <.L3214>
ee0081c4:	e50ff06f          	j	ee007814 <.L3463>

ee0081c8 <.L3461>:
                                results[ctx].memblock[i+1]=(char *)(results[ctx].memblock[0])+results[0].size*j;
ee0081c8:	02ac85b3          	mul	a1,s9,a0
ee0081cc:	00b286b3          	add	a3,t0,a1
ee0081d0:	ce36                	sw	a3,28(sp)

ee0081d2 <.LBB1612>:
                if ((1<<(ee_u32)i) & results[0].execs) {
ee0081d2:	c80d8c63          	beqz	s11,ee00766a <.L3213>
ee0081d6:	b7c5                	j	ee0081b6 <.L3462>

ee0081d8 <.L3460>:
                                results[ctx].memblock[i+1]=(char *)(results[ctx].memblock[0])+results[0].size*j;
ee0081d8:	cc16                	sw	t0,24(sp)

ee0081da <.LBB1613>:
                if ((1<<(ee_u32)i) & results[0].execs) {
ee0081da:	c8070663          	beqz	a4,ee007666 <.L3212>
ee0081de:	b7ed                	j	ee0081c8 <.L3461>

ee0081e0 <.L3290>:
                ee_printf("Cannot validate operation for these seed values, please compare with results on a known platform.\n");
ee0081e0:	f0040cb7          	lui	s9,0xf0040
ee0081e4:	47cc8513          	addi	a0,s9,1148 # f004047c <STACK+0xffff7ecc>
ee0081e8:	b5cff0ef          	jal	ra,ee007544 <whisperPrintf>

ee0081ec <.LVL3131>:
        return MAIN_RETURN_VAL;
ee0081ec:	b431                	j	ee007bf8 <.L3204>

ee0081ee <.L3207>:
        if ((results[0].seed1==1) && (results[0].seed2==0) && (results[0].seed3==0)) { /* perfromance run */
ee0081ee:	4985                	li	s3,1
ee0081f0:	c3391b63          	bne	s2,s3,ee007626 <.L3208>
ee0081f4:	c2081963          	bnez	a6,ee007626 <.L3208>
                results[0].seed1=0x3415;
ee0081f8:	34153a37          	lui	s4,0x34153
ee0081fc:	415a0a93          	addi	s5,s4,1045 # 34153415 <.LLST534+0x34145dc6>
                results[0].seed3=0x66;
ee008200:	06600b13          	li	s6,102
ee008204:	6b8d                	lui	s7,0x3
                results[0].seed1=0x3415;
ee008206:	c656                	sw	s5,12(sp)
                results[0].seed3=0x66;
ee008208:	01611823          	sh	s6,16(sp)
ee00820c:	415b8613          	addi	a2,s7,1045 # 3415 <.LLST90+0xad>
ee008210:	c16ff06f          	j	ee007626 <.L3208>

ee008214 <.L3467>:
                ee_printf("Correct operation validated. See readme.txt for run and reporting rules.\n");
ee008214:	f00400b7          	lui	ra,0xf0040
ee008218:	41c08513          	addi	a0,ra,1052 # f004041c <STACK+0xffff7e6c>
ee00821c:	b28ff0ef          	jal	ra,ee007544 <whisperPrintf>

ee008220 <.LVL3134>:
        if (total_errors<0)
ee008220:	bae1                	j	ee007bf8 <.L3204>

ee008222 <.L3258>:
                        ee_printf("6k validation run parameters for coremark.\n");
ee008222:	f00404b7          	lui	s1,0xf0040
ee008226:	12448513          	addi	a0,s1,292 # f0040124 <STACK+0xffff7b74>

ee00822a <.LVL3136>:
ee00822a:	b1aff0ef          	jal	ra,ee007544 <whisperPrintf>

ee00822e <.LVL3137>:
ee00822e:	6685                	lui	a3,0x1
ee008230:	19968b13          	addi	s6,a3,409 # 1199 <.LLST226+0x1>
ee008234:	6511                	lui	a0,0x4
ee008236:	670d                	lui	a4,0x3
ee008238:	9bf50993          	addi	s3,a0,-1601 # 39bf <.LLST107+0x54>
ee00823c:	8c5a                	mv	s8,s6
ee00823e:	34070a13          	addi	s4,a4,832 # 3340 <.LLST88+0x20>
ee008242:	ce0ff06f          	j	ee007722 <.L3265>

ee008246 <.L3260>:
                        ee_printf("2K validation run parameters for coremark.\n");
ee008246:	f0040fb7          	lui	t6,0xf0040
ee00824a:	1b4f8513          	addi	a0,t6,436 # f00401b4 <STACK+0xffff7c04>

ee00824e <.LVL3139>:
ee00824e:	af6ff0ef          	jal	ra,ee007544 <whisperPrintf>

ee008252 <.LVL3140>:
ee008252:	6f25                	lui	t5,0x9
ee008254:	62b9                	lui	t0,0xe
ee008256:	d84f0993          	addi	s3,t5,-636 # 8d84 <.LLST377+0x54>
ee00825a:	74700b13          	li	s6,1863
ee00825e:	74700c13          	li	s8,1863
ee008262:	3c128a13          	addi	s4,t0,961 # e3c1 <.LLST534+0xd72>
ee008266:	cbcff06f          	j	ee007722 <.L3265>

ee00826a <.L3263>:
                        ee_printf("6k performance run parameters for coremark.\n");
ee00826a:	f0040837          	lui	a6,0xf0040
ee00826e:	0f480513          	addi	a0,a6,244 # f00400f4 <STACK+0xffff7b44>

ee008272 <.LVL3142>:
ee008272:	ad2ff0ef          	jal	ra,ee007544 <whisperPrintf>

ee008276 <.LVL3143>:
ee008276:	68b1                	lui	a7,0xc
ee008278:	e5288b13          	addi	s6,a7,-430 # be52 <.LLST478+0x5a>
ee00827c:	6799                	lui	a5,0x6
ee00827e:	6cb5                	lui	s9,0xd
ee008280:	e4778993          	addi	s3,a5,-441 # 5e47 <.LLST13+0x3d>
ee008284:	8c5a                	mv	s8,s6
ee008286:	4b0c8a13          	addi	s4,s9,1200 # d4b0 <.LLST529+0x88>
ee00828a:	c98ff06f          	j	ee007722 <.L3265>

ee00828e <.L3453>:
ee00828e:	5c12                	lw	s8,36(sp)
                for (i=0 ; i<default_num_contexts; i++) {
ee008290:	4401                	li	s0,0
ee008292:	e08ff06f          	j	ee00789a <.L3262>

ee008296 <.L3459>:
        switch (seedcrc) { /* test known output for common seeds */
ee008296:	69c1                	lui	s3,0x10
ee008298:	fff98413          	addi	s0,s3,-1 # ffff <.LLST534+0x29b0>
ee00829c:	597d                	li	s2,-1
ee00829e:	f0040cb7          	lui	s9,0xf0040
ee0082a2:	df8ff06f          	j	ee00789a <.L3262>
