
cmark_dccm.exe:     file format elf32-littleriscv


Disassembly of section .text:

00000000 <_start>:
       0:	5f5552b7          	lui	t0,0x5f555
       4:	55528293          	addi	t0,t0,1365 # 5f555555 <.LLST534+0x5f547f06>
       8:	7c029073          	csrw	0x7c0,t0
       c:	f0048117          	auipc	sp,0xf0048
      10:	5a410113          	addi	sp,sp,1444 # f00485b0 <STACK+0x0>
      14:	5ca070ef          	jal	ra,75de <main>

00000018 <_finish>:
      18:	d05802b7          	lui	t0,0xd0580
      1c:	0ff00313          	li	t1,255
      20:	00628023          	sb	t1,0(t0) # d0580000 <STACK+0xe0537a50>
      24:	fe000ae3          	beqz	zero,18 <_finish>
      28:	0001                	nop
      2a:	0001                	nop
      2c:	0001                	nop
      2e:	0001                	nop
      30:	0001                	nop
      32:	0001                	nop
      34:	0001                	nop
      36:	0001                	nop
      38:	0001                	nop
      3a:	0001                	nop

0000003c <cmp_idx>:
        Compare the idx item in a list cell, and regen the data.

        Can be used by mergesort.
*/
ee_s32 cmp_idx(list_data *a, list_data *b, core_results *res) {
        if (res==NULL) {
      3c:	c619                	beqz	a2,4a <.L4>
                a->data16 = (a->data16 & 0xff00) | (0x00ff & (a->data16>>8));
                b->data16 = (b->data16 & 0xff00) | (0x00ff & (b->data16>>8));
        }
        return a->idx - b->idx;
      3e:	00251503          	lh	a0,2(a0)

00000042 <.LVL1>:
      42:	00259583          	lh	a1,2(a1)

00000046 <.LVL2>:
}
      46:	8d0d                	sub	a0,a0,a1
      48:	8082                	ret

0000004a <.L4>:
                a->data16 = (a->data16 & 0xff00) | (0x00ff & (a->data16>>8));
      4a:	00051783          	lh	a5,0(a0)
      4e:	01079713          	slli	a4,a5,0x10
      52:	01075293          	srli	t0,a4,0x10
      56:	f007f313          	andi	t1,a5,-256
      5a:	0082d393          	srli	t2,t0,0x8
      5e:	00736633          	or	a2,t1,t2

00000062 <.LVL4>:
      62:	00c51023          	sh	a2,0(a0)
                b->data16 = (b->data16 & 0xff00) | (0x00ff & (b->data16>>8));
      66:	00059683          	lh	a3,0(a1)
        return a->idx - b->idx;
      6a:	00251503          	lh	a0,2(a0)

0000006e <.LVL5>:
                b->data16 = (b->data16 & 0xff00) | (0x00ff & (b->data16>>8));
      6e:	01069813          	slli	a6,a3,0x10
      72:	01085893          	srli	a7,a6,0x10
      76:	f006fe13          	andi	t3,a3,-256
      7a:	0088de93          	srli	t4,a7,0x8
      7e:	01de6f33          	or	t5,t3,t4
      82:	01e59023          	sh	t5,0(a1)
        return a->idx - b->idx;
      86:	00259583          	lh	a1,2(a1)

0000008a <.LVL6>:
}
      8a:	8d0d                	sub	a0,a0,a1
      8c:	8082                	ret

0000008e <copy_info>:

void copy_info(list_data *to,list_data *from) {
        to->data16=from->data16;
      8e:	00059703          	lh	a4,0(a1)
        to->idx=from->idx;
      92:	00259783          	lh	a5,2(a1)
        to->data16=from->data16;
      96:	00e51023          	sh	a4,0(a0)
        to->idx=from->idx;
      9a:	00f51123          	sh	a5,2(a0)
}
      9e:	8082                	ret

000000a0 <core_list_init>:

*/
list_head *core_list_init(ee_u32 blksize, list_head *memblock, ee_s16 seed) {
        /* calculated pointers for the list */
        ee_u32 per_item=16+sizeof(struct list_data_s);
        ee_u32 size=(blksize/per_item)-2; /* to accomodate systems with 64b pointers, and make sure same code is executed, set max list elements */
      a0:	4851                	li	a6,20
      a2:	030552b3          	divu	t0,a0,a6
list_head *core_list_init(ee_u32 blksize, list_head *memblock, ee_s16 seed) {
      a6:	8eb2                	mv	t4,a2

        /* create a fake items for the list head and tail */
        list->next=NULL;
        list->info=datablock;
        list->info->idx=0x0000;
        list->info->data16=(ee_s16)0x8080;
      a8:	7561                	lui	a0,0xffff8

000000aa <.LVL9>:
        list->next=NULL;
      aa:	0005a023          	sw	zero,0(a1)
        list->info->data16=(ee_s16)0x8080;
      ae:	08050713          	addi	a4,a0,128 # ffff8080 <STACK+0xffafad0>

000000b2 <.LBB157>:
*/
list_head *core_list_insert_new(list_head *insert_point, list_data *info, list_head **memblock, list_data **datablock
        , list_head *memblock_end, list_data *datablock_end) {
        list_head *newitem;

        if ((*memblock+1) >= memblock_end)
      b2:	01058793          	addi	a5,a1,16

000000b6 <.LBE157>:
        memblock++;
      b6:	00858693          	addi	a3,a1,8
        ee_u32 size=(blksize/per_item)-2; /* to accomodate systems with 64b pointers, and make sure same code is executed, set max list elements */
      ba:	ffe28813          	addi	a6,t0,-2

000000be <.LVL10>:
        list_head *memblock_end=memblock+size;
      be:	00381613          	slli	a2,a6,0x3

000000c2 <.LVL11>:
      c2:	962e                	add	a2,a2,a1

000000c4 <.LVL12>:
        list->info=datablock;
      c4:	c1d0                	sw	a2,4(a1)
        list_data *datablock_end=datablock+size;
      c6:	00281893          	slli	a7,a6,0x2
        list->info->idx=0x0000;
      ca:	00061123          	sh	zero,2(a2)
        list->info->data16=(ee_s16)0x8080;
      ce:	00e61023          	sh	a4,0(a2)
        list_data *datablock_end=datablock+size;
      d2:	98b2                	add	a7,a7,a2

000000d4 <.LVL13>:
        datablock++;
      d4:	00460313          	addi	t1,a2,4

000000d8 <.LBB163>:
        if ((*memblock+1) >= memblock_end)
      d8:	3ec7f963          	bgeu	a5,a2,4ca <.L38>
                return NULL;
        if ((*datablock+1) >= datablock_end)
      dc:	00860713          	addi	a4,a2,8
      e0:	3f177563          	bgeu	a4,a7,4ca <.L38>

000000e4 <.LVL15>:
                return NULL;

        newitem=*memblock;
        (*memblock)++;
        newitem->next=insert_point->next;
      e4:	0005a423          	sw	zero,8(a1)
        insert_point->next=newitem;
      e8:	c194                	sw	a3,0(a1)

        newitem->info=*datablock;
      ea:	0065a623          	sw	t1,12(a1)

000000ee <.LBB159>:
        to->idx=from->idx;
      ee:	fff54393          	not	t2,a0
        to->data16=from->data16;
      f2:	5e7d                	li	t3,-1
      f4:	01c61223          	sh	t3,4(a2)
        to->idx=from->idx;
      f8:	00761323          	sh	t2,6(a2)

000000fc <.L7>:
        for (i=0; i<size; i++) {
      fc:	20080d63          	beqz	a6,316 <.L8>

00000100 <.LBB164>:
                        ee_u16 pat=(ee_u16)(i++ ^ seed); /* get a pseudo random number */
     100:	010e9f13          	slli	t5,t4,0x10

00000104 <.LBB165>:
        to->idx=from->idx;
     104:	7fe1                	lui	t6,0xffff8
     106:	00387293          	andi	t0,a6,3

0000010a <.LBB278>:
                        ee_u16 pat=(ee_u16)(i++ ^ seed); /* get a pseudo random number */
     10a:	010f5f13          	srli	t5,t5,0x10
     10e:	4501                	li	a0,0

00000110 <.LBB185>:
        to->idx=from->idx;
     110:	ffffc313          	not	t1,t6
     114:	0c028d63          	beqz	t0,1ee <.L13>
     118:	4385                	li	t2,1
     11a:	08728463          	beq	t0,t2,1a2 <.L98>
     11e:	4e09                	li	t3,2
     120:	03c28d63          	beq	t0,t3,15a <.L99>

00000124 <.LBB240>:
        if ((*memblock+1) >= memblock_end)
     124:	00878293          	addi	t0,a5,8
     128:	1ec2f763          	bgeu	t0,a2,316 <.L8>
        if ((*datablock+1) >= datablock_end)
     12c:	00470f93          	addi	t6,a4,4
     130:	031ff463          	bgeu	t6,a7,158 <.L83>

00000134 <.LBE240>:
                ee_u16 dat=(datpat<<3) | (i&0x7); /* alternate between algorithms */
     134:	003f1513          	slli	a0,t5,0x3

00000138 <.LBB241>:
        newitem->next=insert_point->next;
     138:	c394                	sw	a3,0(a5)

0000013a <.LBE241>:
                ee_u16 dat=(datpat<<3) | (i&0x7); /* alternate between algorithms */
     13a:	07857693          	andi	a3,a0,120

0000013e <.LBB242>:
        insert_point->next=newitem;
     13e:	c19c                	sw	a5,0(a1)

00000140 <.LBE242>:
                info.data16=(dat<<8) | dat;             /* fill the data with actual data and upper bits with rebuild value */
     140:	00869393          	slli	t2,a3,0x8

00000144 <.LBB243>:
        newitem->info=*datablock;
     144:	c3d8                	sw	a4,4(a5)

00000146 <.LBB186>:
                info.data16=(dat<<8) | dat;             /* fill the data with actual data and upper bits with rebuild value */
     146:	00d3ee33          	or	t3,t2,a3

0000014a <.LBB187>:
        to->data16=from->data16;
     14a:	01c71023          	sh	t3,0(a4)
        to->idx=from->idx;
     14e:	00671123          	sh	t1,2(a4)

00000152 <.LBE187>:
        (*datablock)++;
        copy_info(newitem->info,info);

        return newitem;
     152:	86be                	mv	a3,a5
     154:	877e                	mv	a4,t6
     156:	8796                	mv	a5,t0

00000158 <.L83>:
        for (i=0; i<size; i++) {
     158:	4505                	li	a0,1

0000015a <.L99>:
        if ((*memblock+1) >= memblock_end)
     15a:	00878293          	addi	t0,a5,8
     15e:	1ac2fc63          	bgeu	t0,a2,316 <.L8>
        if ((*datablock+1) >= datablock_end)
     162:	00470393          	addi	t2,a4,4
     166:	0313fd63          	bgeu	t2,a7,1a0 <.L86>
     16a:	01051f93          	slli	t6,a0,0x10
     16e:	010fdf93          	srli	t6,t6,0x10

00000172 <.LBE245>:
                ee_u16 datpat=((ee_u16)(seed^i) & 0xf);
     172:	01efce33          	xor	t3,t6,t5
                ee_u16 dat=(datpat<<3) | (i&0x7); /* alternate between algorithms */
     176:	0e0e                	slli	t3,t3,0x3
     178:	078e7e13          	andi	t3,t3,120
     17c:	007fff93          	andi	t6,t6,7

00000180 <.LBB246>:
        newitem->next=insert_point->next;
     180:	c394                	sw	a3,0(a5)

00000182 <.LBE246>:
                ee_u16 dat=(datpat<<3) | (i&0x7); /* alternate between algorithms */
     182:	01fe66b3          	or	a3,t3,t6

00000186 <.LBB247>:
        insert_point->next=newitem;
     186:	c19c                	sw	a5,0(a1)

00000188 <.LBE247>:
                info.data16=(dat<<8) | dat;             /* fill the data with actual data and upper bits with rebuild value */
     188:	00869e13          	slli	t3,a3,0x8

0000018c <.LBB248>:
        newitem->info=*datablock;
     18c:	c3d8                	sw	a4,4(a5)

0000018e <.LBB188>:
                info.data16=(dat<<8) | dat;             /* fill the data with actual data and upper bits with rebuild value */
     18e:	00de6fb3          	or	t6,t3,a3

00000192 <.LBB189>:
        to->data16=from->data16;
     192:	01f71023          	sh	t6,0(a4)
        to->idx=from->idx;
     196:	00671123          	sh	t1,2(a4)

0000019a <.LBE189>:
        return newitem;
     19a:	86be                	mv	a3,a5
     19c:	871e                	mv	a4,t2
     19e:	8796                	mv	a5,t0

000001a0 <.L86>:
        for (i=0; i<size; i++) {
     1a0:	0505                	addi	a0,a0,1

000001a2 <.L98>:
        if ((*memblock+1) >= memblock_end)
     1a2:	00878293          	addi	t0,a5,8
     1a6:	16c2f863          	bgeu	t0,a2,316 <.L8>
        if ((*datablock+1) >= datablock_end)
     1aa:	00470393          	addi	t2,a4,4
     1ae:	0313fd63          	bgeu	t2,a7,1e8 <.L89>
     1b2:	01051e13          	slli	t3,a0,0x10
     1b6:	010e5f93          	srli	t6,t3,0x10

000001ba <.LBE250>:
                ee_u16 datpat=((ee_u16)(seed^i) & 0xf);
     1ba:	01efce33          	xor	t3,t6,t5
                ee_u16 dat=(datpat<<3) | (i&0x7); /* alternate between algorithms */
     1be:	0e0e                	slli	t3,t3,0x3
     1c0:	078e7e13          	andi	t3,t3,120
     1c4:	007fff93          	andi	t6,t6,7

000001c8 <.LBB251>:
        newitem->next=insert_point->next;
     1c8:	c394                	sw	a3,0(a5)

000001ca <.LBE251>:
                ee_u16 dat=(datpat<<3) | (i&0x7); /* alternate between algorithms */
     1ca:	01fe66b3          	or	a3,t3,t6

000001ce <.LBB252>:
        insert_point->next=newitem;
     1ce:	c19c                	sw	a5,0(a1)

000001d0 <.LBE252>:
                info.data16=(dat<<8) | dat;             /* fill the data with actual data and upper bits with rebuild value */
     1d0:	00869e13          	slli	t3,a3,0x8

000001d4 <.LBB253>:
        newitem->info=*datablock;
     1d4:	c3d8                	sw	a4,4(a5)

000001d6 <.LBB190>:
                info.data16=(dat<<8) | dat;             /* fill the data with actual data and upper bits with rebuild value */
     1d6:	00de6fb3          	or	t6,t3,a3

000001da <.LBB191>:
        to->data16=from->data16;
     1da:	01f71023          	sh	t6,0(a4)
        to->idx=from->idx;
     1de:	00671123          	sh	t1,2(a4)

000001e2 <.LBE191>:
        return newitem;
     1e2:	86be                	mv	a3,a5
     1e4:	871e                	mv	a4,t2
     1e6:	8796                	mv	a5,t0

000001e8 <.L89>:
        for (i=0; i<size; i++) {
     1e8:	0505                	addi	a0,a0,1

000001ea <.LVL33>:
     1ea:	12a80663          	beq	a6,a0,316 <.L8>

000001ee <.L13>:
        if ((*memblock+1) >= memblock_end)
     1ee:	00878293          	addi	t0,a5,8
     1f2:	12c2f263          	bgeu	t0,a2,316 <.L8>
        if ((*datablock+1) >= datablock_end)
     1f6:	00470393          	addi	t2,a4,4
     1fa:	0313fd63          	bgeu	t2,a7,234 <.L10>
     1fe:	01051e13          	slli	t3,a0,0x10
     202:	010e5f93          	srli	t6,t3,0x10

00000206 <.LBE255>:
                ee_u16 datpat=((ee_u16)(seed^i) & 0xf);
     206:	01efce33          	xor	t3,t6,t5
                ee_u16 dat=(datpat<<3) | (i&0x7); /* alternate between algorithms */
     20a:	0e0e                	slli	t3,t3,0x3
     20c:	078e7e13          	andi	t3,t3,120
     210:	007fff93          	andi	t6,t6,7

00000214 <.LBB256>:
        newitem->next=insert_point->next;
     214:	c394                	sw	a3,0(a5)

00000216 <.LBE256>:
                ee_u16 dat=(datpat<<3) | (i&0x7); /* alternate between algorithms */
     216:	01fe66b3          	or	a3,t3,t6

0000021a <.LBB257>:
        insert_point->next=newitem;
     21a:	c19c                	sw	a5,0(a1)

0000021c <.LBE257>:
                info.data16=(dat<<8) | dat;             /* fill the data with actual data and upper bits with rebuild value */
     21c:	00869e13          	slli	t3,a3,0x8

00000220 <.LBB258>:
        newitem->info=*datablock;
     220:	c3d8                	sw	a4,4(a5)

00000222 <.LBB192>:
                info.data16=(dat<<8) | dat;             /* fill the data with actual data and upper bits with rebuild value */
     222:	00de6fb3          	or	t6,t3,a3

00000226 <.LBB193>:
        to->data16=from->data16;
     226:	01f71023          	sh	t6,0(a4)
        to->idx=from->idx;
     22a:	00671123          	sh	t1,2(a4)

0000022e <.LBE193>:
        return newitem;
     22e:	86be                	mv	a3,a5
     230:	871e                	mv	a4,t2
     232:	8796                	mv	a5,t0

00000234 <.L10>:
        if ((*memblock+1) >= memblock_end)
     234:	00878293          	addi	t0,a5,8

00000238 <.LBE260>:
        for (i=0; i<size; i++) {
     238:	0505                	addi	a0,a0,1

0000023a <.LBB261>:
        if ((*memblock+1) >= memblock_end)
     23a:	0cc2fe63          	bgeu	t0,a2,316 <.L8>
        if ((*datablock+1) >= datablock_end)
     23e:	00470393          	addi	t2,a4,4
     242:	0313fd63          	bgeu	t2,a7,27c <.L92>
     246:	01051e13          	slli	t3,a0,0x10
     24a:	010e5f93          	srli	t6,t3,0x10

0000024e <.LBE261>:
                ee_u16 datpat=((ee_u16)(seed^i) & 0xf);
     24e:	01efce33          	xor	t3,t6,t5
                ee_u16 dat=(datpat<<3) | (i&0x7); /* alternate between algorithms */
     252:	0e0e                	slli	t3,t3,0x3
     254:	078e7e13          	andi	t3,t3,120
     258:	007fff93          	andi	t6,t6,7

0000025c <.LBB262>:
        newitem->next=insert_point->next;
     25c:	c394                	sw	a3,0(a5)

0000025e <.LBE262>:
                ee_u16 dat=(datpat<<3) | (i&0x7); /* alternate between algorithms */
     25e:	01fe66b3          	or	a3,t3,t6

00000262 <.LBB263>:
        insert_point->next=newitem;
     262:	c19c                	sw	a5,0(a1)

00000264 <.LBE263>:
                info.data16=(dat<<8) | dat;             /* fill the data with actual data and upper bits with rebuild value */
     264:	00869e13          	slli	t3,a3,0x8

00000268 <.LBB264>:
        newitem->info=*datablock;
     268:	c3d8                	sw	a4,4(a5)

0000026a <.LBB194>:
                info.data16=(dat<<8) | dat;             /* fill the data with actual data and upper bits with rebuild value */
     26a:	00de6fb3          	or	t6,t3,a3

0000026e <.LBB195>:
        to->data16=from->data16;
     26e:	01f71023          	sh	t6,0(a4)
        to->idx=from->idx;
     272:	00671123          	sh	t1,2(a4)

00000276 <.LBE195>:
        return newitem;
     276:	86be                	mv	a3,a5
     278:	871e                	mv	a4,t2
     27a:	8796                	mv	a5,t0

0000027c <.L92>:
        if ((*memblock+1) >= memblock_end)
     27c:	00878293          	addi	t0,a5,8

00000280 <.LBE266>:
        for (i=0; i<size; i++) {
     280:	00150e13          	addi	t3,a0,1

00000284 <.LBB267>:
        if ((*memblock+1) >= memblock_end)
     284:	08c2f963          	bgeu	t0,a2,316 <.L8>
        if ((*datablock+1) >= datablock_end)
     288:	00470393          	addi	t2,a4,4
     28c:	0313fd63          	bgeu	t2,a7,2c6 <.L94>
     290:	010e1f93          	slli	t6,t3,0x10
     294:	010fdf93          	srli	t6,t6,0x10

00000298 <.LBE267>:
                ee_u16 datpat=((ee_u16)(seed^i) & 0xf);
     298:	01efce33          	xor	t3,t6,t5
                ee_u16 dat=(datpat<<3) | (i&0x7); /* alternate between algorithms */
     29c:	0e0e                	slli	t3,t3,0x3
     29e:	078e7e13          	andi	t3,t3,120
     2a2:	007fff93          	andi	t6,t6,7

000002a6 <.LBB268>:
        newitem->next=insert_point->next;
     2a6:	c394                	sw	a3,0(a5)

000002a8 <.LBE268>:
                ee_u16 dat=(datpat<<3) | (i&0x7); /* alternate between algorithms */
     2a8:	01fe66b3          	or	a3,t3,t6

000002ac <.LBB269>:
        insert_point->next=newitem;
     2ac:	c19c                	sw	a5,0(a1)

000002ae <.LBE269>:
                info.data16=(dat<<8) | dat;             /* fill the data with actual data and upper bits with rebuild value */
     2ae:	00869e13          	slli	t3,a3,0x8

000002b2 <.LBB270>:
        newitem->info=*datablock;
     2b2:	c3d8                	sw	a4,4(a5)

000002b4 <.LBB196>:
                info.data16=(dat<<8) | dat;             /* fill the data with actual data and upper bits with rebuild value */
     2b4:	00de6fb3          	or	t6,t3,a3

000002b8 <.LBB197>:
        to->data16=from->data16;
     2b8:	01f71023          	sh	t6,0(a4)
        to->idx=from->idx;
     2bc:	00671123          	sh	t1,2(a4)

000002c0 <.LBE197>:
        return newitem;
     2c0:	86be                	mv	a3,a5
     2c2:	871e                	mv	a4,t2
     2c4:	8796                	mv	a5,t0

000002c6 <.L94>:
        if ((*memblock+1) >= memblock_end)
     2c6:	00878293          	addi	t0,a5,8

000002ca <.LBE272>:
        for (i=0; i<size; i++) {
     2ca:	00250e13          	addi	t3,a0,2

000002ce <.LBB273>:
        if ((*memblock+1) >= memblock_end)
     2ce:	04c2f463          	bgeu	t0,a2,316 <.L8>
        if ((*datablock+1) >= datablock_end)
     2d2:	00470393          	addi	t2,a4,4
     2d6:	0313fd63          	bgeu	t2,a7,310 <.L96>
     2da:	010e1f93          	slli	t6,t3,0x10
     2de:	010fdf93          	srli	t6,t6,0x10

000002e2 <.LBE273>:
                ee_u16 datpat=((ee_u16)(seed^i) & 0xf);
     2e2:	01efce33          	xor	t3,t6,t5
                ee_u16 dat=(datpat<<3) | (i&0x7); /* alternate between algorithms */
     2e6:	0e0e                	slli	t3,t3,0x3
     2e8:	078e7e13          	andi	t3,t3,120
     2ec:	007fff93          	andi	t6,t6,7

000002f0 <.LBB274>:
        newitem->next=insert_point->next;
     2f0:	c394                	sw	a3,0(a5)

000002f2 <.LBE274>:
                ee_u16 dat=(datpat<<3) | (i&0x7); /* alternate between algorithms */
     2f2:	01fe66b3          	or	a3,t3,t6

000002f6 <.LBB275>:
        insert_point->next=newitem;
     2f6:	c19c                	sw	a5,0(a1)

000002f8 <.LBE275>:
                info.data16=(dat<<8) | dat;             /* fill the data with actual data and upper bits with rebuild value */
     2f8:	00869e13          	slli	t3,a3,0x8

000002fc <.LBB276>:
        newitem->info=*datablock;
     2fc:	c3d8                	sw	a4,4(a5)

000002fe <.LBB198>:
                info.data16=(dat<<8) | dat;             /* fill the data with actual data and upper bits with rebuild value */
     2fe:	00de6fb3          	or	t6,t3,a3

00000302 <.LBB199>:
        to->data16=from->data16;
     302:	01f71023          	sh	t6,0(a4)
        to->idx=from->idx;
     306:	00671123          	sh	t1,2(a4)

0000030a <.LBE199>:
        return newitem;
     30a:	86be                	mv	a3,a5
     30c:	871e                	mv	a4,t2
     30e:	8796                	mv	a5,t0

00000310 <.L96>:
        for (i=0; i<size; i++) {
     310:	050d                	addi	a0,a0,3

00000312 <.LVL54>:
     312:	eca81ee3          	bne	a6,a0,1ee <.L13>

00000316 <.L8>:
        while (finder->next!=NULL) {
     316:	4290                	lw	a2,0(a3)

00000318 <.LVL56>:
     318:	ce39                	beqz	a2,376 <.L18>
                if (i<size/5) /* first 20% of the list in order */
     31a:	4895                	li	a7,5

0000031c <.LVL57>:
     31c:	03185f33          	divu	t5,a6,a7

00000320 <.LBB289>:
                        finder->info->idx=0x3fff & (((i & 0x07) << 8) | pat); /* make sure the mixed items end up after the ones in sequence */
     320:	6811                	lui	a6,0x4

00000322 <.LBE289>:
                if (i<size/5) /* first 20% of the list in order */
     322:	20000793          	li	a5,512

00000326 <.LVL59>:
     326:	4705                	li	a4,1

00000328 <.LBB290>:
                        finder->info->idx=0x3fff & (((i & 0x07) << 8) | pat); /* make sure the mixed items end up after the ones in sequence */
     328:	fff80313          	addi	t1,a6,-1 # 3fff <.LVL1286+0x3>
     32c:	a831                	j	348 <.L19>

0000032e <.L125>:
        while (finder->next!=NULL) {
     32e:	4208                	lw	a0,0(a2)
     330:	10078813          	addi	a6,a5,256
                        finder->info->idx=i++;
     334:	00e29123          	sh	a4,2(t0)

00000338 <.LVL62>:
        while (finder->next!=NULL) {
     338:	01081293          	slli	t0,a6,0x10
     33c:	0705                	addi	a4,a4,1

0000033e <.LVL63>:
     33e:	0102d793          	srli	a5,t0,0x10
     342:	c915                	beqz	a0,376 <.L18>

00000344 <.L17>:
                if (i<size/5) /* first 20% of the list in order */
     344:	86b2                	mv	a3,a2
     346:	862a                	mv	a2,a0

00000348 <.L19>:
                        finder->info->idx=i++;
     348:	0046a283          	lw	t0,4(a3)
                if (i<size/5) /* first 20% of the list in order */
     34c:	ffe761e3          	bltu	a4,t5,32e <.L125>

00000350 <.LBB291>:
                        finder->info->idx=0x3fff & (((i & 0x07) << 8) | pat); /* make sure the mixed items end up after the ones in sequence */
     350:	7007f393          	andi	t2,a5,1792
                        ee_u16 pat=(ee_u16)(i++ ^ seed); /* get a pseudo random number */
     354:	01d74e33          	xor	t3,a4,t4

00000358 <.LBE291>:
        while (finder->next!=NULL) {
     358:	4208                	lw	a0,0(a2)

0000035a <.LBB292>:
                        finder->info->idx=0x3fff & (((i & 0x07) << 8) | pat); /* make sure the mixed items end up after the ones in sequence */
     35a:	01c3efb3          	or	t6,t2,t3

0000035e <.LBE292>:
        while (finder->next!=NULL) {
     35e:	10078793          	addi	a5,a5,256

00000362 <.LBB293>:
                        finder->info->idx=0x3fff & (((i & 0x07) << 8) | pat); /* make sure the mixed items end up after the ones in sequence */
     362:	006ff6b3          	and	a3,t6,t1

00000366 <.LBE293>:
        while (finder->next!=NULL) {
     366:	01079893          	slli	a7,a5,0x10

0000036a <.LBB294>:
                        finder->info->idx=0x3fff & (((i & 0x07) << 8) | pat); /* make sure the mixed items end up after the ones in sequence */
     36a:	00d29123          	sh	a3,2(t0)

0000036e <.LBE294>:
        while (finder->next!=NULL) {
     36e:	0705                	addi	a4,a4,1

00000370 <.LVL67>:
     370:	0108d793          	srli	a5,a7,0x10
     374:	f961                	bnez	a0,344 <.L17>

00000376 <.L18>:
 */
list_head *core_list_mergesort(list_head *list, list_cmp cmp, core_results *res) {
    list_head *p, *q, *e, *tail;
    ee_s32 insize, nmerges, psize, qsize, i;

    insize = 1;
     376:	4f85                	li	t6,1

    while (1) {
        p = list;
        list = NULL;
        tail = NULL;
     378:	4801                	li	a6,0
        list = NULL;
     37a:	4501                	li	a0,0

        nmerges = 0;  /* count number of merges we do in this pass */
     37c:	4281                	li	t0,0
        }

            tail->next = NULL;

        /* If we have done only one merge, we're finished. */
        if (nmerges <= 1)   /* allow for nmerges==0, the empty list case */
     37e:	4385                	li	t2,1

00000380 <.L15>:
            nmerges++;  /* there exists a merge to be done */
     380:	007ffe93          	andi	t4,t6,7
     384:	0285                	addi	t0,t0,1

00000386 <.LVL70>:
     386:	87ae                	mv	a5,a1
            psize = 0;
     388:	4601                	li	a2,0
     38a:	040e8b63          	beqz	t4,3e0 <.L22>
     38e:	4f05                	li	t5,1
     390:	05ee8363          	beq	t4,t5,3d6 <.L100>
     394:	4309                	li	t1,2
     396:	026e8d63          	beq	t4,t1,3d0 <.L101>
     39a:	4e0d                	li	t3,3
     39c:	03ce8763          	beq	t4,t3,3ca <.L102>
     3a0:	4691                	li	a3,4
     3a2:	02de8163          	beq	t4,a3,3c4 <.L103>
     3a6:	4715                	li	a4,5
     3a8:	00ee8b63          	beq	t4,a4,3be <.L104>
     3ac:	4899                	li	a7,6
     3ae:	011e8563          	beq	t4,a7,3b8 <.L105>

000003b2 <.LVL71>:
                            q = q->next;
     3b2:	419c                	lw	a5,0(a1)
                psize++;
     3b4:	4605                	li	a2,1

000003b6 <.LVL72>:
                if (!q) break;
     3b6:	c7a5                	beqz	a5,41e <.L23>

000003b8 <.L105>:
                            q = q->next;
     3b8:	439c                	lw	a5,0(a5)

000003ba <.LVL74>:
                psize++;
     3ba:	0605                	addi	a2,a2,1

000003bc <.LVL75>:
                if (!q) break;
     3bc:	c3ad                	beqz	a5,41e <.L23>

000003be <.L104>:
                            q = q->next;
     3be:	439c                	lw	a5,0(a5)

000003c0 <.LVL77>:
                psize++;
     3c0:	0605                	addi	a2,a2,1

000003c2 <.LVL78>:
                if (!q) break;
     3c2:	cfb1                	beqz	a5,41e <.L23>

000003c4 <.L103>:
                            q = q->next;
     3c4:	439c                	lw	a5,0(a5)

000003c6 <.LVL80>:
                psize++;
     3c6:	0605                	addi	a2,a2,1

000003c8 <.LVL81>:
                if (!q) break;
     3c8:	cbb9                	beqz	a5,41e <.L23>

000003ca <.L102>:
                            q = q->next;
     3ca:	439c                	lw	a5,0(a5)

000003cc <.LVL83>:
                psize++;
     3cc:	0605                	addi	a2,a2,1

000003ce <.LVL84>:
                if (!q) break;
     3ce:	cba1                	beqz	a5,41e <.L23>

000003d0 <.L101>:
                            q = q->next;
     3d0:	439c                	lw	a5,0(a5)

000003d2 <.LVL86>:
                psize++;
     3d2:	0605                	addi	a2,a2,1

000003d4 <.LVL87>:
                if (!q) break;
     3d4:	c7a9                	beqz	a5,41e <.L23>

000003d6 <.L100>:
                            q = q->next;
     3d6:	439c                	lw	a5,0(a5)

000003d8 <.LVL89>:
                psize++;
     3d8:	0605                	addi	a2,a2,1

000003da <.LVL90>:
                if (!q) break;
     3da:	c3b1                	beqz	a5,41e <.L23>

000003dc <.L123>:
            for (i = 0; i < insize; i++) {
     3dc:	05f60163          	beq	a2,t6,41e <.L23>

000003e0 <.L22>:
                            q = q->next;
     3e0:	439c                	lw	a5,0(a5)

000003e2 <.LVL92>:
                psize++;
     3e2:	0605                	addi	a2,a2,1
     3e4:	8eb2                	mv	t4,a2

000003e6 <.LVL93>:
                if (!q) break;
     3e6:	cf85                	beqz	a5,41e <.L23>

000003e8 <.LVL94>:
                            q = q->next;
     3e8:	439c                	lw	a5,0(a5)

000003ea <.LVL95>:
                psize++;
     3ea:	0605                	addi	a2,a2,1

000003ec <.LVL96>:
                if (!q) break;
     3ec:	cb8d                	beqz	a5,41e <.L23>

000003ee <.LVL97>:
                            q = q->next;
     3ee:	439c                	lw	a5,0(a5)

000003f0 <.LVL98>:
                psize++;
     3f0:	002e8613          	addi	a2,t4,2

000003f4 <.LVL99>:
                if (!q) break;
     3f4:	c78d                	beqz	a5,41e <.L23>

000003f6 <.LVL100>:
                            q = q->next;
     3f6:	439c                	lw	a5,0(a5)

000003f8 <.LVL101>:
                psize++;
     3f8:	003e8613          	addi	a2,t4,3

000003fc <.LVL102>:
                if (!q) break;
     3fc:	c38d                	beqz	a5,41e <.L23>

000003fe <.LVL103>:
                            q = q->next;
     3fe:	439c                	lw	a5,0(a5)

00000400 <.LVL104>:
                psize++;
     400:	004e8613          	addi	a2,t4,4

00000404 <.LVL105>:
                if (!q) break;
     404:	cf89                	beqz	a5,41e <.L23>

00000406 <.LVL106>:
                            q = q->next;
     406:	439c                	lw	a5,0(a5)

00000408 <.LVL107>:
                psize++;
     408:	005e8613          	addi	a2,t4,5

0000040c <.LVL108>:
                if (!q) break;
     40c:	cb89                	beqz	a5,41e <.L23>

0000040e <.LVL109>:
                            q = q->next;
     40e:	439c                	lw	a5,0(a5)

00000410 <.LVL110>:
                psize++;
     410:	006e8613          	addi	a2,t4,6

00000414 <.LVL111>:
                if (!q) break;
     414:	c789                	beqz	a5,41e <.L23>

00000416 <.LVL112>:
                            q = q->next;
     416:	439c                	lw	a5,0(a5)

00000418 <.LVL113>:
                psize++;
     418:	007e8613          	addi	a2,t4,7

0000041c <.LVL114>:
                if (!q) break;
     41c:	f3e1                	bnez	a5,3dc <.L123>

0000041e <.L23>:
                                    list = e;
     41e:	86fe                	mv	a3,t6

00000420 <.LVL116>:
            while (psize > 0 || (qsize > 0 && q)) {
     420:	c625                	beqz	a2,488 <.L126>

00000422 <.L29>:
                                } else if (qsize == 0 || !q) {
     422:	cead                	beqz	a3,49c <.L124>
     424:	cfa5                	beqz	a5,49c <.L124>
                                } else if (cmp(p->info,q->info,res) <= 0) {
     426:	0045ae03          	lw	t3,4(a1)
     42a:	0047a303          	lw	t1,4(a5)

0000042e <.LBB297>:
                a->data16 = (a->data16 & 0xff00) | (0x00ff & (a->data16>>8));
     42e:	000e1703          	lh	a4,0(t3)
        return a->idx - b->idx;
     432:	00231f03          	lh	t5,2(t1)
     436:	002e1883          	lh	a7,2(t3)
                a->data16 = (a->data16 & 0xff00) | (0x00ff & (a->data16>>8));
     43a:	01071e93          	slli	t4,a4,0x10
     43e:	010ede93          	srli	t4,t4,0x10
     442:	008ede93          	srli	t4,t4,0x8
     446:	f0077713          	andi	a4,a4,-256
     44a:	01d76733          	or	a4,a4,t4
     44e:	00ee1023          	sh	a4,0(t3)
                b->data16 = (b->data16 & 0xff00) | (0x00ff & (b->data16>>8));
     452:	00031e83          	lh	t4,0(t1)
        return a->idx - b->idx;
     456:	41e888b3          	sub	a7,a7,t5
                b->data16 = (b->data16 & 0xff00) | (0x00ff & (b->data16>>8));
     45a:	010e9e13          	slli	t3,t4,0x10

0000045e <.LVL118>:
     45e:	010e5f13          	srli	t5,t3,0x10
     462:	f00ef713          	andi	a4,t4,-256
     466:	008f5e93          	srli	t4,t5,0x8
     46a:	01d76e33          	or	t3,a4,t4
     46e:	01c31023          	sh	t3,0(t1)

00000472 <.LBE297>:
                                } else if (cmp(p->info,q->info,res) <= 0) {
     472:	03105563          	blez	a7,49c <.L124>

00000476 <.LVL120>:
                                    e = q; q = q->next; qsize--;
     476:	833e                	mv	t1,a5
     478:	439c                	lw	a5,0(a5)

0000047a <.LVL121>:
     47a:	16fd                	addi	a3,a3,-1

0000047c <.L24>:
                                if (tail) {
     47c:	00080d63          	beqz	a6,496 <.L39>

00000480 <.L127>:
                                    tail->next = e;
     480:	00682023          	sw	t1,0(a6)
                                    list = e;
     484:	881a                	mv	a6,t1

00000486 <.L128>:
            while (psize > 0 || (qsize > 0 && q)) {
     486:	fe51                	bnez	a2,422 <.L29>

00000488 <.L126>:
     488:	ce91                	beqz	a3,4a4 <.L30>
     48a:	c385                	beqz	a5,4aa <.L32>

0000048c <.LVL125>:
                                    e = q; q = q->next; qsize--;
     48c:	833e                	mv	t1,a5
     48e:	16fd                	addi	a3,a3,-1
     490:	439c                	lw	a5,0(a5)

00000492 <.LVL127>:
                                if (tail) {
     492:	fe0817e3          	bnez	a6,480 <.L127>

00000496 <.L39>:
                                    list = e;
     496:	851a                	mv	a0,t1
     498:	881a                	mv	a6,t1

0000049a <.LVL128>:
     49a:	b7f5                	j	486 <.L128>

0000049c <.L124>:
                                    e = p; p = p->next; psize--;
     49c:	832e                	mv	t1,a1
     49e:	167d                	addi	a2,a2,-1

000004a0 <.LVL130>:
     4a0:	418c                	lw	a1,0(a1)

000004a2 <.LVL131>:
     4a2:	bfe9                	j	47c <.L24>

000004a4 <.L30>:
        while (p) {
     4a4:	c399                	beqz	a5,4aa <.L32>
        list = NULL;
     4a6:	85be                	mv	a1,a5
     4a8:	bde1                	j	380 <.L15>

000004aa <.L32>:
            tail->next = NULL;
     4aa:	00082023          	sw	zero,0(a6)
        if (nmerges <= 1)   /* allow for nmerges==0, the empty list case */
     4ae:	00728a63          	beq	t0,t2,4c2 <.L120>
            return list;

        /* Otherwise repeat, merging lists twice the size */
        insize *= 2;
     4b2:	0f86                	slli	t6,t6,0x1

000004b4 <.LVL134>:
        while (p) {
     4b4:	c901                	beqz	a0,4c4 <.L129>
     4b6:	87aa                	mv	a5,a0

000004b8 <.LVL135>:
        nmerges = 0;  /* count number of merges we do in this pass */
     4b8:	4281                	li	t0,0
        tail = NULL;
     4ba:	4801                	li	a6,0
        list = NULL;
     4bc:	4501                	li	a0,0

000004be <.LVL136>:
     4be:	85be                	mv	a1,a5
     4c0:	b5c1                	j	380 <.L15>

000004c2 <.L120>:
}
     4c2:	8082                	ret

000004c4 <.L129>:
            tail->next = NULL;
     4c4:	00002023          	sw	zero,0(zero) # 0 <_start>
     4c8:	9002                	ebreak

000004ca <.L38>:
        memblock++;
     4ca:	87b6                	mv	a5,a3

000004cc <.LVL140>:
        datablock++;
     4cc:	871a                	mv	a4,t1

000004ce <.LBB301>:
     4ce:	4681                	li	a3,0
     4d0:	b135                	j	fc <.L7>

000004d2 <core_list_insert_new>:
        if ((*memblock+1) >= memblock_end)
     4d2:	00062803          	lw	a6,0(a2)
     4d6:	00880893          	addi	a7,a6,8
     4da:	04e8f163          	bgeu	a7,a4,51c <.L133>
        if ((*datablock+1) >= datablock_end)
     4de:	4298                	lw	a4,0(a3)

000004e0 <.LVL142>:
     4e0:	00470313          	addi	t1,a4,4
     4e4:	02f37c63          	bgeu	t1,a5,51c <.L133>

000004e8 <.LVL143>:
        (*memblock)++;
     4e8:	01162023          	sw	a7,0(a2)
        newitem->next=insert_point->next;
     4ec:	411c                	lw	a5,0(a0)

000004ee <.LBB302>:
        to->data16=from->data16;
     4ee:	00059283          	lh	t0,0(a1)
        to->idx=from->idx;
     4f2:	00259603          	lh	a2,2(a1)

000004f6 <.LBE302>:
        newitem->next=insert_point->next;
     4f6:	00f82023          	sw	a5,0(a6)
        insert_point->next=newitem;
     4fa:	01052023          	sw	a6,0(a0)
        newitem->info=*datablock;
     4fe:	00e82223          	sw	a4,4(a6)
        (*datablock)++;
     502:	0006a383          	lw	t2,0(a3)
     506:	00438513          	addi	a0,t2,4

0000050a <.LVL146>:
     50a:	c288                	sw	a0,0(a3)
        copy_info(newitem->info,info);
     50c:	00482583          	lw	a1,4(a6)

00000510 <.LBB306>:
}
     510:	8542                	mv	a0,a6

00000512 <.LBB307>:
        to->data16=from->data16;
     512:	00559023          	sh	t0,0(a1)
        to->idx=from->idx;
     516:	00c59123          	sh	a2,2(a1)

0000051a <.LBE307>:
}
     51a:	8082                	ret

0000051c <.L133>:
                return NULL;
     51c:	4801                	li	a6,0
}
     51e:	8542                	mv	a0,a6

00000520 <.LVL150>:
     520:	8082                	ret

00000522 <core_list_remove>:
list_head *core_list_remove(list_head *item) {
     522:	87aa                	mv	a5,a0
        list_head *ret=item->next;
     524:	4108                	lw	a0,0(a0)

00000526 <.LVL152>:
        tmp=item->info;
     526:	43d4                	lw	a3,4(a5)
        item->info=ret->info;
     528:	4150                	lw	a2,4(a0)
        item->next=item->next->next;
     52a:	4118                	lw	a4,0(a0)
        item->info=ret->info;
     52c:	c3d0                	sw	a2,4(a5)
        ret->info=tmp;
     52e:	c154                	sw	a3,4(a0)
        item->next=item->next->next;
     530:	c398                	sw	a4,0(a5)
        ret->next=NULL;
     532:	00052023          	sw	zero,0(a0)
}
     536:	8082                	ret

00000538 <core_list_undo_remove>:
        item_removed->info=item_modified->info;
     538:	41d0                	lw	a2,4(a1)
        tmp=item_removed->info;
     53a:	4154                	lw	a3,4(a0)
        item_removed->next=item_modified->next;
     53c:	4198                	lw	a4,0(a1)
        item_removed->info=item_modified->info;
     53e:	c150                	sw	a2,4(a0)
        item_modified->info=tmp;
     540:	c1d4                	sw	a3,4(a1)
        item_removed->next=item_modified->next;
     542:	c118                	sw	a4,0(a0)
        item_modified->next=item_removed;
     544:	c188                	sw	a0,0(a1)
}
     546:	8082                	ret

00000548 <core_list_find>:
        if (info->idx>=0) {
     548:	00259603          	lh	a2,2(a1)
     54c:	00064d63          	bltz	a2,566 <.L149>
                while (list && (list->info->idx != info->idx))
     550:	e501                	bnez	a0,558 <.L140>
     552:	a805                	j	582 <.L150>

00000554 <.L141>:
                        list=list->next;
     554:	4108                	lw	a0,0(a0)

00000556 <.LVL157>:
                while (list && (list->info->idx != info->idx))
     556:	c505                	beqz	a0,57e <.L144>

00000558 <.L140>:
     558:	00452303          	lw	t1,4(a0)
     55c:	00231383          	lh	t2,2(t1)
     560:	fec39ae3          	bne	t2,a2,554 <.L141>
     564:	8082                	ret

00000566 <.L149>:
                while (list && ((list->info->data16 & 0xff) != info->data16))
     566:	cd01                	beqz	a0,57e <.L144>
     568:	00059703          	lh	a4,0(a1)
     56c:	a019                	j	572 <.L139>

0000056e <.L142>:
                        list=list->next;
     56e:	4108                	lw	a0,0(a0)
                while (list && ((list->info->data16 & 0xff) != info->data16))
     570:	c901                	beqz	a0,580 <.L136>

00000572 <.L139>:
     572:	415c                	lw	a5,4(a0)
     574:	0007c283          	lbu	t0,0(a5)
     578:	fee29be3          	bne	t0,a4,56e <.L142>
     57c:	8082                	ret

0000057e <.L144>:
     57e:	4501                	li	a0,0

00000580 <.L136>:
}
     580:	8082                	ret

00000582 <.L150>:
     582:	8082                	ret

00000584 <core_list_reverse>:
        while (list) {
     584:	c92d                	beqz	a0,5f6 <.L152>
                tmp=list->next;
     586:	411c                	lw	a5,0(a0)
        list_head *next=NULL, *tmp;
     588:	4881                	li	a7,0

0000058a <.LVL165>:
                list->next=next;
     58a:	01152023          	sw	a7,0(a0)

0000058e <.LVL166>:
        while (list) {
     58e:	86aa                	mv	a3,a0
     590:	c3bd                	beqz	a5,5f6 <.L152>

00000592 <.L154>:
                tmp=list->next;
     592:	4398                	lw	a4,0(a5)
                list->next=next;
     594:	c394                	sw	a3,0(a5)
     596:	853e                	mv	a0,a5
        while (list) {
     598:	c325                	beqz	a4,5f8 <.L165>

0000059a <.LVL168>:
                tmp=list->next;
     59a:	00072283          	lw	t0,0(a4)
                list->next=next;
     59e:	c31c                	sw	a5,0(a4)
     5a0:	853a                	mv	a0,a4

000005a2 <.LVL169>:
        while (list) {
     5a2:	04028a63          	beqz	t0,5f6 <.L152>
                tmp=list->next;
     5a6:	0002a303          	lw	t1,0(t0)
                list->next=next;
     5aa:	00e2a023          	sw	a4,0(t0)
     5ae:	8516                	mv	a0,t0

000005b0 <.LVL170>:
        while (list) {
     5b0:	04030363          	beqz	t1,5f6 <.L152>
                tmp=list->next;
     5b4:	00032383          	lw	t2,0(t1)
                list->next=next;
     5b8:	00532023          	sw	t0,0(t1)
     5bc:	851a                	mv	a0,t1

000005be <.LVL171>:
        while (list) {
     5be:	02038c63          	beqz	t2,5f6 <.L152>
                tmp=list->next;
     5c2:	0003a583          	lw	a1,0(t2)
                list->next=next;
     5c6:	0063a023          	sw	t1,0(t2)
     5ca:	851e                	mv	a0,t2

000005cc <.LVL172>:
        while (list) {
     5cc:	c58d                	beqz	a1,5f6 <.L152>
                tmp=list->next;
     5ce:	0005a803          	lw	a6,0(a1)
                list->next=next;
     5d2:	0075a023          	sw	t2,0(a1)
     5d6:	852e                	mv	a0,a1

000005d8 <.LVL173>:
        while (list) {
     5d8:	00080f63          	beqz	a6,5f6 <.L152>
                tmp=list->next;
     5dc:	00082603          	lw	a2,0(a6)
                list->next=next;
     5e0:	00b82023          	sw	a1,0(a6)
     5e4:	8542                	mv	a0,a6
        while (list) {
     5e6:	88c2                	mv	a7,a6
     5e8:	c619                	beqz	a2,5f6 <.L152>
     5ea:	8532                	mv	a0,a2

000005ec <.LVL175>:
                tmp=list->next;
     5ec:	411c                	lw	a5,0(a0)
                list->next=next;
     5ee:	01152023          	sw	a7,0(a0)

000005f2 <.LVL176>:
        while (list) {
     5f2:	86aa                	mv	a3,a0
     5f4:	ffd9                	bnez	a5,592 <.L154>

000005f6 <.L152>:
}
     5f6:	8082                	ret

000005f8 <.L165>:
     5f8:	8082                	ret

000005fa <core_list_mergesort>:
list_head *core_list_mergesort(list_head *list, list_cmp cmp, core_results *res) {
     5fa:	7179                	addi	sp,sp,-48
     5fc:	d422                	sw	s0,40(sp)
     5fe:	c85a                	sw	s6,16(sp)
     600:	c65e                	sw	s7,12(sp)
     602:	c266                	sw	s9,4(sp)
     604:	c06a                	sw	s10,0(sp)
     606:	d606                	sw	ra,44(sp)
     608:	d226                	sw	s1,36(sp)
     60a:	d04a                	sw	s2,32(sp)
     60c:	ce4e                	sw	s3,28(sp)
     60e:	cc52                	sw	s4,24(sp)
     610:	ca56                	sw	s5,20(sp)
     612:	c462                	sw	s8,8(sp)
     614:	842a                	mv	s0,a0
     616:	8b2e                	mv	s6,a1
     618:	8d32                	mv	s10,a2
    insize = 1;
     61a:	4b85                	li	s7,1
        if (nmerges <= 1)   /* allow for nmerges==0, the empty list case */
     61c:	4c85                	li	s9,1

0000061e <.L183>:
        while (p) {
     61e:	10040163          	beqz	s0,720 <.L167>
        nmerges = 0;  /* count number of merges we do in this pass */
     622:	4c01                	li	s8,0
        tail = NULL;
     624:	4481                	li	s1,0
        list = NULL;
     626:	4a81                	li	s5,0

00000628 <.L181>:
            nmerges++;  /* there exists a merge to be done */
     628:	007bf713          	andi	a4,s7,7
     62c:	0c05                	addi	s8,s8,1

0000062e <.LVL182>:
     62e:	87a2                	mv	a5,s0
            psize = 0;
     630:	4901                	li	s2,0
     632:	cb31                	beqz	a4,686 <.L170>
     634:	4685                	li	a3,1
     636:	04d70363          	beq	a4,a3,67c <.L224>
     63a:	4089                	li	ra,2
     63c:	02170d63          	beq	a4,ra,676 <.L225>
     640:	428d                	li	t0,3
     642:	02570763          	beq	a4,t0,670 <.L226>
     646:	4311                	li	t1,4
     648:	02670163          	beq	a4,t1,66a <.L227>
     64c:	4395                	li	t2,5
     64e:	00770b63          	beq	a4,t2,664 <.L228>
     652:	4519                	li	a0,6
     654:	00a70563          	beq	a4,a0,65e <.L229>

00000658 <.LVL183>:
                            q = q->next;
     658:	401c                	lw	a5,0(s0)
                psize++;
     65a:	4905                	li	s2,1

0000065c <.LVL184>:
                if (!q) break;
     65c:	c7a5                	beqz	a5,6c4 <.L171>

0000065e <.L229>:
                            q = q->next;
     65e:	439c                	lw	a5,0(a5)

00000660 <.LVL186>:
                psize++;
     660:	0905                	addi	s2,s2,1

00000662 <.LVL187>:
                if (!q) break;
     662:	c3ad                	beqz	a5,6c4 <.L171>

00000664 <.L228>:
                            q = q->next;
     664:	439c                	lw	a5,0(a5)

00000666 <.LVL189>:
                psize++;
     666:	0905                	addi	s2,s2,1

00000668 <.LVL190>:
                if (!q) break;
     668:	cfb1                	beqz	a5,6c4 <.L171>

0000066a <.L227>:
                            q = q->next;
     66a:	439c                	lw	a5,0(a5)

0000066c <.LVL192>:
                psize++;
     66c:	0905                	addi	s2,s2,1

0000066e <.LVL193>:
                if (!q) break;
     66e:	cbb9                	beqz	a5,6c4 <.L171>

00000670 <.L226>:
                            q = q->next;
     670:	439c                	lw	a5,0(a5)

00000672 <.LVL195>:
                psize++;
     672:	0905                	addi	s2,s2,1

00000674 <.LVL196>:
                if (!q) break;
     674:	cba1                	beqz	a5,6c4 <.L171>

00000676 <.L225>:
                            q = q->next;
     676:	439c                	lw	a5,0(a5)

00000678 <.LVL198>:
                psize++;
     678:	0905                	addi	s2,s2,1

0000067a <.LVL199>:
                if (!q) break;
     67a:	c7a9                	beqz	a5,6c4 <.L171>

0000067c <.L224>:
                            q = q->next;
     67c:	439c                	lw	a5,0(a5)

0000067e <.LVL201>:
                psize++;
     67e:	0905                	addi	s2,s2,1

00000680 <.LVL202>:
                if (!q) break;
     680:	c3b1                	beqz	a5,6c4 <.L171>

00000682 <.L242>:
            for (i = 0; i < insize; i++) {
     682:	052b8163          	beq	s7,s2,6c4 <.L171>

00000686 <.L170>:
                            q = q->next;
     686:	439c                	lw	a5,0(a5)

00000688 <.LVL204>:
                psize++;
     688:	0905                	addi	s2,s2,1
     68a:	85ca                	mv	a1,s2

0000068c <.LVL205>:
                if (!q) break;
     68c:	cf85                	beqz	a5,6c4 <.L171>

0000068e <.LVL206>:
                            q = q->next;
     68e:	439c                	lw	a5,0(a5)

00000690 <.LVL207>:
                psize++;
     690:	0905                	addi	s2,s2,1

00000692 <.LVL208>:
                if (!q) break;
     692:	cb8d                	beqz	a5,6c4 <.L171>

00000694 <.LVL209>:
                            q = q->next;
     694:	439c                	lw	a5,0(a5)

00000696 <.LVL210>:
                psize++;
     696:	00258913          	addi	s2,a1,2

0000069a <.LVL211>:
                if (!q) break;
     69a:	c78d                	beqz	a5,6c4 <.L171>

0000069c <.LVL212>:
                            q = q->next;
     69c:	439c                	lw	a5,0(a5)

0000069e <.LVL213>:
                psize++;
     69e:	00358913          	addi	s2,a1,3

000006a2 <.LVL214>:
                if (!q) break;
     6a2:	c38d                	beqz	a5,6c4 <.L171>

000006a4 <.LVL215>:
                            q = q->next;
     6a4:	439c                	lw	a5,0(a5)

000006a6 <.LVL216>:
                psize++;
     6a6:	00458913          	addi	s2,a1,4

000006aa <.LVL217>:
                if (!q) break;
     6aa:	cf89                	beqz	a5,6c4 <.L171>

000006ac <.LVL218>:
                            q = q->next;
     6ac:	439c                	lw	a5,0(a5)

000006ae <.LVL219>:
                psize++;
     6ae:	00558913          	addi	s2,a1,5

000006b2 <.LVL220>:
                if (!q) break;
     6b2:	cb89                	beqz	a5,6c4 <.L171>

000006b4 <.LVL221>:
                            q = q->next;
     6b4:	439c                	lw	a5,0(a5)

000006b6 <.LVL222>:
                psize++;
     6b6:	00658913          	addi	s2,a1,6

000006ba <.LVL223>:
                if (!q) break;
     6ba:	c789                	beqz	a5,6c4 <.L171>

000006bc <.LVL224>:
                            q = q->next;
     6bc:	439c                	lw	a5,0(a5)

000006be <.LVL225>:
                psize++;
     6be:	00758913          	addi	s2,a1,7

000006c2 <.LVL226>:
                if (!q) break;
     6c2:	f3e1                	bnez	a5,682 <.L242>

000006c4 <.L171>:
                                    list = e;
     6c4:	8a22                	mv	s4,s0
     6c6:	89de                	mv	s3,s7
     6c8:	843e                	mv	s0,a5

000006ca <.LVL228>:
            while (psize > 0 || (qsize > 0 && q)) {
     6ca:	02090463          	beqz	s2,6f2 <.L244>

000006ce <.L177>:
                                } else if (qsize == 0 || !q) {
     6ce:	02098c63          	beqz	s3,706 <.L243>
     6d2:	c815                	beqz	s0,706 <.L243>
                                } else if (cmp(p->info,q->info,res) <= 0) {
     6d4:	404c                	lw	a1,4(s0)
     6d6:	004a2503          	lw	a0,4(s4)
     6da:	866a                	mv	a2,s10
     6dc:	9b02                	jalr	s6

000006de <.LVL229>:
     6de:	02a05463          	blez	a0,706 <.L243>

000006e2 <.LVL230>:
                                    e = q; q = q->next; qsize--;
     6e2:	8622                	mv	a2,s0
     6e4:	4000                	lw	s0,0(s0)

000006e6 <.LVL231>:
     6e6:	19fd                	addi	s3,s3,-1

000006e8 <.L172>:
                                if (tail) {
     6e8:	cc81                	beqz	s1,700 <.L184>

000006ea <.L245>:
                                    tail->next = e;
     6ea:	c090                	sw	a2,0(s1)
                                    list = e;
     6ec:	84b2                	mv	s1,a2

000006ee <.L246>:
            while (psize > 0 || (qsize > 0 && q)) {
     6ee:	fe0910e3          	bnez	s2,6ce <.L177>

000006f2 <.L244>:
     6f2:	00098f63          	beqz	s3,710 <.L178>
     6f6:	cc11                	beqz	s0,712 <.L180>

000006f8 <.LVL235>:
                                    e = q; q = q->next; qsize--;
     6f8:	8622                	mv	a2,s0
     6fa:	19fd                	addi	s3,s3,-1
     6fc:	4000                	lw	s0,0(s0)

000006fe <.LVL237>:
                                if (tail) {
     6fe:	f4f5                	bnez	s1,6ea <.L245>

00000700 <.L184>:
                                    list = e;
     700:	8ab2                	mv	s5,a2
     702:	84b2                	mv	s1,a2

00000704 <.LVL238>:
     704:	b7ed                	j	6ee <.L246>

00000706 <.L243>:
                                    e = p; p = p->next; psize--;
     706:	8652                	mv	a2,s4
     708:	197d                	addi	s2,s2,-1

0000070a <.LVL240>:
     70a:	000a2a03          	lw	s4,0(s4)

0000070e <.LVL241>:
     70e:	bfe9                	j	6e8 <.L172>

00000710 <.L178>:
        while (p) {
     710:	fc01                	bnez	s0,628 <.L181>

00000712 <.L180>:
            tail->next = NULL;
     712:	0004a023          	sw	zero,0(s1)
        if (nmerges <= 1)   /* allow for nmerges==0, the empty list case */
     716:	019c0863          	beq	s8,s9,726 <.L240>
        insize *= 2;
     71a:	0b86                	slli	s7,s7,0x1
        p = list;
     71c:	8456                	mv	s0,s5

0000071e <.LVL245>:
     71e:	b701                	j	61e <.L183>

00000720 <.L167>:
            tail->next = NULL;
     720:	00002023          	sw	zero,0(zero) # 0 <_start>
     724:	9002                	ebreak

00000726 <.L240>:
    }
#if COMPILER_REQUIRES_SORT_RETURN
        return list;
#endif
}
     726:	50b2                	lw	ra,44(sp)
     728:	5422                	lw	s0,40(sp)

0000072a <.LVL248>:
     72a:	5492                	lw	s1,36(sp)
     72c:	5902                	lw	s2,32(sp)
     72e:	49f2                	lw	s3,28(sp)

00000730 <.LVL249>:
     730:	4a62                	lw	s4,24(sp)
     732:	4b42                	lw	s6,16(sp)

00000734 <.LVL250>:
     734:	4bb2                	lw	s7,12(sp)

00000736 <.LVL251>:
     736:	4c22                	lw	s8,8(sp)
     738:	4c92                	lw	s9,4(sp)
     73a:	4d02                	lw	s10,0(sp)

0000073c <.LVL252>:
     73c:	8556                	mv	a0,s5
     73e:	4ad2                	lw	s5,20(sp)
     740:	6145                	addi	sp,sp,48
     742:	8082                	ret

00000744 <matrix_test>:
        4 - Multiply a matrix by a matrix.
        5 - Add a constant value to all elements of a matrix.

        After the last step, matrix A is back to original contents.
*/
ee_s16 matrix_test(ee_u32 N, MATRES *C, MATDAT *A, MATDAT *B, MATDAT val) {
     744:	711d                	addi	sp,sp,-96
     746:	caa6                	sw	s1,84(sp)
     748:	c6ce                	sw	s3,76(sp)
     74a:	c4d2                	sw	s4,72(sp)
     74c:	de5e                	sw	s7,60(sp)
        ee_u16 crc=0;
        MATDAT clipval=matrix_big(val);
     74e:	74fd                	lui	s1,0xfffff
        crc=crc16(matrix_sum(N,C,clipval),crc);
#if CORE_DEBUG
        printmatC(C,N,"matrix_mul_matrix_bitextract");
#endif

        matrix_add_const(N,A,-val); /* return matrix to initial value */
     750:	01071a13          	slli	s4,a4,0x10
ee_s16 matrix_test(ee_u32 N, MATRES *C, MATDAT *A, MATDAT *B, MATDAT val) {
     754:	ce86                	sw	ra,92(sp)
     756:	cca2                	sw	s0,88(sp)
     758:	c8ca                	sw	s2,80(sp)
     75a:	c2d6                	sw	s5,68(sp)
     75c:	c0da                	sw	s6,64(sp)
     75e:	dc62                	sw	s8,56(sp)
     760:	da66                	sw	s9,52(sp)
     762:	d86a                	sw	s10,48(sp)
     764:	d66e                	sw	s11,44(sp)
     766:	c22e                	sw	a1,4(sp)
     768:	c632                	sw	a2,12(sp)
     76a:	89aa                	mv	s3,a0
     76c:	8bb6                	mv	s7,a3

0000076e <.LVL254>:
        MATDAT clipval=matrix_big(val);
     76e:	8cd9                	or	s1,s1,a4

00000770 <.LBB365>:
        matrix_add_const(N,A,-val); /* return matrix to initial value */
     770:	010a5a13          	srli	s4,s4,0x10

00000774 <.LBB371>:
/* Function: matrix_add_const
        Add a constant value to all elements of a matrix.
*/
void matrix_add_const(ee_u32 N, MATDAT *A, MATDAT val) {
        ee_u32 i,j;
        for (i=0; i<N; i++) {
     774:	e119                	bnez	a0,77a <.LBB371+0x6>
     776:	28f0106f          	j	2204 <.L353>
     77a:	80b2                	mv	ra,a2
     77c:	00151613          	slli	a2,a0,0x1

00000780 <.LVL256>:
     780:	9606                	add	a2,a2,ra
     782:	40a00533          	neg	a0,a0

00000786 <.LVL257>:
     786:	00151893          	slli	a7,a0,0x1
     78a:	883a                	mv	a6,a4
     78c:	86b2                	mv	a3,a2

0000078e <.LVL258>:
     78e:	4581                	li	a1,0

00000790 <.LVL259>:
     790:	050a                	slli	a0,a0,0x2

00000792 <.L249>:
                for (j=0; j<N; j++) {
     792:	01168333          	add	t1,a3,a7
     796:	406682b3          	sub	t0,a3,t1
     79a:	ffe28393          	addi	t2,t0,-2
     79e:	0013d413          	srli	s0,t2,0x1
     7a2:	00140913          	addi	s2,s0,1
     7a6:	00797a93          	andi	s5,s2,7

000007aa <.LBE371>:
ee_s16 matrix_test(ee_u32 N, MATRES *C, MATDAT *A, MATDAT *B, MATDAT val) {
     7aa:	879a                	mv	a5,t1
     7ac:	080a8863          	beqz	s5,83c <.L250>
     7b0:	4e05                	li	t3,1
     7b2:	07ca8c63          	beq	s5,t3,82a <.L678>
     7b6:	4b09                	li	s6,2
     7b8:	076a8263          	beq	s5,s6,81c <.L679>
     7bc:	4c0d                	li	s8,3
     7be:	058a8863          	beq	s5,s8,80e <.L680>
     7c2:	4c91                	li	s9,4
     7c4:	039a8e63          	beq	s5,s9,800 <.L681>
     7c8:	4d15                	li	s10,5
     7ca:	03aa8463          	beq	s5,s10,7f2 <.L682>
     7ce:	4d99                	li	s11,6
     7d0:	01ba8a63          	beq	s5,s11,7e4 <.L683>

000007d4 <.LBB372>:
                        A[i*N+j] += val;
     7d4:	00035e83          	lhu	t4,0(t1)
                for (j=0; j<N; j++) {
     7d8:	00230793          	addi	a5,t1,2
                        A[i*N+j] += val;
     7dc:	01da0f33          	add	t5,s4,t4
     7e0:	01e31023          	sh	t5,0(t1)

000007e4 <.L683>:
     7e4:	0007df83          	lhu	t6,0(a5)
                for (j=0; j<N; j++) {
     7e8:	0789                	addi	a5,a5,2
                        A[i*N+j] += val;
     7ea:	01fa0733          	add	a4,s4,t6
     7ee:	fee79f23          	sh	a4,-2(a5)

000007f2 <.L682>:
     7f2:	0007d083          	lhu	ra,0(a5)
                for (j=0; j<N; j++) {
     7f6:	0789                	addi	a5,a5,2
                        A[i*N+j] += val;
     7f8:	001a02b3          	add	t0,s4,ra
     7fc:	fe579f23          	sh	t0,-2(a5)

00000800 <.L681>:
     800:	0007d383          	lhu	t2,0(a5)
                for (j=0; j<N; j++) {
     804:	0789                	addi	a5,a5,2
                        A[i*N+j] += val;
     806:	007a0433          	add	s0,s4,t2
     80a:	fe879f23          	sh	s0,-2(a5)

0000080e <.L680>:
     80e:	0007d903          	lhu	s2,0(a5)
                for (j=0; j<N; j++) {
     812:	0789                	addi	a5,a5,2
                        A[i*N+j] += val;
     814:	012a0ab3          	add	s5,s4,s2
     818:	ff579f23          	sh	s5,-2(a5)

0000081c <.L679>:
     81c:	0007de03          	lhu	t3,0(a5)
                for (j=0; j<N; j++) {
     820:	0789                	addi	a5,a5,2
                        A[i*N+j] += val;
     822:	01ca0b33          	add	s6,s4,t3
     826:	ff679f23          	sh	s6,-2(a5)

0000082a <.L678>:
     82a:	0007dc03          	lhu	s8,0(a5)
                for (j=0; j<N; j++) {
     82e:	0789                	addi	a5,a5,2
                        A[i*N+j] += val;
     830:	018a0cb3          	add	s9,s4,s8
     834:	ff979f23          	sh	s9,-2(a5)
                for (j=0; j<N; j++) {
     838:	06f68563          	beq	a3,a5,8a2 <.L864>

0000083c <.L250>:
                        A[i*N+j] += val;
     83c:	0007dd03          	lhu	s10,0(a5)
     840:	0027dd83          	lhu	s11,2(a5)
     844:	0047d083          	lhu	ra,4(a5)
     848:	0067df83          	lhu	t6,6(a5)
     84c:	0087df03          	lhu	t5,8(a5)
     850:	00a7de83          	lhu	t4,10(a5)
     854:	00c7d903          	lhu	s2,12(a5)
     858:	00e7d703          	lhu	a4,14(a5)
     85c:	01aa0433          	add	s0,s4,s10
     860:	01ba03b3          	add	t2,s4,s11
     864:	001a02b3          	add	t0,s4,ra
     868:	01fa0ab3          	add	s5,s4,t6
     86c:	01ea0b33          	add	s6,s4,t5
     870:	01da0c33          	add	s8,s4,t4
     874:	012a0e33          	add	t3,s4,s2
     878:	00ea0cb3          	add	s9,s4,a4
     87c:	00879023          	sh	s0,0(a5)
     880:	00779123          	sh	t2,2(a5)
     884:	00579223          	sh	t0,4(a5)
     888:	01579323          	sh	s5,6(a5)
     88c:	01679423          	sh	s6,8(a5)
     890:	01879523          	sh	s8,10(a5)
     894:	01c79623          	sh	t3,12(a5)
     898:	01979723          	sh	s9,14(a5)
                for (j=0; j<N; j++) {
     89c:	07c1                	addi	a5,a5,16
     89e:	f8f69fe3          	bne	a3,a5,83c <.L250>

000008a2 <.L864>:
        for (i=0; i<N; i++) {
     8a2:	00158e13          	addi	t3,a1,1

000008a6 <.LVL262>:
     8a6:	40a306b3          	sub	a3,t1,a0
     8aa:	01c98463          	beq	s3,t3,8b2 <.L251>
     8ae:	85f2                	mv	a1,t3
     8b0:	b5cd                	j	792 <.L249>

000008b2 <.L251>:
     8b2:	4292                	lw	t0,4(sp)

000008b4 <.LBB373>:
                        C[i*N+j]=(MATRES)A[i*N+j] * (MATRES)val;
     8b4:	4f01                	li	t5,0
     8b6:	4f81                	li	t6,0

000008b8 <.L253>:
                for (j=0; j<N; j++) {
     8b8:	01160333          	add	t1,a2,a7
     8bc:	406607b3          	sub	a5,a2,t1
     8c0:	ffe78d13          	addi	s10,a5,-2
     8c4:	001d5d93          	srli	s11,s10,0x1
     8c8:	001d8093          	addi	ra,s11,1
     8cc:	002f1e93          	slli	t4,t5,0x2
     8d0:	0070f913          	andi	s2,ra,7
     8d4:	005e87b3          	add	a5,t4,t0

000008d8 <.LBB376>:
     8d8:	871a                	mv	a4,t1
     8da:	08090f63          	beqz	s2,978 <.L252>
     8de:	4405                	li	s0,1
     8e0:	08890263          	beq	s2,s0,964 <.L684>
     8e4:	4389                	li	t2,2
     8e6:	06790763          	beq	s2,t2,954 <.L685>
     8ea:	4a8d                	li	s5,3
     8ec:	05590c63          	beq	s2,s5,944 <.L686>
     8f0:	4b11                	li	s6,4
     8f2:	05690163          	beq	s2,s6,934 <.L687>
     8f6:	4c15                	li	s8,5
     8f8:	03890663          	beq	s2,s8,924 <.L688>
     8fc:	4c99                	li	s9,6
     8fe:	01990b63          	beq	s2,s9,914 <.L689>

00000902 <.LBB377>:
                        C[i*N+j]=(MATRES)A[i*N+j] * (MATRES)val;
     902:	00031683          	lh	a3,0(t1)
                for (j=0; j<N; j++) {
     906:	00230713          	addi	a4,t1,2
     90a:	0791                	addi	a5,a5,4
                        C[i*N+j]=(MATRES)A[i*N+j] * (MATRES)val;
     90c:	03068d33          	mul	s10,a3,a6
     910:	ffa7ae23          	sw	s10,-4(a5)

00000914 <.L689>:
     914:	00071d83          	lh	s11,0(a4)
                for (j=0; j<N; j++) {
     918:	0791                	addi	a5,a5,4
     91a:	0709                	addi	a4,a4,2
                        C[i*N+j]=(MATRES)A[i*N+j] * (MATRES)val;
     91c:	030d80b3          	mul	ra,s11,a6
     920:	fe17ae23          	sw	ra,-4(a5)

00000924 <.L688>:
     924:	00071e83          	lh	t4,0(a4)
                for (j=0; j<N; j++) {
     928:	0791                	addi	a5,a5,4
     92a:	0709                	addi	a4,a4,2
                        C[i*N+j]=(MATRES)A[i*N+j] * (MATRES)val;
     92c:	030e8933          	mul	s2,t4,a6
     930:	ff27ae23          	sw	s2,-4(a5)

00000934 <.L687>:
     934:	00071403          	lh	s0,0(a4)
                for (j=0; j<N; j++) {
     938:	0791                	addi	a5,a5,4
     93a:	0709                	addi	a4,a4,2
                        C[i*N+j]=(MATRES)A[i*N+j] * (MATRES)val;
     93c:	030403b3          	mul	t2,s0,a6
     940:	fe77ae23          	sw	t2,-4(a5)

00000944 <.L686>:
     944:	00071a83          	lh	s5,0(a4)
                for (j=0; j<N; j++) {
     948:	0791                	addi	a5,a5,4
     94a:	0709                	addi	a4,a4,2
                        C[i*N+j]=(MATRES)A[i*N+j] * (MATRES)val;
     94c:	030a8b33          	mul	s6,s5,a6
     950:	ff67ae23          	sw	s6,-4(a5)

00000954 <.L685>:
     954:	00071c03          	lh	s8,0(a4)
                for (j=0; j<N; j++) {
     958:	0791                	addi	a5,a5,4
     95a:	0709                	addi	a4,a4,2
                        C[i*N+j]=(MATRES)A[i*N+j] * (MATRES)val;
     95c:	030c0cb3          	mul	s9,s8,a6
     960:	ff97ae23          	sw	s9,-4(a5)

00000964 <.L684>:
     964:	00071683          	lh	a3,0(a4)
                for (j=0; j<N; j++) {
     968:	0791                	addi	a5,a5,4
     96a:	0709                	addi	a4,a4,2
                        C[i*N+j]=(MATRES)A[i*N+j] * (MATRES)val;
     96c:	03068d33          	mul	s10,a3,a6
     970:	ffa7ae23          	sw	s10,-4(a5)
                for (j=0; j<N; j++) {
     974:	06e60763          	beq	a2,a4,9e2 <.L863>

00000978 <.L252>:
                        C[i*N+j]=(MATRES)A[i*N+j] * (MATRES)val;
     978:	00071d83          	lh	s11,0(a4)
     97c:	00271083          	lh	ra,2(a4)
     980:	00471a83          	lh	s5,4(a4)
     984:	00671903          	lh	s2,6(a4)
     988:	00871403          	lh	s0,8(a4)
     98c:	00a71383          	lh	t2,10(a4)
     990:	00c71e83          	lh	t4,12(a4)
     994:	00e71c83          	lh	s9,14(a4)
     998:	030d8c33          	mul	s8,s11,a6
                for (j=0; j<N; j++) {
     99c:	0741                	addi	a4,a4,16
     99e:	02078793          	addi	a5,a5,32
                        C[i*N+j]=(MATRES)A[i*N+j] * (MATRES)val;
     9a2:	03008b33          	mul	s6,ra,a6
     9a6:	ff87a023          	sw	s8,-32(a5)
     9aa:	030a86b3          	mul	a3,s5,a6
     9ae:	ff67a223          	sw	s6,-28(a5)
     9b2:	03090d33          	mul	s10,s2,a6
     9b6:	fed7a423          	sw	a3,-24(a5)
     9ba:	03040db3          	mul	s11,s0,a6
     9be:	ffa7a623          	sw	s10,-20(a5)
     9c2:	030380b3          	mul	ra,t2,a6
     9c6:	ffb7a823          	sw	s11,-16(a5)
     9ca:	030e8ab3          	mul	s5,t4,a6
     9ce:	fe17aa23          	sw	ra,-12(a5)
     9d2:	030c8933          	mul	s2,s9,a6
     9d6:	ff57ac23          	sw	s5,-8(a5)
     9da:	ff27ae23          	sw	s2,-4(a5)
                for (j=0; j<N; j++) {
     9de:	f8e61de3          	bne	a2,a4,978 <.L252>

000009e2 <.L863>:
        for (i=0; i<N; i++) {
     9e2:	001f8713          	addi	a4,t6,1 # ffff8001 <STACK+0xffafa51>

000009e6 <.LVL265>:
     9e6:	9f72                	add	t5,t5,t3
     9e8:	40a30633          	sub	a2,t1,a0
     9ec:	01f58463          	beq	a1,t6,9f4 <.L871>
     9f0:	8fba                	mv	t6,a4
     9f2:	b5d9                	j	8b8 <.L253>

000009f4 <.L871>:
     9f4:	4792                	lw	a5,4(sp)
     9f6:	002e1f93          	slli	t6,t3,0x2
     9fa:	41c00333          	neg	t1,t3
     9fe:	01f78733          	add	a4,a5,t6

00000a02 <.LBB378>:
                        if (tmp>clipval) {
     a02:	4d81                	li	s11,0
     a04:	4e01                	li	t3,0
     a06:	4601                	li	a2,0
     a08:	4801                	li	a6,0

00000a0a <.LBB385>:
        for (i=0; i<N; i++) {
     a0a:	00331693          	slli	a3,t1,0x3

00000a0e <.L254>:
                for (j=0; j<N; j++) {
     a0e:	00a702b3          	add	t0,a4,a0
     a12:	405708b3          	sub	a7,a4,t0
     a16:	ffc88413          	addi	s0,a7,-4
     a1a:	00245393          	srli	t2,s0,0x2
     a1e:	00138e93          	addi	t4,t2,1
     a22:	003efc93          	andi	s9,t4,3
        for (i=0; i<N; i++) {
     a26:	8f16                	mv	t5,t0
     a28:	100c8e63          	beqz	s9,b44 <.L258>
     a2c:	4c05                	li	s8,1
     a2e:	058c8963          	beq	s9,s8,a80 <.L690>
     a32:	4b09                	li	s6,2
     a34:	036c8463          	beq	s9,s6,a5c <.L691>

00000a38 <.LVL268>:
                        cur=C[i*N+j];
     a38:	8d72                	mv	s10,t3

00000a3a <.LVL269>:
     a3a:	0002ae03          	lw	t3,0(t0)

00000a3e <.LVL270>:
                                ret+=10;
     a3e:	0dc2                	slli	s11,s11,0x10
     a40:	010dd093          	srli	ra,s11,0x10
                        tmp+=cur;
     a44:	9672                	add	a2,a2,t3

00000a46 <.LVL271>:
                        if (tmp>clipval) {
     a46:	1cc4d163          	bge	s1,a2,c08 <.L851>
                                ret+=10;
     a4a:	00a08f93          	addi	t6,ra,10

00000a4e <.LVL272>:
     a4e:	010f9313          	slli	t1,t6,0x10
     a52:	41035d93          	srai	s11,t1,0x10

00000a56 <.LVL273>:
                                tmp=0;
     a56:	4601                	li	a2,0

00000a58 <.L852>:
                for (j=0; j<N; j++) {
     a58:	00428f13          	addi	t5,t0,4

00000a5c <.L691>:
                        cur=C[i*N+j];
     a5c:	88f2                	mv	a7,t3

00000a5e <.LVL276>:
     a5e:	000f2e03          	lw	t3,0(t5)

00000a62 <.LVL277>:
                                ret+=10;
     a62:	010d9793          	slli	a5,s11,0x10
     a66:	0107d413          	srli	s0,a5,0x10
                        tmp+=cur;
     a6a:	9672                	add	a2,a2,t3

00000a6c <.LVL278>:
                        if (tmp>clipval) {
     a6c:	18c4d563          	bge	s1,a2,bf6 <.L853>
                                ret+=10;
     a70:	00a40613          	addi	a2,s0,10

00000a74 <.LVL279>:
     a74:	01061c13          	slli	s8,a2,0x10
     a78:	410c5d93          	srai	s11,s8,0x10

00000a7c <.LVL280>:
                                tmp=0;
     a7c:	4601                	li	a2,0

00000a7e <.L854>:
                for (j=0; j<N; j++) {
     a7e:	0f11                	addi	t5,t5,4

00000a80 <.L690>:
                        cur=C[i*N+j];
     a80:	8b72                	mv	s6,t3

00000a82 <.LVL283>:
     a82:	000f2e03          	lw	t3,0(t5)

00000a86 <.LVL284>:
                                ret+=10;
     a86:	010d9d13          	slli	s10,s11,0x10
     a8a:	010d5d93          	srli	s11,s10,0x10
                        tmp+=cur;
     a8e:	9672                	add	a2,a2,t3

00000a90 <.LVL285>:
                        if (tmp>clipval) {
     a90:	14c4d663          	bge	s1,a2,bdc <.L855>
                                ret+=10;
     a94:	00ad8313          	addi	t1,s11,10
     a98:	01031893          	slli	a7,t1,0x10
     a9c:	01031793          	slli	a5,t1,0x10
     aa0:	0108d393          	srli	t2,a7,0x10

00000aa4 <.LVL286>:
     aa4:	4107dd93          	srai	s11,a5,0x10

00000aa8 <.LVL287>:
                                tmp=0;
     aa8:	4601                	li	a2,0

00000aaa <.L856>:
                for (j=0; j<N; j++) {
     aaa:	0f11                	addi	t5,t5,4

00000aac <.LVL289>:
     aac:	09e71c63          	bne	a4,t5,b44 <.L258>

00000ab0 <.L857>:
        for (i=0; i<N; i++) {
     ab0:	00180d13          	addi	s10,a6,1

00000ab4 <.LVL290>:
     ab4:	40d28733          	sub	a4,t0,a3
     ab8:	17058163          	beq	a1,a6,c1a <.L872>
     abc:	886a                	mv	a6,s10
     abe:	bf81                	j	a0e <.L254>

00000ac0 <.L874>:
                                ret += (cur>prev) ? 1 : 0;
     ac0:	008e2e33          	slt	t3,t3,s0
                        cur=C[i*N+j];
     ac4:	004f2083          	lw	ra,4(t5)
                                ret += (cur>prev) ? 1 : 0;
     ac8:	01ce8cb3          	add	s9,t4,t3
     acc:	010c9c13          	slli	s8,s9,0x10
     ad0:	410c5d13          	srai	s10,s8,0x10
                                ret+=10;
     ad4:	010d1a93          	slli	s5,s10,0x10
                        tmp+=cur;
     ad8:	001d8fb3          	add	t6,s11,ra
                for (j=0; j<N; j++) {
     adc:	0f11                	addi	t5,t5,4
                                ret+=10;
     ade:	010ad913          	srli	s2,s5,0x10
                        if (tmp>clipval) {
     ae2:	09f4dd63          	bge	s1,t6,b7c <.L873>

00000ae6 <.L630>:
                        cur=C[i*N+j];
     ae6:	004f2c83          	lw	s9,4(t5)
                                ret+=10;
     aea:	00a90393          	addi	t2,s2,10
     aee:	01039e93          	slli	t4,t2,0x10
     af2:	410ed413          	srai	s0,t4,0x10

00000af6 <.LVL292>:
                                tmp=0;
     af6:	4f81                	li	t6,0

00000af8 <.LVL293>:
                                ret+=10;
     af8:	01041e13          	slli	t3,s0,0x10
                        tmp+=cur;
     afc:	019f8633          	add	a2,t6,s9
                                ret+=10;
     b00:	010e5c13          	srli	s8,t3,0x10
                        if (tmp>clipval) {
     b04:	08c4de63          	bge	s1,a2,ba0 <.L859>

00000b08 <.L875>:
                        cur=C[i*N+j];
     b08:	008f2e03          	lw	t3,8(t5)
                                ret+=10;
     b0c:	00ac0a93          	addi	s5,s8,10
     b10:	010a9913          	slli	s2,s5,0x10
     b14:	41095093          	srai	ra,s2,0x10

00000b18 <.LVL294>:
                                tmp=0;
     b18:	4601                	li	a2,0

00000b1a <.LVL295>:
                                ret+=10;
     b1a:	01009f93          	slli	t6,ra,0x10
                        tmp+=cur;
     b1e:	9672                	add	a2,a2,t3

00000b20 <.LVL296>:
                                ret+=10;
     b20:	010fd313          	srli	t1,t6,0x10
                        if (tmp>clipval) {
     b24:	08c4df63          	bge	s1,a2,bc2 <.L861>

00000b28 <.L876>:
                                ret+=10;
     b28:	00a30c93          	addi	s9,t1,10
     b2c:	010c9c13          	slli	s8,s9,0x10
     b30:	010c9b13          	slli	s6,s9,0x10
     b34:	010c5393          	srli	t2,s8,0x10
     b38:	410b5d93          	srai	s11,s6,0x10

00000b3c <.LVL298>:
                                tmp=0;
     b3c:	4601                	li	a2,0

00000b3e <.L862>:
                for (j=0; j<N; j++) {
     b3e:	0f31                	addi	t5,t5,12
     b40:	f7e708e3          	beq	a4,t5,ab0 <.L857>

00000b44 <.L258>:
                        cur=C[i*N+j];
     b44:	000f2403          	lw	s0,0(t5)
                                ret+=10;
     b48:	010d9393          	slli	t2,s11,0x10
     b4c:	0103de93          	srli	t4,t2,0x10
                        tmp+=cur;
     b50:	00860db3          	add	s11,a2,s0
                        if (tmp>clipval) {
     b54:	f7b4d6e3          	bge	s1,s11,ac0 <.L874>
                        cur=C[i*N+j];
     b58:	004f2083          	lw	ra,4(t5)
                                ret+=10;
     b5c:	00ae8613          	addi	a2,t4,10
     b60:	01061b13          	slli	s6,a2,0x10
     b64:	410b5d13          	srai	s10,s6,0x10

00000b68 <.LVL301>:
                                tmp=0;
     b68:	4d81                	li	s11,0

00000b6a <.LVL302>:
                                ret+=10;
     b6a:	010d1a93          	slli	s5,s10,0x10
                        tmp+=cur;
     b6e:	001d8fb3          	add	t6,s11,ra
                for (j=0; j<N; j++) {
     b72:	0f11                	addi	t5,t5,4
                                ret+=10;
     b74:	010ad913          	srli	s2,s5,0x10
                        if (tmp>clipval) {
     b78:	f7f4c7e3          	blt	s1,t6,ae6 <.L630>

00000b7c <.L873>:
                                ret += (cur>prev) ? 1 : 0;
     b7c:	00142333          	slt	t1,s0,ra
                        cur=C[i*N+j];
     b80:	004f2c83          	lw	s9,4(t5)
                                ret += (cur>prev) ? 1 : 0;
     b84:	006908b3          	add	a7,s2,t1
     b88:	01089793          	slli	a5,a7,0x10
     b8c:	4107d413          	srai	s0,a5,0x10
                                ret+=10;
     b90:	01041e13          	slli	t3,s0,0x10
                        tmp+=cur;
     b94:	019f8633          	add	a2,t6,s9
                                ret+=10;
     b98:	010e5c13          	srli	s8,t3,0x10
                        if (tmp>clipval) {
     b9c:	f6c4c6e3          	blt	s1,a2,b08 <.L875>

00000ba0 <.L859>:
                                ret += (cur>prev) ? 1 : 0;
     ba0:	0190ab33          	slt	s6,ra,s9
                        cur=C[i*N+j];
     ba4:	008f2e03          	lw	t3,8(t5)
                                ret += (cur>prev) ? 1 : 0;
     ba8:	016c0d33          	add	s10,s8,s6
     bac:	010d1d93          	slli	s11,s10,0x10
     bb0:	410dd093          	srai	ra,s11,0x10

00000bb4 <.LVL303>:
                                ret+=10;
     bb4:	01009f93          	slli	t6,ra,0x10
                        tmp+=cur;
     bb8:	9672                	add	a2,a2,t3

00000bba <.LVL304>:
                                ret+=10;
     bba:	010fd313          	srli	t1,t6,0x10
                        if (tmp>clipval) {
     bbe:	f6c4c5e3          	blt	s1,a2,b28 <.L876>

00000bc2 <.L861>:
                                ret += (cur>prev) ? 1 : 0;
     bc2:	01cca8b3          	slt	a7,s9,t3
     bc6:	011307b3          	add	a5,t1,a7
     bca:	01079413          	slli	s0,a5,0x10
     bce:	01079e93          	slli	t4,a5,0x10
     bd2:	01045393          	srli	t2,s0,0x10
     bd6:	410edd93          	srai	s11,t4,0x10
     bda:	b795                	j	b3e <.L862>

00000bdc <.L855>:
     bdc:	01cb20b3          	slt	ra,s6,t3
     be0:	001d8ab3          	add	s5,s11,ra
     be4:	010a9913          	slli	s2,s5,0x10
     be8:	010a9f93          	slli	t6,s5,0x10
     bec:	01095393          	srli	t2,s2,0x10

00000bf0 <.LVL305>:
     bf0:	410fdd93          	srai	s11,t6,0x10
     bf4:	bd5d                	j	aaa <.L856>

00000bf6 <.L853>:
     bf6:	01c8a3b3          	slt	t2,a7,t3
     bfa:	00740eb3          	add	t4,s0,t2

00000bfe <.LVL307>:
     bfe:	010e9c93          	slli	s9,t4,0x10
     c02:	410cdd93          	srai	s11,s9,0x10
     c06:	bda5                	j	a7e <.L854>

00000c08 <.L851>:
     c08:	01cd2ab3          	slt	s5,s10,t3
     c0c:	01508933          	add	s2,ra,s5

00000c10 <.LVL309>:
     c10:	01091f13          	slli	t5,s2,0x10
     c14:	410f5d93          	srai	s11,t5,0x10
     c18:	b581                	j	a58 <.L852>

00000c1a <.L872>:
                   crc &= 0x7fff;
    }
        return crc;
}
ee_u16 crcu16(ee_u16 newval, ee_u16 crc) {
        crc=crcu8( (ee_u8) (newval)                             ,crc);
     c1a:	0ffdf813          	andi	a6,s11,255

00000c1e <.LBB391>:
                crc >>= 1;
     c1e:	00187293          	andi	t0,a6,1
     c22:	6aa9                	lui	s5,0xa
     c24:	405000b3          	neg	ra,t0
     c28:	001a8913          	addi	s2,s5,1 # a001 <.LLST161+0x75>
     c2c:	00197e33          	and	t3,s2,ra

00000c30 <.LVL311>:
                data >>= 1;
     c30:	00185f93          	srli	t6,a6,0x1
                x16 = (ee_u8)((data & 1) ^ ((ee_u8)crc & 1));
     c34:	01cfc333          	xor	t1,t6,t3
                if (x16 == 1)
     c38:	00137613          	andi	a2,t1,1

00000c3c <.LBE391>:
        crc=crcu8( (ee_u8) ((newval)>>8)        ,crc);
     c3c:	0083d713          	srli	a4,t2,0x8

00000c40 <.LBB396>:
                data >>= 1;
     c40:	00285693          	srli	a3,a6,0x2

00000c44 <.LVL313>:
                crc >>= 1;
     c44:	001e5793          	srli	a5,t3,0x1
                if (x16 == 1)
     c48:	ca09                	beqz	a2,c5a <.L248>

00000c4a <.LVL314>:
                   crc |= 0x8000;
     c4a:	78e9                	lui	a7,0xffffa
     c4c:	00188413          	addi	s0,a7,1 # ffffa001 <STACK+0xffb1a51>
     c50:	8fa1                	xor	a5,a5,s0
     c52:	01079393          	slli	t2,a5,0x10
     c56:	0103d793          	srli	a5,t2,0x10

00000c5a <.L248>:
                x16 = (ee_u8)((data & 1) ^ ((ee_u8)crc & 1));
     c5a:	00f6ceb3          	xor	t4,a3,a5
                if (x16 == 1)
     c5e:	001efc93          	andi	s9,t4,1
                data >>= 1;
     c62:	0016dc13          	srli	s8,a3,0x1

00000c66 <.LVL317>:
                crc >>= 1;
     c66:	0017d593          	srli	a1,a5,0x1
                if (x16 == 1)
     c6a:	000c8b63          	beqz	s9,c80 <.L260>

00000c6e <.LVL318>:
                   crc |= 0x8000;
     c6e:	7b69                	lui	s6,0xffffa
     c70:	001b0f13          	addi	t5,s6,1 # ffffa001 <STACK+0xffb1a51>
     c74:	01e5cdb3          	xor	s11,a1,t5

00000c78 <.LVL319>:
     c78:	010d9513          	slli	a0,s11,0x10
     c7c:	01055593          	srli	a1,a0,0x10

00000c80 <.L260>:
                x16 = (ee_u8)((data & 1) ^ ((ee_u8)crc & 1));
     c80:	00bc4d33          	xor	s10,s8,a1
                if (x16 == 1)
     c84:	001d7813          	andi	a6,s10,1
                data >>= 1;
     c88:	0026d293          	srli	t0,a3,0x2

00000c8c <.LVL321>:
                crc >>= 1;
     c8c:	0015df93          	srli	t6,a1,0x1
                if (x16 == 1)
     c90:	00080b63          	beqz	a6,ca6 <.L261>

00000c94 <.LVL322>:
                   crc |= 0x8000;
     c94:	70e9                	lui	ra,0xffffa
     c96:	00108a93          	addi	s5,ra,1 # ffffa001 <STACK+0xffb1a51>
     c9a:	015fc933          	xor	s2,t6,s5

00000c9e <.LVL323>:
     c9e:	01091e13          	slli	t3,s2,0x10
     ca2:	010e5f93          	srli	t6,t3,0x10

00000ca6 <.L261>:
                x16 = (ee_u8)((data & 1) ^ ((ee_u8)crc & 1));
     ca6:	005fc333          	xor	t1,t6,t0
                if (x16 == 1)
     caa:	00137893          	andi	a7,t1,1
                data >>= 1;
     cae:	0036d613          	srli	a2,a3,0x3

00000cb2 <.LVL325>:
                crc >>= 1;
     cb2:	001fdc93          	srli	s9,t6,0x1
                if (x16 == 1)
     cb6:	00088b63          	beqz	a7,ccc <.L262>

00000cba <.LVL326>:
                   crc |= 0x8000;
     cba:	7469                	lui	s0,0xffffa
     cbc:	00140793          	addi	a5,s0,1 # ffffa001 <STACK+0xffb1a51>
     cc0:	00fcc3b3          	xor	t2,s9,a5

00000cc4 <.LVL327>:
     cc4:	01039e93          	slli	t4,t2,0x10
     cc8:	010edc93          	srli	s9,t4,0x10

00000ccc <.L262>:
                x16 = (ee_u8)((data & 1) ^ ((ee_u8)crc & 1));
     ccc:	01964c33          	xor	s8,a2,s9
                if (x16 == 1)
     cd0:	001c7b13          	andi	s6,s8,1
                data >>= 1;
     cd4:	0046df13          	srli	t5,a3,0x4

00000cd8 <.LVL329>:
                crc >>= 1;
     cd8:	001cd813          	srli	a6,s9,0x1
                if (x16 == 1)
     cdc:	000b0b63          	beqz	s6,cf2 <.L263>

00000ce0 <.LVL330>:
                   crc |= 0x8000;
     ce0:	7569                	lui	a0,0xffffa
     ce2:	00150593          	addi	a1,a0,1 # ffffa001 <STACK+0xffb1a51>
     ce6:	00b84db3          	xor	s11,a6,a1

00000cea <.LVL331>:
     cea:	010d9d13          	slli	s10,s11,0x10
     cee:	010d5813          	srli	a6,s10,0x10

00000cf2 <.L263>:
                x16 = (ee_u8)((data & 1) ^ ((ee_u8)crc & 1));
     cf2:	01e842b3          	xor	t0,a6,t5
                if (x16 == 1)
     cf6:	0012f093          	andi	ra,t0,1
                data >>= 1;
     cfa:	8295                	srli	a3,a3,0x5

00000cfc <.LVL333>:
                crc >>= 1;
     cfc:	00185313          	srli	t1,a6,0x1
                if (x16 == 1)
     d00:	00008b63          	beqz	ra,d16 <.L264>

00000d04 <.LVL334>:
                   crc |= 0x8000;
     d04:	7ae9                	lui	s5,0xffffa
     d06:	001a8913          	addi	s2,s5,1 # ffffa001 <STACK+0xffb1a51>
     d0a:	01234e33          	xor	t3,t1,s2

00000d0e <.LVL335>:
     d0e:	010e1f93          	slli	t6,t3,0x10
     d12:	010fd313          	srli	t1,t6,0x10

00000d16 <.L264>:
                if (x16 == 1)
     d16:	00137893          	andi	a7,t1,1
                crc >>= 1;
     d1a:	00135e93          	srli	t4,t1,0x1
                if (x16 == 1)
     d1e:	00d88b63          	beq	a7,a3,d34 <.L265>

00000d22 <.LVL337>:
                   crc |= 0x8000;
     d22:	7669                	lui	a2,0xffffa
     d24:	00160413          	addi	s0,a2,1 # ffffa001 <STACK+0xffb1a51>
     d28:	008ec7b3          	xor	a5,t4,s0

00000d2c <.LVL338>:
     d2c:	01079393          	slli	t2,a5,0x10
     d30:	0103de93          	srli	t4,t2,0x10

00000d34 <.L265>:
                x16 = (ee_u8)((data & 1) ^ ((ee_u8)crc & 1));
     d34:	01d74cb3          	xor	s9,a4,t4
                if (x16 == 1)
     d38:	001cfc13          	andi	s8,s9,1
                data >>= 1;
     d3c:	00175b13          	srli	s6,a4,0x1

00000d40 <.LVL340>:
                if (x16 == 1)
     d40:	001edd13          	srli	s10,t4,0x1
     d44:	000c0b63          	beqz	s8,d5a <.L266>

00000d48 <.LVL341>:
                   crc |= 0x8000;
     d48:	7f69                	lui	t5,0xffffa
     d4a:	001f0513          	addi	a0,t5,1 # ffffa001 <STACK+0xffb1a51>
     d4e:	00ad45b3          	xor	a1,s10,a0

00000d52 <.LVL342>:
     d52:	01059d93          	slli	s11,a1,0x10
     d56:	010ddd13          	srli	s10,s11,0x10

00000d5a <.L266>:
                x16 = (ee_u8)((data & 1) ^ ((ee_u8)crc & 1));
     d5a:	01ab4833          	xor	a6,s6,s10
                if (x16 == 1)
     d5e:	00187293          	andi	t0,a6,1
                data >>= 1;
     d62:	00275093          	srli	ra,a4,0x2

00000d66 <.LVL344>:
                if (x16 == 1)
     d66:	001d5f93          	srli	t6,s10,0x1
     d6a:	00028b63          	beqz	t0,d80 <.L267>

00000d6e <.LVL345>:
                   crc |= 0x8000;
     d6e:	76e9                	lui	a3,0xffffa
     d70:	00168a93          	addi	s5,a3,1 # ffffa001 <STACK+0xffb1a51>
     d74:	015fc933          	xor	s2,t6,s5

00000d78 <.LVL346>:
     d78:	01091e13          	slli	t3,s2,0x10
     d7c:	010e5f93          	srli	t6,t3,0x10

00000d80 <.L267>:
                x16 = (ee_u8)((data & 1) ^ ((ee_u8)crc & 1));
     d80:	001fc333          	xor	t1,t6,ra
                if (x16 == 1)
     d84:	00137893          	andi	a7,t1,1
                data >>= 1;
     d88:	00375613          	srli	a2,a4,0x3

00000d8c <.LVL348>:
                if (x16 == 1)
     d8c:	001fdc93          	srli	s9,t6,0x1
     d90:	00088b63          	beqz	a7,da6 <.L268>

00000d94 <.LVL349>:
                   crc |= 0x8000;
     d94:	7469                	lui	s0,0xffffa
     d96:	00140793          	addi	a5,s0,1 # ffffa001 <STACK+0xffb1a51>
     d9a:	00fcc3b3          	xor	t2,s9,a5

00000d9e <.LVL350>:
     d9e:	01039e93          	slli	t4,t2,0x10
     da2:	010edc93          	srli	s9,t4,0x10

00000da6 <.L268>:
                x16 = (ee_u8)((data & 1) ^ ((ee_u8)crc & 1));
     da6:	00cccc33          	xor	s8,s9,a2
                if (x16 == 1)
     daa:	001c7b13          	andi	s6,s8,1
                data >>= 1;
     dae:	00475f13          	srli	t5,a4,0x4

00000db2 <.LVL352>:
                if (x16 == 1)
     db2:	001cd813          	srli	a6,s9,0x1
     db6:	000b0b63          	beqz	s6,dcc <.L269>

00000dba <.LVL353>:
                   crc |= 0x8000;
     dba:	7569                	lui	a0,0xffffa
     dbc:	00150593          	addi	a1,a0,1 # ffffa001 <STACK+0xffb1a51>
     dc0:	00b84db3          	xor	s11,a6,a1

00000dc4 <.LVL354>:
     dc4:	010d9d13          	slli	s10,s11,0x10
     dc8:	010d5813          	srli	a6,s10,0x10

00000dcc <.L269>:
                x16 = (ee_u8)((data & 1) ^ ((ee_u8)crc & 1));
     dcc:	010f42b3          	xor	t0,t5,a6
                if (x16 == 1)
     dd0:	0012f093          	andi	ra,t0,1
                data >>= 1;
     dd4:	00575693          	srli	a3,a4,0x5

00000dd8 <.LVL356>:
                if (x16 == 1)
     dd8:	00185313          	srli	t1,a6,0x1
     ddc:	00008b63          	beqz	ra,df2 <.L270>

00000de0 <.LVL357>:
                   crc |= 0x8000;
     de0:	7ae9                	lui	s5,0xffffa
     de2:	001a8913          	addi	s2,s5,1 # ffffa001 <STACK+0xffb1a51>
     de6:	01234e33          	xor	t3,t1,s2

00000dea <.LVL358>:
     dea:	010e1f93          	slli	t6,t3,0x10
     dee:	010fd313          	srli	t1,t6,0x10

00000df2 <.L270>:
                x16 = (ee_u8)((data & 1) ^ ((ee_u8)crc & 1));
     df2:	00d348b3          	xor	a7,t1,a3
                if (x16 == 1)
     df6:	0018f613          	andi	a2,a7,1
                data >>= 1;
     dfa:	00675413          	srli	s0,a4,0x6

00000dfe <.LVL360>:
                if (x16 == 1)
     dfe:	00135c13          	srli	s8,t1,0x1
     e02:	ca11                	beqz	a2,e16 <.L271>

00000e04 <.LVL361>:
                   crc |= 0x8000;
     e04:	77e9                	lui	a5,0xffffa
     e06:	00178393          	addi	t2,a5,1 # ffffa001 <STACK+0xffb1a51>
     e0a:	007c4eb3          	xor	t4,s8,t2

00000e0e <.LVL362>:
     e0e:	010e9c93          	slli	s9,t4,0x10
     e12:	010cdc13          	srli	s8,s9,0x10

00000e16 <.L271>:
                x16 = (ee_u8)((data & 1) ^ ((ee_u8)crc & 1));
     e16:	01844b33          	xor	s6,s0,s8
                if (x16 == 1)
     e1a:	001b7f13          	andi	t5,s6,1
                data >>= 1;
     e1e:	831d                	srli	a4,a4,0x7

00000e20 <.LVL364>:
                if (x16 == 1)
     e20:	001c5813          	srli	a6,s8,0x1
     e24:	000f0b63          	beqz	t5,e3a <.L272>

00000e28 <.LVL365>:
                   crc |= 0x8000;
     e28:	7569                	lui	a0,0xffffa
     e2a:	00150593          	addi	a1,a0,1 # ffffa001 <STACK+0xffb1a51>
     e2e:	00b84db3          	xor	s11,a6,a1

00000e32 <.LVL366>:
     e32:	010d9d13          	slli	s10,s11,0x10
     e36:	010d5813          	srli	a6,s10,0x10

00000e3a <.L272>:
                if (x16 == 1)
     e3a:	00187293          	andi	t0,a6,1
     e3e:	00185d93          	srli	s11,a6,0x1
     e42:	00e28b63          	beq	t0,a4,e58 <.L273>

00000e46 <.LVL368>:
                   crc |= 0x8000;
     e46:	70e9                	lui	ra,0xffffa
     e48:	00108693          	addi	a3,ra,1 # ffffa001 <STACK+0xffb1a51>
     e4c:	00ddcab3          	xor	s5,s11,a3

00000e50 <.LVL369>:
     e50:	010a9913          	slli	s2,s5,0x10
     e54:	01095d93          	srli	s11,s2,0x10

00000e58 <.L273>:
        for (i=0; i<N; i++) {
     e58:	00099463          	bnez	s3,e60 <.L273+0x8>
     e5c:	3b20106f          	j	220e <.L357>
                C[i]=0;
     e60:	4c92                	lw	s9,4(sp)
     e62:	00299413          	slli	s0,s3,0x2
     e66:	4581                	li	a1,0
     e68:	8622                	mv	a2,s0
     e6a:	8566                	mv	a0,s9
     e6c:	75c060ef          	jal	ra,75c8 <memset>

00000e70 <.LVL371>:
     e70:	4d32                	lw	s10,12(sp)
     e72:	00199313          	slli	t1,s3,0x1
     e76:	8566                	mv	a0,s9
     e78:	019405b3          	add	a1,s0,s9
     e7c:	017302b3          	add	t0,t1,s7
     e80:	4381                	li	t2,0
     e82:	c426                	sw	s1,8(sp)

00000e84 <.L276>:
                for (j=0; j<N; j++) {
     e84:	417284b3          	sub	s1,t0,s7
     e88:	ffe48613          	addi	a2,s1,-2 # ffffeffe <STACK+0xffb6a4e>
     e8c:	00165793          	srli	a5,a2,0x1
     e90:	00178e93          	addi	t4,a5,1
     e94:	00139c13          	slli	s8,t2,0x1
     e98:	007efb13          	andi	s6,t4,7
     e9c:	018d06b3          	add	a3,s10,s8
                C[i]=0;
     ea0:	865e                	mv	a2,s7
     ea2:	4781                	li	a5,0
     ea4:	0a0b0563          	beqz	s6,f4e <.L275>

00000ea8 <.LVL373>:
     ea8:	4f05                	li	t5,1
     eaa:	09eb0763          	beq	s6,t5,f38 <.L692>
     eae:	4709                	li	a4,2
     eb0:	06eb0b63          	beq	s6,a4,f26 <.L693>
     eb4:	480d                	li	a6,3
     eb6:	050b0f63          	beq	s6,a6,f14 <.L694>
     eba:	4091                	li	ra,4
     ebc:	041b0363          	beq	s6,ra,f02 <.L695>
     ec0:	4a95                	li	s5,5
     ec2:	035b0763          	beq	s6,s5,ef0 <.L696>
     ec6:	4919                	li	s2,6
     ec8:	012b0b63          	beq	s6,s2,ede <.L697>

00000ecc <.LVL374>:
                        C[i]+=(MATRES)A[i*N+j] * (MATRES)B[j];
     ecc:	00069e03          	lh	t3,0(a3)
     ed0:	000b9f83          	lh	t6,0(s7)
                for (j=0; j<N; j++) {
     ed4:	0689                	addi	a3,a3,2
     ed6:	002b8613          	addi	a2,s7,2

00000eda <.LVL375>:
                        C[i]+=(MATRES)A[i*N+j] * (MATRES)B[j];
     eda:	03fe07b3          	mul	a5,t3,t6

00000ede <.L697>:
     ede:	00069403          	lh	s0,0(a3)
     ee2:	00061c83          	lh	s9,0(a2)
                for (j=0; j<N; j++) {
     ee6:	0689                	addi	a3,a3,2
     ee8:	0609                	addi	a2,a2,2
                        C[i]+=(MATRES)A[i*N+j] * (MATRES)B[j];
     eea:	03940333          	mul	t1,s0,s9
     eee:	979a                	add	a5,a5,t1

00000ef0 <.L696>:
     ef0:	00069883          	lh	a7,0(a3)
     ef4:	00061483          	lh	s1,0(a2)
                for (j=0; j<N; j++) {
     ef8:	0689                	addi	a3,a3,2
     efa:	0609                	addi	a2,a2,2
                        C[i]+=(MATRES)A[i*N+j] * (MATRES)B[j];
     efc:	02988eb3          	mul	t4,a7,s1
     f00:	97f6                	add	a5,a5,t4

00000f02 <.L695>:
     f02:	00069c03          	lh	s8,0(a3)
     f06:	00061b03          	lh	s6,0(a2)
                for (j=0; j<N; j++) {
     f0a:	0689                	addi	a3,a3,2
     f0c:	0609                	addi	a2,a2,2
                        C[i]+=(MATRES)A[i*N+j] * (MATRES)B[j];
     f0e:	036c0f33          	mul	t5,s8,s6
     f12:	97fa                	add	a5,a5,t5

00000f14 <.L694>:
     f14:	00069703          	lh	a4,0(a3)
     f18:	00061803          	lh	a6,0(a2)
                for (j=0; j<N; j++) {
     f1c:	0689                	addi	a3,a3,2
     f1e:	0609                	addi	a2,a2,2
                        C[i]+=(MATRES)A[i*N+j] * (MATRES)B[j];
     f20:	030700b3          	mul	ra,a4,a6
     f24:	9786                	add	a5,a5,ra

00000f26 <.L693>:
     f26:	00069a83          	lh	s5,0(a3)
     f2a:	00061903          	lh	s2,0(a2)
                for (j=0; j<N; j++) {
     f2e:	0689                	addi	a3,a3,2
     f30:	0609                	addi	a2,a2,2
                        C[i]+=(MATRES)A[i*N+j] * (MATRES)B[j];
     f32:	032a8e33          	mul	t3,s5,s2
     f36:	97f2                	add	a5,a5,t3

00000f38 <.L692>:
     f38:	00069f83          	lh	t6,0(a3)
     f3c:	00061403          	lh	s0,0(a2)
                for (j=0; j<N; j++) {
     f40:	0609                	addi	a2,a2,2
     f42:	0689                	addi	a3,a3,2
                        C[i]+=(MATRES)A[i*N+j] * (MATRES)B[j];
     f44:	028f8cb3          	mul	s9,t6,s0
     f48:	97e6                	add	a5,a5,s9
                for (j=0; j<N; j++) {
     f4a:	08560563          	beq	a2,t0,fd4 <.L850>

00000f4e <.L275>:
                        C[i]+=(MATRES)A[i*N+j] * (MATRES)B[j];
     f4e:	00069303          	lh	t1,0(a3)
     f52:	00061883          	lh	a7,0(a2)
     f56:	00269083          	lh	ra,2(a3)
     f5a:	00261a83          	lh	s5,2(a2)
     f5e:	03130733          	mul	a4,t1,a7
     f62:	00469403          	lh	s0,4(a3)
     f66:	00461c03          	lh	s8,4(a2)
     f6a:	00669f03          	lh	t5,6(a3)
     f6e:	00661b03          	lh	s6,6(a2)
     f72:	00869e03          	lh	t3,8(a3)
     f76:	00861903          	lh	s2,8(a2)
     f7a:	00a69c83          	lh	s9,10(a3)
     f7e:	00a61483          	lh	s1,10(a2)
     f82:	00c69303          	lh	t1,12(a3)
     f86:	035088b3          	mul	a7,ra,s5
     f8a:	00c61f83          	lh	t6,12(a2)
     f8e:	00e69803          	lh	a6,14(a3)
     f92:	00e61e83          	lh	t4,14(a2)
     f96:	97ba                	add	a5,a5,a4
                for (j=0; j<N; j++) {
     f98:	0641                	addi	a2,a2,16
     f9a:	06c1                	addi	a3,a3,16
                        C[i]+=(MATRES)A[i*N+j] * (MATRES)B[j];
     f9c:	038400b3          	mul	ra,s0,s8
     fa0:	01178ab3          	add	s5,a5,a7
     fa4:	036f0433          	mul	s0,t5,s6
     fa8:	001a8c33          	add	s8,s5,ra
     fac:	032e0f33          	mul	t5,t3,s2
     fb0:	008c0b33          	add	s6,s8,s0
     fb4:	029c8733          	mul	a4,s9,s1
     fb8:	01eb0e33          	add	t3,s6,t5
     fbc:	03f30933          	mul	s2,t1,t6
     fc0:	00ee0cb3          	add	s9,t3,a4
     fc4:	03d804b3          	mul	s1,a6,t4
     fc8:	012c8333          	add	t1,s9,s2
     fcc:	009307b3          	add	a5,t1,s1
                for (j=0; j<N; j++) {
     fd0:	f6561fe3          	bne	a2,t0,f4e <.L275>

00000fd4 <.L850>:
     fd4:	c11c                	sw	a5,0(a0)
        for (i=0; i<N; i++) {
     fd6:	0511                	addi	a0,a0,4
     fd8:	93ce                	add	t2,t2,s3
     fda:	eaa595e3          	bne	a1,a0,e84 <.L276>
     fde:	44a2                	lw	s1,8(sp)
     fe0:	413002b3          	neg	t0,s3
     fe4:	00229513          	slli	a0,t0,0x2

00000fe8 <.LBB412>:
                        if (tmp>clipval) {
     fe8:	4781                	li	a5,0
     fea:	4301                	li	t1,0
     fec:	4801                	li	a6,0
     fee:	4681                	li	a3,0

00000ff0 <.LBB413>:
        for (i=0; i<N; i++) {
     ff0:	00329613          	slli	a2,t0,0x3

00000ff4 <.L277>:
                for (j=0; j<N; j++) {
     ff4:	00b50d33          	add	s10,a0,a1
     ff8:	41a58fb3          	sub	t6,a1,s10
     ffc:	ffcf8e93          	addi	t4,t6,-4
    1000:	002ed893          	srli	a7,t4,0x2
    1004:	00188093          	addi	ra,a7,1
    1008:	0030fa93          	andi	s5,ra,3

0000100c <.LBB419>:
                        if (tmp>clipval) {
    100c:	88ea                	mv	a7,s10
    100e:	520a8263          	beqz	s5,1532 <.L280>
    1012:	4405                	li	s0,1
    1014:	048a8963          	beq	s5,s0,1066 <.L698>
    1018:	4c09                	li	s8,2
    101a:	038a8463          	beq	s5,s8,1042 <.L699>

0000101e <.LBB420>:
                        cur=C[i*N+j];
    101e:	8f1a                	mv	t5,t1

00001020 <.LVL378>:
    1020:	000d2303          	lw	t1,0(s10)

00001024 <.LVL379>:
                                ret+=10;
    1024:	07c2                	slli	a5,a5,0x10
    1026:	0107db13          	srli	s6,a5,0x10
                        tmp+=cur;
    102a:	981a                	add	a6,a6,t1

0000102c <.LVL380>:
                        if (tmp>clipval) {
    102c:	5d04df63          	bge	s1,a6,160a <.L838>
                                ret+=10;
    1030:	00ab0813          	addi	a6,s6,10

00001034 <.LVL381>:
    1034:	01081c93          	slli	s9,a6,0x10
    1038:	410cd793          	srai	a5,s9,0x10

0000103c <.LVL382>:
                                tmp=0;
    103c:	4801                	li	a6,0

0000103e <.L839>:
                for (j=0; j<N; j++) {
    103e:	004d0893          	addi	a7,s10,4

00001042 <.L699>:
                        cur=C[i*N+j];
    1042:	839a                	mv	t2,t1

00001044 <.LVL385>:
    1044:	0008a303          	lw	t1,0(a7)

00001048 <.LVL386>:
                                ret+=10;
    1048:	01079293          	slli	t0,a5,0x10
    104c:	0102df93          	srli	t6,t0,0x10
                        tmp+=cur;
    1050:	981a                	add	a6,a6,t1

00001052 <.LVL387>:
                        if (tmp>clipval) {
    1052:	5b04d363          	bge	s1,a6,15f8 <.L840>
                                ret+=10;
    1056:	00af8413          	addi	s0,t6,10

0000105a <.LVL388>:
    105a:	01041c13          	slli	s8,s0,0x10
    105e:	410c5793          	srai	a5,s8,0x10

00001062 <.LVL389>:
                                tmp=0;
    1062:	4801                	li	a6,0

00001064 <.L841>:
                for (j=0; j<N; j++) {
    1064:	0891                	addi	a7,a7,4

00001066 <.L698>:
                        cur=C[i*N+j];
    1066:	8f1a                	mv	t5,t1

00001068 <.LVL392>:
    1068:	0008a303          	lw	t1,0(a7)

0000106c <.LVL393>:
                                ret+=10;
    106c:	07c2                	slli	a5,a5,0x10
    106e:	0107db13          	srli	s6,a5,0x10
                        tmp+=cur;
    1072:	981a                	add	a6,a6,t1

00001074 <.LVL394>:
                        if (tmp>clipval) {
    1074:	5704d563          	bge	s1,a6,15de <.L842>
                                ret+=10;
    1078:	00ab0813          	addi	a6,s6,10
    107c:	01081393          	slli	t2,a6,0x10
    1080:	01081293          	slli	t0,a6,0x10
    1084:	0103de93          	srli	t4,t2,0x10

00001088 <.LVL395>:
    1088:	4102d793          	srai	a5,t0,0x10

0000108c <.LVL396>:
                                tmp=0;
    108c:	4801                	li	a6,0

0000108e <.L843>:
                for (j=0; j<N; j++) {
    108e:	0891                	addi	a7,a7,4

00001090 <.LVL398>:
    1090:	4b159163          	bne	a1,a7,1532 <.L280>

00001094 <.L844>:
        for (i=0; i<N; i++) {
    1094:	0685                	addi	a3,a3,1

00001096 <.LVL399>:
    1096:	40cd05b3          	sub	a1,s10,a2
    109a:	f4d99de3          	bne	s3,a3,ff4 <.L277>

0000109e <.LBB421>:
        crc=crcu8( (ee_u8) (newval)                             ,crc);
    109e:	0ff7ff93          	andi	t6,a5,255
        crc=crcu8( (ee_u8) ((newval)>>8)        ,crc);
    10a2:	008ede13          	srli	t3,t4,0x8

000010a6 <.L274>:
                x16 = (ee_u8)((data & 1) ^ ((ee_u8)crc & 1));
    10a6:	01bfcd33          	xor	s10,t6,s11
                if (x16 == 1)
    10aa:	001d7f13          	andi	t5,s10,1
                data >>= 1;
    10ae:	001fdb13          	srli	s6,t6,0x1

000010b2 <.LVL401>:
                if (x16 == 1)
    10b2:	001dd393          	srli	t2,s11,0x1
    10b6:	000f0b63          	beqz	t5,10cc <.L282>

000010ba <.LVL402>:
                   crc |= 0x8000;
    10ba:	7769                	lui	a4,0xffffa
    10bc:	00170913          	addi	s2,a4,1 # ffffa001 <STACK+0xffb1a51>
    10c0:	0123ccb3          	xor	s9,t2,s2

000010c4 <.LVL403>:
    10c4:	010c9313          	slli	t1,s9,0x10
    10c8:	01035393          	srli	t2,t1,0x10

000010cc <.L282>:
                x16 = (ee_u8)((data & 1) ^ ((ee_u8)crc & 1));
    10cc:	007b4833          	xor	a6,s6,t2
                if (x16 == 1)
    10d0:	00187293          	andi	t0,a6,1
                data >>= 1;
    10d4:	002fde93          	srli	t4,t6,0x2

000010d8 <.LVL405>:
                if (x16 == 1)
    10d8:	0013dc13          	srli	s8,t2,0x1
    10dc:	00028b63          	beqz	t0,10f2 <.L283>

000010e0 <.LVL406>:
                   crc |= 0x8000;
    10e0:	70e9                	lui	ra,0xffffa
    10e2:	00108a93          	addi	s5,ra,1 # ffffa001 <STACK+0xffb1a51>
    10e6:	015c47b3          	xor	a5,s8,s5

000010ea <.LVL407>:
    10ea:	01079413          	slli	s0,a5,0x10
    10ee:	01045c13          	srli	s8,s0,0x10

000010f2 <.L283>:
                x16 = (ee_u8)((data & 1) ^ ((ee_u8)crc & 1));
    10f2:	018ec8b3          	xor	a7,t4,s8
                if (x16 == 1)
    10f6:	0018f513          	andi	a0,a7,1
                data >>= 1;
    10fa:	003fdd93          	srli	s11,t6,0x3

000010fe <.LVL409>:
                if (x16 == 1)
    10fe:	001c5f13          	srli	t5,s8,0x1
    1102:	c911                	beqz	a0,1116 <.L284>

00001104 <.LVL410>:
                   crc |= 0x8000;
    1104:	7669                	lui	a2,0xffffa
    1106:	00160693          	addi	a3,a2,1 # ffffa001 <STACK+0xffb1a51>
    110a:	00df45b3          	xor	a1,t5,a3

0000110e <.LVL411>:
    110e:	01059d13          	slli	s10,a1,0x10
    1112:	010d5f13          	srli	t5,s10,0x10

00001116 <.L284>:
                x16 = (ee_u8)((data & 1) ^ ((ee_u8)crc & 1));
    1116:	01edcb33          	xor	s6,s11,t5
                if (x16 == 1)
    111a:	001b7713          	andi	a4,s6,1
                data >>= 1;
    111e:	004fd913          	srli	s2,t6,0x4

00001122 <.LVL413>:
                if (x16 == 1)
    1122:	001f5293          	srli	t0,t5,0x1
    1126:	cb11                	beqz	a4,113a <.L285>

00001128 <.LVL414>:
                   crc |= 0x8000;
    1128:	7ce9                	lui	s9,0xffffa
    112a:	001c8313          	addi	t1,s9,1 # ffffa001 <STACK+0xffb1a51>
    112e:	0062c3b3          	xor	t2,t0,t1

00001132 <.LVL415>:
    1132:	01039813          	slli	a6,t2,0x10
    1136:	01085293          	srli	t0,a6,0x10

0000113a <.L285>:
                x16 = (ee_u8)((data & 1) ^ ((ee_u8)crc & 1));
    113a:	00594eb3          	xor	t4,s2,t0
                if (x16 == 1)
    113e:	001ef093          	andi	ra,t4,1
                data >>= 1;
    1142:	005fda93          	srli	s5,t6,0x5

00001146 <.LVL417>:
                if (x16 == 1)
    1146:	0012d513          	srli	a0,t0,0x1
    114a:	00008b63          	beqz	ra,1160 <.L286>

0000114e <.LVL418>:
                   crc |= 0x8000;
    114e:	7469                	lui	s0,0xffffa
    1150:	00140c13          	addi	s8,s0,1 # ffffa001 <STACK+0xffb1a51>
    1154:	018547b3          	xor	a5,a0,s8

00001158 <.LVL419>:
    1158:	01079893          	slli	a7,a5,0x10
    115c:	0108d513          	srli	a0,a7,0x10

00001160 <.L286>:
                x16 = (ee_u8)((data & 1) ^ ((ee_u8)crc & 1));
    1160:	00aacdb3          	xor	s11,s5,a0
                if (x16 == 1)
    1164:	001df693          	andi	a3,s11,1
                data >>= 1;
    1168:	006fd613          	srli	a2,t6,0x6

0000116c <.LVL421>:
                if (x16 == 1)
    116c:	00155713          	srli	a4,a0,0x1
    1170:	ca91                	beqz	a3,1184 <.L287>

00001172 <.LVL422>:
                   crc |= 0x8000;
    1172:	75e9                	lui	a1,0xffffa
    1174:	00158d13          	addi	s10,a1,1 # ffffa001 <STACK+0xffb1a51>
    1178:	01a74f33          	xor	t5,a4,s10

0000117c <.LVL423>:
    117c:	010f1b13          	slli	s6,t5,0x10
    1180:	010b5713          	srli	a4,s6,0x10

00001184 <.L287>:
                x16 = (ee_u8)((data & 1) ^ ((ee_u8)crc & 1));
    1184:	00e64933          	xor	s2,a2,a4
                if (x16 == 1)
    1188:	00197c93          	andi	s9,s2,1
                data >>= 1;
    118c:	007fdf93          	srli	t6,t6,0x7

00001190 <.LVL425>:
                if (x16 == 1)
    1190:	00175e93          	srli	t4,a4,0x1
    1194:	000c8b63          	beqz	s9,11aa <.L288>

00001198 <.LVL426>:
                   crc |= 0x8000;
    1198:	7369                	lui	t1,0xffffa
    119a:	00130393          	addi	t2,t1,1 # ffffa001 <STACK+0xffb1a51>
    119e:	007ec833          	xor	a6,t4,t2

000011a2 <.LVL427>:
    11a2:	01081293          	slli	t0,a6,0x10
    11a6:	0102de93          	srli	t4,t0,0x10

000011aa <.L288>:
                if (x16 == 1)
    11aa:	001ef093          	andi	ra,t4,1
    11ae:	001ed893          	srli	a7,t4,0x1
    11b2:	01f08b63          	beq	ra,t6,11c8 <.L289>

000011b6 <.LVL429>:
                   crc |= 0x8000;
    11b6:	7ae9                	lui	s5,0xffffa
    11b8:	001a8413          	addi	s0,s5,1 # ffffa001 <STACK+0xffb1a51>
    11bc:	0088cc33          	xor	s8,a7,s0

000011c0 <.LVL430>:
    11c0:	010c1793          	slli	a5,s8,0x10
    11c4:	0107d893          	srli	a7,a5,0x10

000011c8 <.L289>:
                x16 = (ee_u8)((data & 1) ^ ((ee_u8)crc & 1));
    11c8:	01c8c533          	xor	a0,a7,t3
                if (x16 == 1)
    11cc:	00157d93          	andi	s11,a0,1
                data >>= 1;
    11d0:	001e5613          	srli	a2,t3,0x1

000011d4 <.LVL432>:
                if (x16 == 1)
    11d4:	0018db13          	srli	s6,a7,0x1
    11d8:	000d8b63          	beqz	s11,11ee <.L290>

000011dc <.LVL433>:
                   crc |= 0x8000;
    11dc:	76e9                	lui	a3,0xffffa
    11de:	00168593          	addi	a1,a3,1 # ffffa001 <STACK+0xffb1a51>
    11e2:	00bb4d33          	xor	s10,s6,a1

000011e6 <.LVL434>:
    11e6:	010d1f13          	slli	t5,s10,0x10
    11ea:	010f5b13          	srli	s6,t5,0x10

000011ee <.L290>:
                x16 = (ee_u8)((data & 1) ^ ((ee_u8)crc & 1));
    11ee:	00cb4733          	xor	a4,s6,a2
                if (x16 == 1)
    11f2:	00177913          	andi	s2,a4,1
                data >>= 1;
    11f6:	002e5c93          	srli	s9,t3,0x2

000011fa <.LVL436>:
                if (x16 == 1)
    11fa:	001b5293          	srli	t0,s6,0x1
    11fe:	00090b63          	beqz	s2,1214 <.L291>

00001202 <.LVL437>:
                   crc |= 0x8000;
    1202:	7fe9                	lui	t6,0xffffa
    1204:	001f8313          	addi	t1,t6,1 # ffffa001 <STACK+0xffb1a51>
    1208:	0062c3b3          	xor	t2,t0,t1

0000120c <.LVL438>:
    120c:	01039813          	slli	a6,t2,0x10
    1210:	01085293          	srli	t0,a6,0x10

00001214 <.L291>:
                x16 = (ee_u8)((data & 1) ^ ((ee_u8)crc & 1));
    1214:	0192ceb3          	xor	t4,t0,s9
                if (x16 == 1)
    1218:	001ef093          	andi	ra,t4,1
                data >>= 1;
    121c:	003e5a93          	srli	s5,t3,0x3

00001220 <.LVL440>:
                if (x16 == 1)
    1220:	0012d513          	srli	a0,t0,0x1
    1224:	00008b63          	beqz	ra,123a <.L292>

00001228 <.LVL441>:
                   crc |= 0x8000;
    1228:	7469                	lui	s0,0xffffa
    122a:	00140c13          	addi	s8,s0,1 # ffffa001 <STACK+0xffb1a51>
    122e:	018547b3          	xor	a5,a0,s8

00001232 <.LVL442>:
    1232:	01079893          	slli	a7,a5,0x10
    1236:	0108d513          	srli	a0,a7,0x10

0000123a <.L292>:
                x16 = (ee_u8)((data & 1) ^ ((ee_u8)crc & 1));
    123a:	01554db3          	xor	s11,a0,s5
                if (x16 == 1)
    123e:	001df613          	andi	a2,s11,1
                data >>= 1;
    1242:	004e5693          	srli	a3,t3,0x4

00001246 <.LVL444>:
                if (x16 == 1)
    1246:	00155713          	srli	a4,a0,0x1
    124a:	ca11                	beqz	a2,125e <.L293>

0000124c <.LVL445>:
                   crc |= 0x8000;
    124c:	75e9                	lui	a1,0xffffa
    124e:	00158d13          	addi	s10,a1,1 # ffffa001 <STACK+0xffb1a51>
    1252:	01a74f33          	xor	t5,a4,s10

00001256 <.LVL446>:
    1256:	010f1b13          	slli	s6,t5,0x10
    125a:	010b5713          	srli	a4,s6,0x10

0000125e <.L293>:
                x16 = (ee_u8)((data & 1) ^ ((ee_u8)crc & 1));
    125e:	00d74933          	xor	s2,a4,a3
                if (x16 == 1)
    1262:	00197c93          	andi	s9,s2,1
                data >>= 1;
    1266:	005e5f93          	srli	t6,t3,0x5

0000126a <.LVL448>:
                if (x16 == 1)
    126a:	00175e93          	srli	t4,a4,0x1
    126e:	000c8b63          	beqz	s9,1284 <.L294>

00001272 <.LVL449>:
                   crc |= 0x8000;
    1272:	7369                	lui	t1,0xffffa
    1274:	00130393          	addi	t2,t1,1 # ffffa001 <STACK+0xffb1a51>
    1278:	007ec833          	xor	a6,t4,t2

0000127c <.LVL450>:
    127c:	01081293          	slli	t0,a6,0x10
    1280:	0102de93          	srli	t4,t0,0x10

00001284 <.L294>:
                x16 = (ee_u8)((data & 1) ^ ((ee_u8)crc & 1));
    1284:	01dfc0b3          	xor	ra,t6,t4
                if (x16 == 1)
    1288:	0010fa93          	andi	s5,ra,1
                data >>= 1;
    128c:	006e5413          	srli	s0,t3,0x6

00001290 <.LVL452>:
                if (x16 == 1)
    1290:	001edd93          	srli	s11,t4,0x1
    1294:	000a8b63          	beqz	s5,12aa <.L295>

00001298 <.LVL453>:
                   crc |= 0x8000;
    1298:	7c69                	lui	s8,0xffffa
    129a:	001c0893          	addi	a7,s8,1 # ffffa001 <STACK+0xffb1a51>
    129e:	011dc7b3          	xor	a5,s11,a7

000012a2 <.LVL454>:
    12a2:	01079513          	slli	a0,a5,0x10
    12a6:	01055d93          	srli	s11,a0,0x10

000012aa <.L295>:
                x16 = (ee_u8)((data & 1) ^ ((ee_u8)crc & 1));
    12aa:	01b44633          	xor	a2,s0,s11
                if (x16 == 1)
    12ae:	00167693          	andi	a3,a2,1
                data >>= 1;
    12b2:	007e5e13          	srli	t3,t3,0x7

000012b6 <.LVL456>:
                if (x16 == 1)
    12b6:	001dd713          	srli	a4,s11,0x1
    12ba:	ca91                	beqz	a3,12ce <.L296>

000012bc <.LVL457>:
                   crc |= 0x8000;
    12bc:	75e9                	lui	a1,0xffffa
    12be:	00158d13          	addi	s10,a1,1 # ffffa001 <STACK+0xffb1a51>
    12c2:	01a74f33          	xor	t5,a4,s10

000012c6 <.LVL458>:
    12c6:	010f1b13          	slli	s6,t5,0x10
    12ca:	010b5713          	srli	a4,s6,0x10

000012ce <.L296>:
                if (x16 == 1)
    12ce:	00175c93          	srli	s9,a4,0x1
    12d2:	00177913          	andi	s2,a4,1
    12d6:	c866                	sw	s9,16(sp)
    12d8:	01c90c63          	beq	s2,t3,12f0 <.L297>

000012dc <.LVL460>:
                   crc |= 0x8000;
    12dc:	7fe9                	lui	t6,0xffffa
    12de:	001f8313          	addi	t1,t6,1 # ffffa001 <STACK+0xffb1a51>
    12e2:	006cc3b3          	xor	t2,s9,t1

000012e6 <.LVL461>:
    12e6:	01039813          	slli	a6,t2,0x10
    12ea:	01085293          	srli	t0,a6,0x10
    12ee:	c816                	sw	t0,16(sp)

000012f0 <.L297>:
        for (i=0; i<N; i++) {
    12f0:	4f01                	li	t5,0
    12f2:	4381                	li	t2,0
    12f4:	32098863          	beqz	s3,1624 <.L299>
    12f8:	4eb2                	lw	t4,12(sp)
                        C[i*N+j]=0;
    12fa:	00299093          	slli	ra,s3,0x2
    12fe:	00199413          	slli	s0,s3,0x1
    1302:	4c01                	li	s8,0
    1304:	ce52                	sw	s4,28(sp)
    1306:	c45e                	sw	s7,8(sp)
    1308:	8af6                	mv	s5,t4
    130a:	01d40933          	add	s2,s0,t4
    130e:	ca06                	sw	ra,20(sp)
        for (i=0; i<N; i++) {
    1310:	4b01                	li	s6,0
    1312:	cc26                	sw	s1,24(sp)
    1314:	8a62                	mv	s4,s8
    1316:	8b86                	mv	s7,ra

00001318 <.L302>:
                for (j=0; j<N; j++) {
    1318:	4892                	lw	a7,4(sp)
    131a:	002a1493          	slli	s1,s4,0x2
                        C[i*N+j]=0;
    131e:	865e                	mv	a2,s7
    1320:	01148533          	add	a0,s1,a7
    1324:	4581                	li	a1,0
    1326:	2a2060ef          	jal	ra,75c8 <memset>

0000132a <.LVL464>:
    132a:	4ea2                	lw	t4,8(sp)
    132c:	8f2a                	mv	t5,a0
                for (j=0; j<N; j++) {
    132e:	4f81                	li	t6,0

00001330 <.L301>:
                        for(k=0;k<N;k++)
    1330:	415907b3          	sub	a5,s2,s5
    1334:	ffe78d93          	addi	s11,a5,-2
    1338:	001dd613          	srli	a2,s11,0x1
    133c:	00160693          	addi	a3,a2,1
    1340:	0076fe13          	andi	t3,a3,7
    1344:	8676                	mv	a2,t4
    1346:	86d6                	mv	a3,s5
    1348:	4781                	li	a5,0
    134a:	0a0e0663          	beqz	t3,13f6 <.L300>
    134e:	4585                	li	a1,1
    1350:	08be0863          	beq	t3,a1,13e0 <.L700>
    1354:	4d09                	li	s10,2
    1356:	07ae0c63          	beq	t3,s10,13ce <.L701>
    135a:	470d                	li	a4,3
    135c:	06ee0063          	beq	t3,a4,13bc <.L702>
    1360:	4c91                	li	s9,4
    1362:	059e0463          	beq	t3,s9,13aa <.L703>
    1366:	4315                	li	t1,5
    1368:	026e0863          	beq	t3,t1,1398 <.L704>
    136c:	4399                	li	t2,6
    136e:	007e0c63          	beq	t3,t2,1386 <.L705>

00001372 <.LVL466>:
                                C[i*N+j]+=(MATRES)A[i*N+k] * (MATRES)B[k*N+j];
    1372:	000a9803          	lh	a6,0(s5)
    1376:	000e9283          	lh	t0,0(t4)
                        for(k=0;k<N;k++)
    137a:	002a8693          	addi	a3,s5,2
    137e:	008e8633          	add	a2,t4,s0
                                C[i*N+j]+=(MATRES)A[i*N+k] * (MATRES)B[k*N+j];
    1382:	025807b3          	mul	a5,a6,t0

00001386 <.L705>:
    1386:	00069083          	lh	ra,0(a3)
    138a:	00061c03          	lh	s8,0(a2)
                        for(k=0;k<N;k++)
    138e:	0689                	addi	a3,a3,2
    1390:	9622                	add	a2,a2,s0
                                C[i*N+j]+=(MATRES)A[i*N+k] * (MATRES)B[k*N+j];
    1392:	038084b3          	mul	s1,ra,s8
    1396:	97a6                	add	a5,a5,s1

00001398 <.L704>:
    1398:	00069883          	lh	a7,0(a3)
    139c:	00061503          	lh	a0,0(a2)
                        for(k=0;k<N;k++)
    13a0:	0689                	addi	a3,a3,2
    13a2:	9622                	add	a2,a2,s0
                                C[i*N+j]+=(MATRES)A[i*N+k] * (MATRES)B[k*N+j];
    13a4:	02a88db3          	mul	s11,a7,a0
    13a8:	97ee                	add	a5,a5,s11

000013aa <.L703>:
    13aa:	00069e03          	lh	t3,0(a3)
    13ae:	00061583          	lh	a1,0(a2)
                        for(k=0;k<N;k++)
    13b2:	0689                	addi	a3,a3,2
    13b4:	9622                	add	a2,a2,s0
                                C[i*N+j]+=(MATRES)A[i*N+k] * (MATRES)B[k*N+j];
    13b6:	02be0d33          	mul	s10,t3,a1
    13ba:	97ea                	add	a5,a5,s10

000013bc <.L702>:
    13bc:	00069703          	lh	a4,0(a3)
    13c0:	00061c83          	lh	s9,0(a2)
                        for(k=0;k<N;k++)
    13c4:	0689                	addi	a3,a3,2
    13c6:	9622                	add	a2,a2,s0
                                C[i*N+j]+=(MATRES)A[i*N+k] * (MATRES)B[k*N+j];
    13c8:	03970333          	mul	t1,a4,s9
    13cc:	979a                	add	a5,a5,t1

000013ce <.L701>:
    13ce:	00069383          	lh	t2,0(a3)
    13d2:	00061803          	lh	a6,0(a2)
                        for(k=0;k<N;k++)
    13d6:	0689                	addi	a3,a3,2
    13d8:	9622                	add	a2,a2,s0
                                C[i*N+j]+=(MATRES)A[i*N+k] * (MATRES)B[k*N+j];
    13da:	030382b3          	mul	t0,t2,a6
    13de:	9796                	add	a5,a5,t0

000013e0 <.L700>:
    13e0:	00069083          	lh	ra,0(a3)
    13e4:	00061c03          	lh	s8,0(a2)
                        for(k=0;k<N;k++)
    13e8:	0689                	addi	a3,a3,2
    13ea:	9622                	add	a2,a2,s0
                                C[i*N+j]+=(MATRES)A[i*N+k] * (MATRES)B[k*N+j];
    13ec:	038084b3          	mul	s1,ra,s8
    13f0:	97a6                	add	a5,a5,s1
                        for(k=0;k<N;k++)
    13f2:	0ad90363          	beq	s2,a3,1498 <.L837>

000013f6 <.L300>:
    13f6:	008608b3          	add	a7,a2,s0
                                C[i*N+j]+=(MATRES)A[i*N+k] * (MATRES)B[k*N+j];
    13fa:	00069503          	lh	a0,0(a3)
    13fe:	00061e03          	lh	t3,0(a2)
                        for(k=0;k<N;k++)
    1402:	00888db3          	add	s11,a7,s0
                                C[i*N+j]+=(MATRES)A[i*N+k] * (MATRES)B[k*N+j];
    1406:	00089303          	lh	t1,0(a7)
    140a:	00269d03          	lh	s10,2(a3)
    140e:	000d9483          	lh	s1,0(s11)
                        for(k=0;k<N;k++)
    1412:	008d8cb3          	add	s9,s11,s0
                                C[i*N+j]+=(MATRES)A[i*N+k] * (MATRES)B[k*N+j];
    1416:	00469083          	lh	ra,4(a3)
    141a:	03c50733          	mul	a4,a0,t3
                        for(k=0;k<N;k++)
    141e:	008c85b3          	add	a1,s9,s0
                                C[i*N+j]+=(MATRES)A[i*N+k] * (MATRES)B[k*N+j];
    1422:	000c9d83          	lh	s11,0(s9)
    1426:	00669283          	lh	t0,6(a3)
                        for(k=0;k<N;k++)
    142a:	008583b3          	add	t2,a1,s0
                                C[i*N+j]+=(MATRES)A[i*N+k] * (MATRES)B[k*N+j];
    142e:	00869883          	lh	a7,8(a3)
    1432:	00059c03          	lh	s8,0(a1)
    1436:	00a69803          	lh	a6,10(a3)
    143a:	00039c83          	lh	s9,0(t2)
                        for(k=0;k<N;k++)
    143e:	00838e33          	add	t3,t2,s0
                                C[i*N+j]+=(MATRES)A[i*N+k] * (MATRES)B[k*N+j];
    1442:	026d0d33          	mul	s10,s10,t1
    1446:	00c69503          	lh	a0,12(a3)
                        for(k=0;k<N;k++)
    144a:	008e0633          	add	a2,t3,s0
                                C[i*N+j]+=(MATRES)A[i*N+k] * (MATRES)B[k*N+j];
    144e:	000e1383          	lh	t2,0(t3)
    1452:	00e69583          	lh	a1,14(a3)
    1456:	00061303          	lh	t1,0(a2)
    145a:	97ba                	add	a5,a5,a4
                        for(k=0;k<N;k++)
    145c:	06c1                	addi	a3,a3,16
    145e:	9622                	add	a2,a2,s0
                                C[i*N+j]+=(MATRES)A[i*N+k] * (MATRES)B[k*N+j];
    1460:	029080b3          	mul	ra,ra,s1
    1464:	01a784b3          	add	s1,a5,s10
    1468:	03b282b3          	mul	t0,t0,s11
    146c:	00148733          	add	a4,s1,ra
    1470:	03888db3          	mul	s11,a7,s8
    1474:	005708b3          	add	a7,a4,t0
    1478:	03980c33          	mul	s8,a6,s9
    147c:	01b88833          	add	a6,a7,s11
    1480:	02750e33          	mul	t3,a0,t2
    1484:	01880cb3          	add	s9,a6,s8
    1488:	02658533          	mul	a0,a1,t1
    148c:	01cc8d33          	add	s10,s9,t3
    1490:	00ad07b3          	add	a5,s10,a0
                        for(k=0;k<N;k++)
    1494:	f6d911e3          	bne	s2,a3,13f6 <.L300>

00001498 <.L837>:
    1498:	00ff2023          	sw	a5,0(t5)
                for (j=0; j<N; j++) {
    149c:	001f8693          	addi	a3,t6,1

000014a0 <.LVL467>:
    14a0:	0f11                	addi	t5,t5,4
    14a2:	0e89                	addi	t4,t4,2
    14a4:	12d98463          	beq	s3,a3,15cc <.L877>
    14a8:	8fb6                	mv	t6,a3
    14aa:	b559                	j	1330 <.L301>

000014ac <.L879>:
                                ret += (cur>prev) ? 1 : 0;
    14ac:	01f32333          	slt	t1,t1,t6
                        cur=C[i*N+j];
    14b0:	0048a703          	lw	a4,4(a7)
                                ret += (cur>prev) ? 1 : 0;
    14b4:	00608ab3          	add	s5,ra,t1
    14b8:	010a9413          	slli	s0,s5,0x10
    14bc:	41045793          	srai	a5,s0,0x10
                                ret+=10;
    14c0:	01079913          	slli	s2,a5,0x10
                        tmp+=cur;
    14c4:	00eb0833          	add	a6,s6,a4
                for (j=0; j<N; j++) {
    14c8:	0891                	addi	a7,a7,4
                                ret+=10;
    14ca:	01095c93          	srli	s9,s2,0x10
                        if (tmp>clipval) {
    14ce:	0904de63          	bge	s1,a6,156a <.L878>

000014d2 <.L594>:
                        cur=C[i*N+j];
    14d2:	0048aa83          	lw	s5,4(a7)
                                ret+=10;
    14d6:	00ac8e93          	addi	t4,s9,10
    14da:	010e9093          	slli	ra,t4,0x10
    14de:	4100df93          	srai	t6,ra,0x10

000014e2 <.LVL469>:
                                tmp=0;
    14e2:	4801                	li	a6,0

000014e4 <.LVL470>:
                                ret+=10;
    14e4:	010f9313          	slli	t1,t6,0x10
                        tmp+=cur;
    14e8:	01580c33          	add	s8,a6,s5
                                ret+=10;
    14ec:	01035413          	srli	s0,t1,0x10
                        if (tmp>clipval) {
    14f0:	0984df63          	bge	s1,s8,158e <.L846>

000014f4 <.L880>:
                                ret+=10;
    14f4:	00a40913          	addi	s2,s0,10
                        cur=C[i*N+j];
    14f8:	0088a303          	lw	t1,8(a7)
                                ret+=10;
    14fc:	01091c93          	slli	s9,s2,0x10
    1500:	410cd713          	srai	a4,s9,0x10

00001504 <.LVL471>:
    1504:	01071813          	slli	a6,a4,0x10
                                tmp=0;
    1508:	4c01                	li	s8,0

0000150a <.LVL472>:
                                ret+=10;
    150a:	01085393          	srli	t2,a6,0x10
                        tmp+=cur;
    150e:	006c0833          	add	a6,s8,t1
                        if (tmp>clipval) {
    1512:	0b04d063          	bge	s1,a6,15b2 <.L848>

00001516 <.L881>:
                                ret+=10;
    1516:	00a38a93          	addi	s5,t2,10
    151a:	010a9413          	slli	s0,s5,0x10
    151e:	010a9c13          	slli	s8,s5,0x10
    1522:	01045e93          	srli	t4,s0,0x10
    1526:	410c5793          	srai	a5,s8,0x10

0000152a <.LVL474>:
                                tmp=0;
    152a:	4801                	li	a6,0

0000152c <.L849>:
                for (j=0; j<N; j++) {
    152c:	08b1                	addi	a7,a7,12
    152e:	b71583e3          	beq	a1,a7,1094 <.L844>

00001532 <.L280>:
                        cur=C[i*N+j];
    1532:	0008af83          	lw	t6,0(a7)
                                ret+=10;
    1536:	01079e93          	slli	t4,a5,0x10
    153a:	010ed093          	srli	ra,t4,0x10
                        tmp+=cur;
    153e:	01f80b33          	add	s6,a6,t6
                        if (tmp>clipval) {
    1542:	f764d5e3          	bge	s1,s6,14ac <.L879>
                        cur=C[i*N+j];
    1546:	0048a703          	lw	a4,4(a7)
                                ret+=10;
    154a:	00a08c13          	addi	s8,ra,10
    154e:	010c1f13          	slli	t5,s8,0x10
    1552:	410f5793          	srai	a5,t5,0x10

00001556 <.LVL477>:
                                tmp=0;
    1556:	4b01                	li	s6,0

00001558 <.LVL478>:
                                ret+=10;
    1558:	01079913          	slli	s2,a5,0x10
                        tmp+=cur;
    155c:	00eb0833          	add	a6,s6,a4
                for (j=0; j<N; j++) {
    1560:	0891                	addi	a7,a7,4
                                ret+=10;
    1562:	01095c93          	srli	s9,s2,0x10
                        if (tmp>clipval) {
    1566:	f704c6e3          	blt	s1,a6,14d2 <.L594>

0000156a <.L878>:
                                ret += (cur>prev) ? 1 : 0;
    156a:	00efae33          	slt	t3,t6,a4
                        cur=C[i*N+j];
    156e:	0048aa83          	lw	s5,4(a7)
                                ret += (cur>prev) ? 1 : 0;
    1572:	01cc83b3          	add	t2,s9,t3
    1576:	01039293          	slli	t0,t2,0x10
    157a:	4102df93          	srai	t6,t0,0x10
                                ret+=10;
    157e:	010f9313          	slli	t1,t6,0x10
                        tmp+=cur;
    1582:	01580c33          	add	s8,a6,s5
                                ret+=10;
    1586:	01035413          	srli	s0,t1,0x10
                        if (tmp>clipval) {
    158a:	f784c5e3          	blt	s1,s8,14f4 <.L880>

0000158e <.L846>:
                                ret += (cur>prev) ? 1 : 0;
    158e:	01572f33          	slt	t5,a4,s5
    1592:	01e407b3          	add	a5,s0,t5
                        cur=C[i*N+j];
    1596:	0088a303          	lw	t1,8(a7)
                                ret += (cur>prev) ? 1 : 0;
    159a:	01079b13          	slli	s6,a5,0x10
    159e:	410b5713          	srai	a4,s6,0x10

000015a2 <.LVL479>:
                                ret+=10;
    15a2:	01071813          	slli	a6,a4,0x10
    15a6:	01085393          	srli	t2,a6,0x10
                        tmp+=cur;
    15aa:	006c0833          	add	a6,s8,t1
                        if (tmp>clipval) {
    15ae:	f704c4e3          	blt	s1,a6,1516 <.L881>

000015b2 <.L848>:
                                ret += (cur>prev) ? 1 : 0;
    15b2:	006aae33          	slt	t3,s5,t1
    15b6:	01c382b3          	add	t0,t2,t3
    15ba:	01029f93          	slli	t6,t0,0x10
    15be:	01029093          	slli	ra,t0,0x10
    15c2:	010fde93          	srli	t4,t6,0x10
    15c6:	4100d793          	srai	a5,ra,0x10
    15ca:	b78d                	j	152c <.L849>

000015cc <.L877>:
        for (i=0; i<N; i++) {
    15cc:	001b0f13          	addi	t5,s6,1

000015d0 <.LVL482>:
    15d0:	9aa2                	add	s5,s5,s0
    15d2:	9a4e                	add	s4,s4,s3
    15d4:	9922                	add	s2,s2,s0
    15d6:	7f6f8063          	beq	t6,s6,1db6 <.L882>
    15da:	8b7a                	mv	s6,t5
    15dc:	bb35                	j	1318 <.L302>

000015de <.L842>:
                                ret += (cur>prev) ? 1 : 0;
    15de:	006f2733          	slt	a4,t5,t1
    15e2:	00eb0933          	add	s2,s6,a4
    15e6:	01091e13          	slli	t3,s2,0x10
    15ea:	01091c93          	slli	s9,s2,0x10
    15ee:	010e5e93          	srli	t4,t3,0x10

000015f2 <.LVL484>:
    15f2:	410cd793          	srai	a5,s9,0x10
    15f6:	bc61                	j	108e <.L843>

000015f8 <.L840>:
    15f8:	0063aeb3          	slt	t4,t2,t1
    15fc:	01df80b3          	add	ra,t6,t4

00001600 <.LVL486>:
    1600:	01009a93          	slli	s5,ra,0x10
    1604:	410ad793          	srai	a5,s5,0x10
    1608:	bcb1                	j	1064 <.L841>

0000160a <.L838>:
    160a:	006f2733          	slt	a4,t5,t1
    160e:	00eb0e33          	add	t3,s6,a4

00001612 <.LVL488>:
    1612:	010e1913          	slli	s2,t3,0x10
    1616:	41095793          	srai	a5,s2,0x10
    161a:	b415                	j	103e <.L839>

0000161c <.L885>:
        crc=crcu8( (ee_u8) (newval)                             ,crc);
    161c:	0ff7f393          	andi	t2,a5,255
        crc=crcu8( (ee_u8) ((newval)>>8)        ,crc);
    1620:	0088df13          	srli	t5,a7,0x8

00001624 <.L299>:
                x16 = (ee_u8)((data & 1) ^ ((ee_u8)crc & 1));
    1624:	4ac2                	lw	s5,16(sp)
                data >>= 1;
    1626:	0013d093          	srli	ra,t2,0x1

0000162a <.LVL491>:
                x16 = (ee_u8)((data & 1) ^ ((ee_u8)crc & 1));
    162a:	007ac933          	xor	s2,s5,t2
                if (x16 == 1)
    162e:	00197313          	andi	t1,s2,1
    1632:	001adc13          	srli	s8,s5,0x1
    1636:	00030b63          	beqz	t1,164c <.L308>

0000163a <.LVL492>:
                   crc |= 0x8000;
    163a:	76e9                	lui	a3,0xffffa
    163c:	00168293          	addi	t0,a3,1 # ffffa001 <STACK+0xffb1a51>
    1640:	005c4db3          	xor	s11,s8,t0

00001644 <.LVL493>:
    1644:	010d9893          	slli	a7,s11,0x10
    1648:	0108dc13          	srli	s8,a7,0x10

0000164c <.L308>:
                x16 = (ee_u8)((data & 1) ^ ((ee_u8)crc & 1));
    164c:	001c47b3          	xor	a5,s8,ra
                if (x16 == 1)
    1650:	0017fc93          	andi	s9,a5,1
                data >>= 1;
    1654:	0023de13          	srli	t3,t2,0x2

00001658 <.LVL495>:
                if (x16 == 1)
    1658:	001c5f93          	srli	t6,s8,0x1
    165c:	000c8b63          	beqz	s9,1672 <.L309>

00001660 <.LVL496>:
                   crc |= 0x8000;
    1660:	7869                	lui	a6,0xffffa
    1662:	00180e93          	addi	t4,a6,1 # ffffa001 <STACK+0xffb1a51>
    1666:	01dfc533          	xor	a0,t6,t4

0000166a <.LVL497>:
    166a:	01051593          	slli	a1,a0,0x10
    166e:	0105df93          	srli	t6,a1,0x10

00001672 <.L309>:
                x16 = (ee_u8)((data & 1) ^ ((ee_u8)crc & 1));
    1672:	01fe4d33          	xor	s10,t3,t6
                if (x16 == 1)
    1676:	001d7713          	andi	a4,s10,1
                data >>= 1;
    167a:	0033d613          	srli	a2,t2,0x3

0000167e <.LVL499>:
                if (x16 == 1)
    167e:	001fd313          	srli	t1,t6,0x1
    1682:	cb11                	beqz	a4,1696 <.L310>

00001684 <.LVL500>:
                   crc |= 0x8000;
    1684:	7b69                	lui	s6,0xffffa
    1686:	001b0a93          	addi	s5,s6,1 # ffffa001 <STACK+0xffb1a51>
    168a:	01534433          	xor	s0,t1,s5

0000168e <.LVL501>:
    168e:	01041913          	slli	s2,s0,0x10
    1692:	01095313          	srli	t1,s2,0x10

00001696 <.L310>:
                x16 = (ee_u8)((data & 1) ^ ((ee_u8)crc & 1));
    1696:	00c340b3          	xor	ra,t1,a2
                if (x16 == 1)
    169a:	0010f293          	andi	t0,ra,1
                data >>= 1;
    169e:	0043d693          	srli	a3,t2,0x4

000016a2 <.LVL503>:
                if (x16 == 1)
    16a2:	00135c93          	srli	s9,t1,0x1
    16a6:	00028b63          	beqz	t0,16bc <.L311>

000016aa <.LVL504>:
                   crc |= 0x8000;
    16aa:	7de9                	lui	s11,0xffffa
    16ac:	001d8893          	addi	a7,s11,1 # ffffa001 <STACK+0xffb1a51>
    16b0:	011ccc33          	xor	s8,s9,a7

000016b4 <.LVL505>:
    16b4:	010c1793          	slli	a5,s8,0x10
    16b8:	0107dc93          	srli	s9,a5,0x10

000016bc <.L311>:
                x16 = (ee_u8)((data & 1) ^ ((ee_u8)crc & 1));
    16bc:	00dcce33          	xor	t3,s9,a3
                if (x16 == 1)
    16c0:	001e7813          	andi	a6,t3,1
                data >>= 1;
    16c4:	0053de93          	srli	t4,t2,0x5

000016c8 <.LVL507>:
                if (x16 == 1)
    16c8:	001cd713          	srli	a4,s9,0x1
    16cc:	00080b63          	beqz	a6,16e2 <.L312>

000016d0 <.LVL508>:
                   crc |= 0x8000;
    16d0:	7569                	lui	a0,0xffffa
    16d2:	00150593          	addi	a1,a0,1 # ffffa001 <STACK+0xffb1a51>
    16d6:	00b74fb3          	xor	t6,a4,a1

000016da <.LVL509>:
    16da:	010f9d13          	slli	s10,t6,0x10
    16de:	010d5713          	srli	a4,s10,0x10

000016e2 <.L312>:
                x16 = (ee_u8)((data & 1) ^ ((ee_u8)crc & 1));
    16e2:	00eec633          	xor	a2,t4,a4
                if (x16 == 1)
    16e6:	00167b13          	andi	s6,a2,1
                data >>= 1;
    16ea:	0063da93          	srli	s5,t2,0x6

000016ee <.LVL511>:
                if (x16 == 1)
    16ee:	00175293          	srli	t0,a4,0x1
    16f2:	000b0b63          	beqz	s6,1708 <.L313>

000016f6 <.LVL512>:
                   crc |= 0x8000;
    16f6:	7969                	lui	s2,0xffffa
    16f8:	00190313          	addi	t1,s2,1 # ffffa001 <STACK+0xffb1a51>
    16fc:	0062c433          	xor	s0,t0,t1

00001700 <.LVL513>:
    1700:	01041093          	slli	ra,s0,0x10
    1704:	0100d293          	srli	t0,ra,0x10

00001708 <.L313>:
                x16 = (ee_u8)((data & 1) ^ ((ee_u8)crc & 1));
    1708:	0152c6b3          	xor	a3,t0,s5
                if (x16 == 1)
    170c:	0016fd93          	andi	s11,a3,1
                data >>= 1;
    1710:	0073d393          	srli	t2,t2,0x7

00001714 <.LVL515>:
                if (x16 == 1)
    1714:	0012de13          	srli	t3,t0,0x1
    1718:	000d8b63          	beqz	s11,172e <.L314>

0000171c <.LVL516>:
                   crc |= 0x8000;
    171c:	78e9                	lui	a7,0xffffa
    171e:	00188c13          	addi	s8,a7,1 # ffffa001 <STACK+0xffb1a51>
    1722:	018e47b3          	xor	a5,t3,s8

00001726 <.LVL517>:
    1726:	01079c93          	slli	s9,a5,0x10
    172a:	010cde13          	srli	t3,s9,0x10

0000172e <.L314>:
                if (x16 == 1)
    172e:	001e7813          	andi	a6,t3,1
    1732:	001e5d13          	srli	s10,t3,0x1
    1736:	00780b63          	beq	a6,t2,174c <.L315>

0000173a <.LVL519>:
                   crc |= 0x8000;
    173a:	7ee9                	lui	t4,0xffffa
    173c:	001e8513          	addi	a0,t4,1 # ffffa001 <STACK+0xffb1a51>
    1740:	00ad45b3          	xor	a1,s10,a0

00001744 <.LVL520>:
    1744:	01059f93          	slli	t6,a1,0x10
    1748:	010fdd13          	srli	s10,t6,0x10

0000174c <.L315>:
                x16 = (ee_u8)((data & 1) ^ ((ee_u8)crc & 1));
    174c:	01ed4733          	xor	a4,s10,t5
                if (x16 == 1)
    1750:	00177613          	andi	a2,a4,1
                data >>= 1;
    1754:	001f5b13          	srli	s6,t5,0x1

00001758 <.LVL522>:
                if (x16 == 1)
    1758:	001d5093          	srli	ra,s10,0x1
    175c:	ca11                	beqz	a2,1770 <.L316>

0000175e <.LVL523>:
                   crc |= 0x8000;
    175e:	7ae9                	lui	s5,0xffffa
    1760:	001a8913          	addi	s2,s5,1 # ffffa001 <STACK+0xffb1a51>
    1764:	0120c333          	xor	t1,ra,s2

00001768 <.LVL524>:
    1768:	01031413          	slli	s0,t1,0x10
    176c:	01045093          	srli	ra,s0,0x10

00001770 <.L316>:
                x16 = (ee_u8)((data & 1) ^ ((ee_u8)crc & 1));
    1770:	0160c2b3          	xor	t0,ra,s6
                if (x16 == 1)
    1774:	0012f693          	andi	a3,t0,1
                data >>= 1;
    1778:	002f5d93          	srli	s11,t5,0x2

0000177c <.LVL526>:
                if (x16 == 1)
    177c:	0010dc93          	srli	s9,ra,0x1
    1780:	ca91                	beqz	a3,1794 <.L317>

00001782 <.LVL527>:
                   crc |= 0x8000;
    1782:	73e9                	lui	t2,0xffffa
    1784:	00138893          	addi	a7,t2,1 # ffffa001 <STACK+0xffb1a51>
    1788:	011ccc33          	xor	s8,s9,a7

0000178c <.LVL528>:
    178c:	010c1793          	slli	a5,s8,0x10
    1790:	0107dc93          	srli	s9,a5,0x10

00001794 <.L317>:
                x16 = (ee_u8)((data & 1) ^ ((ee_u8)crc & 1));
    1794:	01bcce33          	xor	t3,s9,s11
                if (x16 == 1)
    1798:	001e7813          	andi	a6,t3,1
                data >>= 1;
    179c:	003f5e93          	srli	t4,t5,0x3

000017a0 <.LVL530>:
                if (x16 == 1)
    17a0:	001cd613          	srli	a2,s9,0x1
    17a4:	00080b63          	beqz	a6,17ba <.L318>

000017a8 <.LVL531>:
                   crc |= 0x8000;
    17a8:	7569                	lui	a0,0xffffa
    17aa:	00150593          	addi	a1,a0,1 # ffffa001 <STACK+0xffb1a51>
    17ae:	00b64fb3          	xor	t6,a2,a1

000017b2 <.LVL532>:
    17b2:	010f9d13          	slli	s10,t6,0x10
    17b6:	010d5613          	srli	a2,s10,0x10

000017ba <.L318>:
                x16 = (ee_u8)((data & 1) ^ ((ee_u8)crc & 1));
    17ba:	01d64733          	xor	a4,a2,t4
                if (x16 == 1)
    17be:	00177b13          	andi	s6,a4,1
                data >>= 1;
    17c2:	004f5a93          	srli	s5,t5,0x4

000017c6 <.LVL534>:
                if (x16 == 1)
    17c6:	00165293          	srli	t0,a2,0x1
    17ca:	000b0b63          	beqz	s6,17e0 <.L319>

000017ce <.LVL535>:
                   crc |= 0x8000;
    17ce:	7969                	lui	s2,0xffffa
    17d0:	00190313          	addi	t1,s2,1 # ffffa001 <STACK+0xffb1a51>
    17d4:	0062c433          	xor	s0,t0,t1

000017d8 <.LVL536>:
    17d8:	01041093          	slli	ra,s0,0x10
    17dc:	0100d293          	srli	t0,ra,0x10

000017e0 <.L319>:
                x16 = (ee_u8)((data & 1) ^ ((ee_u8)crc & 1));
    17e0:	0152c6b3          	xor	a3,t0,s5
                if (x16 == 1)
    17e4:	0016fd93          	andi	s11,a3,1
                data >>= 1;
    17e8:	005f5393          	srli	t2,t5,0x5

000017ec <.LVL538>:
                if (x16 == 1)
    17ec:	0012de13          	srli	t3,t0,0x1
    17f0:	000d8b63          	beqz	s11,1806 <.L320>

000017f4 <.LVL539>:
                   crc |= 0x8000;
    17f4:	78e9                	lui	a7,0xffffa
    17f6:	00188c13          	addi	s8,a7,1 # ffffa001 <STACK+0xffb1a51>
    17fa:	018e47b3          	xor	a5,t3,s8

000017fe <.LVL540>:
    17fe:	01079c93          	slli	s9,a5,0x10
    1802:	010cde13          	srli	t3,s9,0x10

00001806 <.L320>:
                x16 = (ee_u8)((data & 1) ^ ((ee_u8)crc & 1));
    1806:	01c3c833          	xor	a6,t2,t3
                if (x16 == 1)
    180a:	00187e93          	andi	t4,a6,1
                data >>= 1;
    180e:	006f5513          	srli	a0,t5,0x6

00001812 <.LVL542>:
                if (x16 == 1)
    1812:	001e5b13          	srli	s6,t3,0x1
    1816:	000e8b63          	beqz	t4,182c <.L321>

0000181a <.LVL543>:
                   crc |= 0x8000;
    181a:	75e9                	lui	a1,0xffffa
    181c:	00158f93          	addi	t6,a1,1 # ffffa001 <STACK+0xffb1a51>
    1820:	01fb4d33          	xor	s10,s6,t6

00001824 <.LVL544>:
    1824:	010d1613          	slli	a2,s10,0x10
    1828:	01065b13          	srli	s6,a2,0x10

0000182c <.L321>:
                x16 = (ee_u8)((data & 1) ^ ((ee_u8)crc & 1));
    182c:	00ab4733          	xor	a4,s6,a0
                if (x16 == 1)
    1830:	00177a93          	andi	s5,a4,1
                data >>= 1;
    1834:	007f5f13          	srli	t5,t5,0x7

00001838 <.LVL546>:
                if (x16 == 1)
    1838:	001b5293          	srli	t0,s6,0x1
    183c:	000a8b63          	beqz	s5,1852 <.L322>

00001840 <.LVL547>:
                   crc |= 0x8000;
    1840:	7969                	lui	s2,0xffffa
    1842:	00190313          	addi	t1,s2,1 # ffffa001 <STACK+0xffb1a51>
    1846:	0062c433          	xor	s0,t0,t1

0000184a <.LVL548>:
    184a:	01041093          	slli	ra,s0,0x10
    184e:	0100d293          	srli	t0,ra,0x10

00001852 <.L322>:
                if (x16 == 1)
    1852:	0012f693          	andi	a3,t0,1
    1856:	0012d413          	srli	s0,t0,0x1
    185a:	01e68b63          	beq	a3,t5,1870 <.L323>

0000185e <.LVL550>:
                   crc |= 0x8000;
    185e:	7de9                	lui	s11,0xffffa
    1860:	001d8393          	addi	t2,s11,1 # ffffa001 <STACK+0xffb1a51>
    1864:	007448b3          	xor	a7,s0,t2

00001868 <.LVL551>:
    1868:	01089c13          	slli	s8,a7,0x10
    186c:	010c5413          	srli	s0,s8,0x10

00001870 <.L323>:
        for (i=0; i<N; i++) {
    1870:	4a81                	li	s5,0
    1872:	4681                	li	a3,0
    1874:	1a098063          	beqz	s3,1a14 <.L325>
    1878:	47b2                	lw	a5,12(sp)
    187a:	4d92                	lw	s11,4(sp)
    187c:	00199a93          	slli	s5,s3,0x1
    1880:	8c3e                	mv	s8,a5
    1882:	00fa8b33          	add	s6,s5,a5
                        C[i*N+j]=0;
    1886:	00299913          	slli	s2,s3,0x2
    188a:	4c81                	li	s9,0
        for (i=0; i<N; i++) {
    188c:	4d01                	li	s10,0

0000188e <.L328>:
                for (j=0; j<N; j++) {
    188e:	002c9e13          	slli	t3,s9,0x2
    1892:	01be0533          	add	a0,t3,s11
                        C[i*N+j]=0;
    1896:	864a                	mv	a2,s2
    1898:	4581                	li	a1,0
    189a:	52f050ef          	jal	ra,75c8 <memset>

0000189e <.LVL554>:
    189e:	882a                	mv	a6,a0
    18a0:	88de                	mv	a7,s7
                for (j=0; j<N; j++) {
    18a2:	4e01                	li	t3,0

000018a4 <.L327>:
                        for(k=0;k<N;k++)
    18a4:	418b0eb3          	sub	t4,s6,s8
    18a8:	ffee8593          	addi	a1,t4,-2
    18ac:	0015df93          	srli	t6,a1,0x1
    18b0:	001f8613          	addi	a2,t6,1
    18b4:	00367713          	andi	a4,a2,3
    18b8:	8546                	mv	a0,a7
    18ba:	85e2                	mv	a1,s8
    18bc:	4e81                	li	t4,0
    18be:	c359                	beqz	a4,1944 <.L326>
    18c0:	4f05                	li	t5,1
    18c2:	05e70c63          	beq	a4,t5,191a <.L708>
    18c6:	4309                	li	t1,2
    18c8:	02670663          	beq	a4,t1,18f4 <.L709>

000018cc <.LBB453>:
                                MATRES tmp=(MATRES)A[i*N+k] * (MATRES)B[k*N+j];
    18cc:	000c1083          	lh	ra,0(s8)
    18d0:	00089283          	lh	t0,0(a7)

000018d4 <.LBE453>:
                        for(k=0;k<N;k++)
    18d4:	002c0593          	addi	a1,s8,2
    18d8:	01588533          	add	a0,a7,s5

000018dc <.LBB454>:
                                MATRES tmp=(MATRES)A[i*N+k] * (MATRES)B[k*N+j];
    18dc:	025086b3          	mul	a3,ra,t0
                                C[i*N+j]+=bit_extract(tmp,2,4)*bit_extract(tmp,5,7);
    18e0:	4056de93          	srai	t4,a3,0x5
    18e4:	4026d393          	srai	t2,a3,0x2
    18e8:	00f3f793          	andi	a5,t2,15
    18ec:	07feff93          	andi	t6,t4,127
    18f0:	03f78eb3          	mul	t4,a5,t6

000018f4 <.L709>:
                                MATRES tmp=(MATRES)A[i*N+k] * (MATRES)B[k*N+j];
    18f4:	00059603          	lh	a2,0(a1)
    18f8:	00051703          	lh	a4,0(a0)

000018fc <.LBE455>:
                        for(k=0;k<N;k++)
    18fc:	0589                	addi	a1,a1,2
    18fe:	9556                	add	a0,a0,s5

00001900 <.LBB456>:
                                MATRES tmp=(MATRES)A[i*N+k] * (MATRES)B[k*N+j];
    1900:	02e60f33          	mul	t5,a2,a4
                                C[i*N+j]+=bit_extract(tmp,2,4)*bit_extract(tmp,5,7);
    1904:	402f5313          	srai	t1,t5,0x2
    1908:	405f5093          	srai	ra,t5,0x5
    190c:	00f37293          	andi	t0,t1,15
    1910:	07f0f693          	andi	a3,ra,127
    1914:	02d283b3          	mul	t2,t0,a3
    1918:	9e9e                	add	t4,t4,t2

0000191a <.L708>:
                                MATRES tmp=(MATRES)A[i*N+k] * (MATRES)B[k*N+j];
    191a:	00059783          	lh	a5,0(a1)
    191e:	00051f83          	lh	t6,0(a0)

00001922 <.LBE457>:
                        for(k=0;k<N;k++)
    1922:	0589                	addi	a1,a1,2
    1924:	9556                	add	a0,a0,s5

00001926 <.LBB458>:
                                MATRES tmp=(MATRES)A[i*N+k] * (MATRES)B[k*N+j];
    1926:	03f78633          	mul	a2,a5,t6
                                C[i*N+j]+=bit_extract(tmp,2,4)*bit_extract(tmp,5,7);
    192a:	40265713          	srai	a4,a2,0x2
    192e:	40565f13          	srai	t5,a2,0x5
    1932:	00f77313          	andi	t1,a4,15
    1936:	07ff7093          	andi	ra,t5,127
    193a:	021302b3          	mul	t0,t1,ra
    193e:	9e96                	add	t4,t4,t0

00001940 <.LBE458>:
                        for(k=0;k<N;k++)
    1940:	0abb0363          	beq	s6,a1,19e6 <.L824>

00001944 <.L326>:
    1944:	015503b3          	add	t2,a0,s5

00001948 <.LBB460>:
                                MATRES tmp=(MATRES)A[i*N+k] * (MATRES)B[k*N+j];
    1948:	00059f83          	lh	t6,0(a1)
    194c:	00051603          	lh	a2,0(a0)

00001950 <.LBE460>:
                        for(k=0;k<N;k++)
    1950:	015387b3          	add	a5,t2,s5

00001954 <.LBB461>:
                                MATRES tmp=(MATRES)A[i*N+k] * (MATRES)B[k*N+j];
    1954:	00039703          	lh	a4,0(t2)
    1958:	00259683          	lh	a3,2(a1)
    195c:	00079303          	lh	t1,0(a5)

00001960 <.LBE461>:
                        for(k=0;k<N;k++)
    1960:	01578533          	add	a0,a5,s5

00001964 <.LBB462>:
                                MATRES tmp=(MATRES)A[i*N+k] * (MATRES)B[k*N+j];
    1964:	00459083          	lh	ra,4(a1)
    1968:	02cf82b3          	mul	t0,t6,a2

0000196c <.LVL558>:
    196c:	00659383          	lh	t2,6(a1)
    1970:	00051f83          	lh	t6,0(a0)

00001974 <.LBE462>:
                        for(k=0;k<N;k++)
    1974:	05a1                	addi	a1,a1,8
    1976:	9556                	add	a0,a0,s5

00001978 <.LBB463>:
                                MATRES tmp=(MATRES)A[i*N+k] * (MATRES)B[k*N+j];
    1978:	02e686b3          	mul	a3,a3,a4
                                C[i*N+j]+=bit_extract(tmp,2,4)*bit_extract(tmp,5,7);
    197c:	4052d613          	srai	a2,t0,0x5
    1980:	4022df13          	srai	t5,t0,0x2
    1984:	00ff7f13          	andi	t5,t5,15
    1988:	07f67713          	andi	a4,a2,127
                                MATRES tmp=(MATRES)A[i*N+k] * (MATRES)B[k*N+j];
    198c:	026080b3          	mul	ra,ra,t1
                                C[i*N+j]+=bit_extract(tmp,2,4)*bit_extract(tmp,5,7);
    1990:	4026d793          	srai	a5,a3,0x2
    1994:	4056d313          	srai	t1,a3,0x5
    1998:	00f7f293          	andi	t0,a5,15

0000199c <.LVL559>:
    199c:	07f37313          	andi	t1,t1,127
                                MATRES tmp=(MATRES)A[i*N+k] * (MATRES)B[k*N+j];
    19a0:	03f383b3          	mul	t2,t2,t6
                                C[i*N+j]+=bit_extract(tmp,2,4)*bit_extract(tmp,5,7);
    19a4:	4050d693          	srai	a3,ra,0x5
    19a8:	4020df93          	srai	t6,ra,0x2
    19ac:	00fff093          	andi	ra,t6,15
    19b0:	07f6f613          	andi	a2,a3,127
    19b4:	02ef0733          	mul	a4,t5,a4
    19b8:	4053d793          	srai	a5,t2,0x5
    19bc:	4023df13          	srai	t5,t2,0x2
    19c0:	00ff7393          	andi	t2,t5,15
    19c4:	07f7ff93          	andi	t6,a5,127
    19c8:	026282b3          	mul	t0,t0,t1
    19cc:	9eba                	add	t4,t4,a4

000019ce <.LBB464>:
    19ce:	02c08333          	mul	t1,ra,a2
    19d2:	005e80b3          	add	ra,t4,t0

000019d6 <.LBB465>:
    19d6:	03f386b3          	mul	a3,t2,t6
    19da:	00608633          	add	a2,ra,t1

000019de <.LBB466>:
    19de:	00d60eb3          	add	t4,a2,a3

000019e2 <.LBE466>:
                        for(k=0;k<N;k++)
    19e2:	f6bb11e3          	bne	s6,a1,1944 <.L326>

000019e6 <.L824>:
    19e6:	01d82023          	sw	t4,0(a6)
                for (j=0; j<N; j++) {
    19ea:	001e0593          	addi	a1,t3,1

000019ee <.LVL560>:
    19ee:	0811                	addi	a6,a6,4
    19f0:	0889                	addi	a7,a7,2
    19f2:	00b98463          	beq	s3,a1,19fa <.L883>
    19f6:	8e2e                	mv	t3,a1
    19f8:	b575                	j	18a4 <.L327>

000019fa <.L883>:
        for (i=0; i<N; i++) {
    19fa:	001d0813          	addi	a6,s10,1

000019fe <.LVL561>:
    19fe:	9c56                	add	s8,s8,s5
    1a00:	9cce                	add	s9,s9,s3
    1a02:	9b56                	add	s6,s6,s5
    1a04:	5dcd0f63          	beq	s10,t3,1fe2 <.L884>
    1a08:	8d42                	mv	s10,a6
    1a0a:	b551                	j	188e <.L328>

00001a0c <.L890>:
        crc=crcu8( (ee_u8) (newval)                             ,crc);
    1a0c:	0ff7f693          	andi	a3,a5,255
        crc=crcu8( (ee_u8) ((newval)>>8)        ,crc);
    1a10:	0083da93          	srli	s5,t2,0x8

00001a14 <.L325>:
                x16 = (ee_u8)((data & 1) ^ ((ee_u8)crc & 1));
    1a14:	00d44833          	xor	a6,s0,a3
                if (x16 == 1)
    1a18:	00187c13          	andi	s8,a6,1
                data >>= 1;
    1a1c:	0016dc93          	srli	s9,a3,0x1

00001a20 <.LVL564>:
                if (x16 == 1)
    1a20:	00145393          	srli	t2,s0,0x1
    1a24:	000c0b63          	beqz	s8,1a3a <.L334>

00001a28 <.LVL565>:
                   crc |= 0x8000;
    1a28:	78e9                	lui	a7,0xffffa
    1a2a:	00188b13          	addi	s6,a7,1 # ffffa001 <STACK+0xffb1a51>
    1a2e:	0163c733          	xor	a4,t2,s6

00001a32 <.LVL566>:
    1a32:	01071f13          	slli	t5,a4,0x10
    1a36:	010f5393          	srli	t2,t5,0x10

00001a3a <.L334>:
                x16 = (ee_u8)((data & 1) ^ ((ee_u8)crc & 1));
    1a3a:	007cc533          	xor	a0,s9,t2
                if (x16 == 1)
    1a3e:	00157f93          	andi	t6,a0,1
                data >>= 1;
    1a42:	0026d293          	srli	t0,a3,0x2

00001a46 <.LVL568>:
                if (x16 == 1)
    1a46:	0013d493          	srli	s1,t2,0x1
    1a4a:	000f8b63          	beqz	t6,1a60 <.L335>

00001a4e <.LVL569>:
                   crc |= 0x8000;
    1a4e:	7369                	lui	t1,0xffffa
    1a50:	00130e93          	addi	t4,t1,1 # ffffa001 <STACK+0xffb1a51>
    1a54:	01d4c7b3          	xor	a5,s1,t4

00001a58 <.LVL570>:
    1a58:	01079413          	slli	s0,a5,0x10
    1a5c:	01045493          	srli	s1,s0,0x10

00001a60 <.L335>:
                x16 = (ee_u8)((data & 1) ^ ((ee_u8)crc & 1));
    1a60:	0054c5b3          	xor	a1,s1,t0
                if (x16 == 1)
    1a64:	0015f613          	andi	a2,a1,1
                data >>= 1;
    1a68:	0036de13          	srli	t3,a3,0x3

00001a6c <.LVL572>:
                if (x16 == 1)
    1a6c:	0014dd93          	srli	s11,s1,0x1
    1a70:	ca11                	beqz	a2,1a84 <.L336>

00001a72 <.LVL573>:
                   crc |= 0x8000;
    1a72:	70e9                	lui	ra,0xffffa
    1a74:	00108d13          	addi	s10,ra,1 # ffffa001 <STACK+0xffb1a51>
    1a78:	01adc933          	xor	s2,s11,s10

00001a7c <.LVL574>:
    1a7c:	01091b93          	slli	s7,s2,0x10
    1a80:	010bdd93          	srli	s11,s7,0x10

00001a84 <.L336>:
                x16 = (ee_u8)((data & 1) ^ ((ee_u8)crc & 1));
    1a84:	01cdc833          	xor	a6,s11,t3
                if (x16 == 1)
    1a88:	00187c13          	andi	s8,a6,1
                data >>= 1;
    1a8c:	0046dc93          	srli	s9,a3,0x4

00001a90 <.LVL576>:
                if (x16 == 1)
    1a90:	001dd393          	srli	t2,s11,0x1
    1a94:	000c0b63          	beqz	s8,1aaa <.L337>

00001a98 <.LVL577>:
                   crc |= 0x8000;
    1a98:	78e9                	lui	a7,0xffffa
    1a9a:	00188b13          	addi	s6,a7,1 # ffffa001 <STACK+0xffb1a51>
    1a9e:	0163c733          	xor	a4,t2,s6

00001aa2 <.LVL578>:
    1aa2:	01071f13          	slli	t5,a4,0x10
    1aa6:	010f5393          	srli	t2,t5,0x10

00001aaa <.L337>:
                x16 = (ee_u8)((data & 1) ^ ((ee_u8)crc & 1));
    1aaa:	0193c533          	xor	a0,t2,s9
                if (x16 == 1)
    1aae:	00157f93          	andi	t6,a0,1
                data >>= 1;
    1ab2:	0056d293          	srli	t0,a3,0x5

00001ab6 <.LVL580>:
                if (x16 == 1)
    1ab6:	0013d493          	srli	s1,t2,0x1
    1aba:	000f8b63          	beqz	t6,1ad0 <.L338>

00001abe <.LVL581>:
                   crc |= 0x8000;
    1abe:	7369                	lui	t1,0xffffa
    1ac0:	00130e93          	addi	t4,t1,1 # ffffa001 <STACK+0xffb1a51>
    1ac4:	01d4c7b3          	xor	a5,s1,t4

00001ac8 <.LVL582>:
    1ac8:	01079413          	slli	s0,a5,0x10
    1acc:	01045493          	srli	s1,s0,0x10

00001ad0 <.L338>:
                x16 = (ee_u8)((data & 1) ^ ((ee_u8)crc & 1));
    1ad0:	0054c5b3          	xor	a1,s1,t0
                if (x16 == 1)
    1ad4:	0015fe13          	andi	t3,a1,1
                data >>= 1;
    1ad8:	0066d613          	srli	a2,a3,0x6

00001adc <.LVL584>:
                if (x16 == 1)
    1adc:	0014dd93          	srli	s11,s1,0x1
    1ae0:	000e0b63          	beqz	t3,1af6 <.L339>

00001ae4 <.LVL585>:
                   crc |= 0x8000;
    1ae4:	70e9                	lui	ra,0xffffa
    1ae6:	00108d13          	addi	s10,ra,1 # ffffa001 <STACK+0xffb1a51>
    1aea:	01adc933          	xor	s2,s11,s10

00001aee <.LVL586>:
    1aee:	01091b93          	slli	s7,s2,0x10
    1af2:	010bdd93          	srli	s11,s7,0x10

00001af6 <.L339>:
                x16 = (ee_u8)((data & 1) ^ ((ee_u8)crc & 1));
    1af6:	01b64833          	xor	a6,a2,s11
                if (x16 == 1)
    1afa:	00187c13          	andi	s8,a6,1
                data >>= 1;
    1afe:	829d                	srli	a3,a3,0x7

00001b00 <.LVL588>:
                if (x16 == 1)
    1b00:	001ddf13          	srli	t5,s11,0x1
    1b04:	000c0b63          	beqz	s8,1b1a <.L340>

00001b08 <.LVL589>:
                   crc |= 0x8000;
    1b08:	7ce9                	lui	s9,0xffffa
    1b0a:	001c8893          	addi	a7,s9,1 # ffffa001 <STACK+0xffb1a51>
    1b0e:	011f4b33          	xor	s6,t5,a7

00001b12 <.LVL590>:
    1b12:	010b1713          	slli	a4,s6,0x10
    1b16:	01075f13          	srli	t5,a4,0x10

00001b1a <.L340>:
                if (x16 == 1)
    1b1a:	001f7393          	andi	t2,t5,1
    1b1e:	001f5e93          	srli	t4,t5,0x1
    1b22:	00d38b63          	beq	t2,a3,1b38 <.L341>

00001b26 <.LVL592>:
                   crc |= 0x8000;
    1b26:	7569                	lui	a0,0xffffa
    1b28:	00150f93          	addi	t6,a0,1 # ffffa001 <STACK+0xffb1a51>
    1b2c:	01fec2b3          	xor	t0,t4,t6

00001b30 <.LVL593>:
    1b30:	01029313          	slli	t1,t0,0x10
    1b34:	01035e93          	srli	t4,t1,0x10

00001b38 <.L341>:
                x16 = (ee_u8)((data & 1) ^ ((ee_u8)crc & 1));
    1b38:	01dac7b3          	xor	a5,s5,t4
                if (x16 == 1)
    1b3c:	0017f413          	andi	s0,a5,1
                data >>= 1;
    1b40:	001ad493          	srli	s1,s5,0x1

00001b44 <.LVL595>:
                if (x16 == 1)
    1b44:	001edd13          	srli	s10,t4,0x1
    1b48:	c811                	beqz	s0,1b5c <.L342>

00001b4a <.LVL596>:
                   crc |= 0x8000;
    1b4a:	75e9                	lui	a1,0xffffa
    1b4c:	00158e13          	addi	t3,a1,1 # ffffa001 <STACK+0xffb1a51>
    1b50:	01cd4633          	xor	a2,s10,t3

00001b54 <.LVL597>:
    1b54:	01061093          	slli	ra,a2,0x10
    1b58:	0100dd13          	srli	s10,ra,0x10

00001b5c <.L342>:
                x16 = (ee_u8)((data & 1) ^ ((ee_u8)crc & 1));
    1b5c:	01a4c933          	xor	s2,s1,s10
                if (x16 == 1)
    1b60:	00197b93          	andi	s7,s2,1
                data >>= 1;
    1b64:	002add93          	srli	s11,s5,0x2

00001b68 <.LVL599>:
                if (x16 == 1)
    1b68:	001d5893          	srli	a7,s10,0x1
    1b6c:	000b8b63          	beqz	s7,1b82 <.L343>

00001b70 <.LVL600>:
                   crc |= 0x8000;
    1b70:	7869                	lui	a6,0xffffa
    1b72:	00180c13          	addi	s8,a6,1 # ffffa001 <STACK+0xffb1a51>
    1b76:	0188c6b3          	xor	a3,a7,s8

00001b7a <.LVL601>:
    1b7a:	01069c93          	slli	s9,a3,0x10
    1b7e:	010cd893          	srli	a7,s9,0x10

00001b82 <.L343>:
                x16 = (ee_u8)((data & 1) ^ ((ee_u8)crc & 1));
    1b82:	011dcb33          	xor	s6,s11,a7
                if (x16 == 1)
    1b86:	001b7713          	andi	a4,s6,1
                data >>= 1;
    1b8a:	003adf13          	srli	t5,s5,0x3

00001b8e <.LVL603>:
                if (x16 == 1)
    1b8e:	0018d313          	srli	t1,a7,0x1
    1b92:	cb11                	beqz	a4,1ba6 <.L344>

00001b94 <.LVL604>:
                   crc |= 0x8000;
    1b94:	73e9                	lui	t2,0xffffa
    1b96:	00138513          	addi	a0,t2,1 # ffffa001 <STACK+0xffb1a51>
    1b9a:	00a34fb3          	xor	t6,t1,a0

00001b9e <.LVL605>:
    1b9e:	010f9293          	slli	t0,t6,0x10
    1ba2:	0102d313          	srli	t1,t0,0x10

00001ba6 <.L344>:
                x16 = (ee_u8)((data & 1) ^ ((ee_u8)crc & 1));
    1ba6:	006f4eb3          	xor	t4,t5,t1
                if (x16 == 1)
    1baa:	001ef413          	andi	s0,t4,1
                data >>= 1;
    1bae:	004ad493          	srli	s1,s5,0x4

00001bb2 <.LVL607>:
                if (x16 == 1)
    1bb2:	00135093          	srli	ra,t1,0x1
    1bb6:	c811                	beqz	s0,1bca <.L345>

00001bb8 <.LVL608>:
                   crc |= 0x8000;
    1bb8:	75e9                	lui	a1,0xffffa
    1bba:	00158e13          	addi	t3,a1,1 # ffffa001 <STACK+0xffb1a51>
    1bbe:	01c0c7b3          	xor	a5,ra,t3

00001bc2 <.LVL609>:
    1bc2:	01079613          	slli	a2,a5,0x10
    1bc6:	01065093          	srli	ra,a2,0x10

00001bca <.L345>:
                x16 = (ee_u8)((data & 1) ^ ((ee_u8)crc & 1));
    1bca:	0014cd33          	xor	s10,s1,ra
                if (x16 == 1)
    1bce:	001d7913          	andi	s2,s10,1
                data >>= 1;
    1bd2:	005adb93          	srli	s7,s5,0x5

00001bd6 <.LVL611>:
                if (x16 == 1)
    1bd6:	0010dc93          	srli	s9,ra,0x1
    1bda:	00090b63          	beqz	s2,1bf0 <.L346>

00001bde <.LVL612>:
                   crc |= 0x8000;
    1bde:	7de9                	lui	s11,0xffffa
    1be0:	001d8813          	addi	a6,s11,1 # ffffa001 <STACK+0xffb1a51>
    1be4:	010ccc33          	xor	s8,s9,a6

00001be8 <.LVL613>:
    1be8:	010c1693          	slli	a3,s8,0x10
    1bec:	0106dc93          	srli	s9,a3,0x10

00001bf0 <.L346>:
                x16 = (ee_u8)((data & 1) ^ ((ee_u8)crc & 1));
    1bf0:	019bc8b3          	xor	a7,s7,s9
                if (x16 == 1)
    1bf4:	0018fb13          	andi	s6,a7,1
                data >>= 1;
    1bf8:	006ad713          	srli	a4,s5,0x6

00001bfc <.LVL615>:
                if (x16 == 1)
    1bfc:	001cd293          	srli	t0,s9,0x1
    1c00:	000b0b63          	beqz	s6,1c16 <.L347>

00001c04 <.LVL616>:
                   crc |= 0x8000;
    1c04:	7f69                	lui	t5,0xffffa
    1c06:	001f0393          	addi	t2,t5,1 # ffffa001 <STACK+0xffb1a51>
    1c0a:	0072c533          	xor	a0,t0,t2

00001c0e <.LVL617>:
    1c0e:	01051f93          	slli	t6,a0,0x10
    1c12:	010fd293          	srli	t0,t6,0x10

00001c16 <.L347>:
                x16 = (ee_u8)((data & 1) ^ ((ee_u8)crc & 1));
    1c16:	00574333          	xor	t1,a4,t0
                if (x16 == 1)
    1c1a:	00137e93          	andi	t4,t1,1
                data >>= 1;
    1c1e:	007ada93          	srli	s5,s5,0x7

00001c22 <.LVL619>:
                if (x16 == 1)
    1c22:	0012d793          	srli	a5,t0,0x1
    1c26:	000e8b63          	beqz	t4,1c3c <.L348>

00001c2a <.LVL620>:
                   crc |= 0x8000;
    1c2a:	7469                	lui	s0,0xffffa
    1c2c:	00140493          	addi	s1,s0,1 # ffffa001 <STACK+0xffb1a51>
    1c30:	0097c5b3          	xor	a1,a5,s1

00001c34 <.LVL621>:
    1c34:	01059e13          	slli	t3,a1,0x10
    1c38:	010e5793          	srli	a5,t3,0x10

00001c3c <.L348>:
                if (x16 == 1)
    1c3c:	0017f613          	andi	a2,a5,1
    1c40:	0017d513          	srli	a0,a5,0x1
    1c44:	01560b63          	beq	a2,s5,1c5a <.L349>

00001c48 <.LVL623>:
                   crc |= 0x8000;
    1c48:	70e9                	lui	ra,0xffffa
    1c4a:	00108d13          	addi	s10,ra,1 # ffffa001 <STACK+0xffb1a51>
    1c4e:	01a54933          	xor	s2,a0,s10
    1c52:	01091b93          	slli	s7,s2,0x10
    1c56:	010bd513          	srli	a0,s7,0x10

00001c5a <.L349>:
        for (i=0; i<N; i++) {
    1c5a:	12098b63          	beqz	s3,1d90 <.L350>
    1c5e:	4c32                	lw	s8,12(sp)
    1c60:	41300db3          	neg	s11,s3
    1c64:	00199813          	slli	a6,s3,0x1
    1c68:	010c06b3          	add	a3,s8,a6
    1c6c:	001d9293          	slli	t0,s11,0x1
    1c70:	4f01                	li	t5,0
    1c72:	002d9f93          	slli	t6,s11,0x2

00001c76 <.L351>:
                for (j=0; j<N; j++) {
    1c76:	00568cb3          	add	s9,a3,t0
    1c7a:	419688b3          	sub	a7,a3,s9
    1c7e:	ffe88b13          	addi	s6,a7,-2
    1c82:	001b5713          	srli	a4,s6,0x1
    1c86:	00170393          	addi	t2,a4,1
    1c8a:	0073f313          	andi	t1,t2,7

00001c8e <.LBB482>:
        for (i=0; i<N; i++) {
    1c8e:	87e6                	mv	a5,s9
    1c90:	08030863          	beqz	t1,1d20 <.L352>
    1c94:	4e85                	li	t4,1
    1c96:	07d30c63          	beq	t1,t4,1d0e <.L712>
    1c9a:	4a89                	li	s5,2
    1c9c:	07530263          	beq	t1,s5,1d00 <.L713>
    1ca0:	440d                	li	s0,3
    1ca2:	04830863          	beq	t1,s0,1cf2 <.L714>
    1ca6:	4491                	li	s1,4
    1ca8:	02930e63          	beq	t1,s1,1ce4 <.L715>
    1cac:	4595                	li	a1,5
    1cae:	02b30463          	beq	t1,a1,1cd6 <.L716>
    1cb2:	4e19                	li	t3,6
    1cb4:	01c30a63          	beq	t1,t3,1cc8 <.L717>

00001cb8 <.LBB483>:
                        A[i*N+j] += val;
    1cb8:	000cd603          	lhu	a2,0(s9)
                for (j=0; j<N; j++) {
    1cbc:	002c8793          	addi	a5,s9,2
                        A[i*N+j] += val;
    1cc0:	414600b3          	sub	ra,a2,s4
    1cc4:	001c9023          	sh	ra,0(s9)

00001cc8 <.L717>:
    1cc8:	0007dd03          	lhu	s10,0(a5)
                for (j=0; j<N; j++) {
    1ccc:	0789                	addi	a5,a5,2
                        A[i*N+j] += val;
    1cce:	414d0933          	sub	s2,s10,s4
    1cd2:	ff279f23          	sh	s2,-2(a5)

00001cd6 <.L716>:
    1cd6:	0007db83          	lhu	s7,0(a5)
                for (j=0; j<N; j++) {
    1cda:	0789                	addi	a5,a5,2
                        A[i*N+j] += val;
    1cdc:	414b8db3          	sub	s11,s7,s4
    1ce0:	ffb79f23          	sh	s11,-2(a5)

00001ce4 <.L715>:
    1ce4:	0007d803          	lhu	a6,0(a5)
                for (j=0; j<N; j++) {
    1ce8:	0789                	addi	a5,a5,2
                        A[i*N+j] += val;
    1cea:	41480c33          	sub	s8,a6,s4
    1cee:	ff879f23          	sh	s8,-2(a5)

00001cf2 <.L714>:
    1cf2:	0007d883          	lhu	a7,0(a5)
                for (j=0; j<N; j++) {
    1cf6:	0789                	addi	a5,a5,2
                        A[i*N+j] += val;
    1cf8:	41488b33          	sub	s6,a7,s4
    1cfc:	ff679f23          	sh	s6,-2(a5)

00001d00 <.L713>:
    1d00:	0007d703          	lhu	a4,0(a5)
                for (j=0; j<N; j++) {
    1d04:	0789                	addi	a5,a5,2
                        A[i*N+j] += val;
    1d06:	414703b3          	sub	t2,a4,s4
    1d0a:	fe779f23          	sh	t2,-2(a5)

00001d0e <.L712>:
    1d0e:	0007d303          	lhu	t1,0(a5)
                for (j=0; j<N; j++) {
    1d12:	0789                	addi	a5,a5,2
                        A[i*N+j] += val;
    1d14:	41430eb3          	sub	t4,t1,s4
    1d18:	ffd79f23          	sh	t4,-2(a5)
                for (j=0; j<N; j++) {
    1d1c:	06d78563          	beq	a5,a3,1d86 <.L811>

00001d20 <.L352>:
                        A[i*N+j] += val;
    1d20:	0007da83          	lhu	s5,0(a5)
    1d24:	0027d403          	lhu	s0,2(a5)
    1d28:	0047d483          	lhu	s1,4(a5)
    1d2c:	0067d603          	lhu	a2,6(a5)
    1d30:	0087d083          	lhu	ra,8(a5)
    1d34:	00a7dd03          	lhu	s10,10(a5)
    1d38:	00c7d583          	lhu	a1,12(a5)
    1d3c:	00e7d903          	lhu	s2,14(a5)
    1d40:	414a8bb3          	sub	s7,s5,s4
    1d44:	41440db3          	sub	s11,s0,s4
    1d48:	41448e33          	sub	t3,s1,s4
    1d4c:	41460c33          	sub	s8,a2,s4
    1d50:	414088b3          	sub	a7,ra,s4
    1d54:	414d0833          	sub	a6,s10,s4
    1d58:	41458b33          	sub	s6,a1,s4
    1d5c:	41490733          	sub	a4,s2,s4
    1d60:	01779023          	sh	s7,0(a5)
    1d64:	01b79123          	sh	s11,2(a5)
    1d68:	01c79223          	sh	t3,4(a5)
    1d6c:	01879323          	sh	s8,6(a5)
    1d70:	01179423          	sh	a7,8(a5)
    1d74:	01079523          	sh	a6,10(a5)
    1d78:	01679623          	sh	s6,12(a5)
    1d7c:	00e79723          	sh	a4,14(a5)
                for (j=0; j<N; j++) {
    1d80:	07c1                	addi	a5,a5,16
    1d82:	f8d79fe3          	bne	a5,a3,1d20 <.L352>

00001d86 <.L811>:
        for (i=0; i<N; i++) {
    1d86:	0f05                	addi	t5,t5,1
    1d88:	41fc86b3          	sub	a3,s9,t6
    1d8c:	efe995e3          	bne	s3,t5,1c76 <.L351>

00001d90 <.L350>:
}
    1d90:	40f6                	lw	ra,92(sp)
    1d92:	4466                	lw	s0,88(sp)
    1d94:	01051c93          	slli	s9,a0,0x10
    1d98:	44d6                	lw	s1,84(sp)
    1d9a:	4946                	lw	s2,80(sp)
    1d9c:	49b6                	lw	s3,76(sp)

00001d9e <.LVL629>:
    1d9e:	4a26                	lw	s4,72(sp)
    1da0:	4a96                	lw	s5,68(sp)
    1da2:	4b06                	lw	s6,64(sp)
    1da4:	5bf2                	lw	s7,60(sp)
    1da6:	5c62                	lw	s8,56(sp)
    1da8:	5d42                	lw	s10,48(sp)
    1daa:	5db2                	lw	s11,44(sp)
    1dac:	410cd513          	srai	a0,s9,0x10

00001db0 <.LVL630>:
    1db0:	5cd2                	lw	s9,52(sp)
    1db2:	6125                	addi	sp,sp,96

00001db4 <.LVL631>:
    1db4:	8082                	ret

00001db6 <.L882>:
    1db6:	4b12                	lw	s6,4(sp)
    1db8:	4ed2                	lw	t4,20(sp)
    1dba:	44e2                	lw	s1,24(sp)
    1dbc:	4a72                	lw	s4,28(sp)
    1dbe:	4ba2                	lw	s7,8(sp)
    1dc0:	41300433          	neg	s0,s3
    1dc4:	01db0733          	add	a4,s6,t4
    1dc8:	00241513          	slli	a0,s0,0x2

00001dcc <.LBB484>:
                        if (tmp>clipval) {
    1dcc:	4781                	li	a5,0
    1dce:	4301                	li	t1,0
    1dd0:	4681                	li	a3,0

00001dd2 <.LVL633>:
    1dd2:	4601                	li	a2,0

00001dd4 <.LBB485>:
        for (i=0; i<N; i++) {
    1dd4:	00341593          	slli	a1,s0,0x3

00001dd8 <.L303>:
                for (j=0; j<N; j++) {
    1dd8:	00e503b3          	add	t2,a0,a4
    1ddc:	407700b3          	sub	ra,a4,t2
    1de0:	ffc08293          	addi	t0,ra,-4
    1de4:	0022dd93          	srli	s11,t0,0x2
    1de8:	001d8893          	addi	a7,s11,1
    1dec:	0038fc13          	andi	s8,a7,3
        for (i=0; i<N; i++) {
    1df0:	8e9e                	mv	t4,t2
    1df2:	100c0d63          	beqz	s8,1f0c <.L306>
    1df6:	4805                	li	a6,1
    1df8:	050c0963          	beq	s8,a6,1e4a <.L706>
    1dfc:	4e09                	li	t3,2
    1dfe:	03cc0463          	beq	s8,t3,1e26 <.L707>

00001e02 <.LVL635>:
                        cur=C[i*N+j];
    1e02:	8c9a                	mv	s9,t1

00001e04 <.LVL636>:
    1e04:	0003a303          	lw	t1,0(t2)

00001e08 <.LVL637>:
                                ret+=10;
    1e08:	07c2                	slli	a5,a5,0x10
    1e0a:	0107dd13          	srli	s10,a5,0x10
                        tmp+=cur;
    1e0e:	969a                	add	a3,a3,t1

00001e10 <.LVL638>:
                        if (tmp>clipval) {
    1e10:	1cd4d063          	bge	s1,a3,1fd0 <.L825>
                                ret+=10;
    1e14:	00ad0413          	addi	s0,s10,10

00001e18 <.LVL639>:
    1e18:	01041b13          	slli	s6,s0,0x10
    1e1c:	410b5793          	srai	a5,s6,0x10

00001e20 <.LVL640>:
                                tmp=0;
    1e20:	4681                	li	a3,0

00001e22 <.L826>:
                for (j=0; j<N; j++) {
    1e22:	00438e93          	addi	t4,t2,4

00001e26 <.L707>:
                        cur=C[i*N+j];
    1e26:	809a                	mv	ra,t1

00001e28 <.LVL643>:
    1e28:	000ea303          	lw	t1,0(t4)

00001e2c <.LVL644>:
                                ret+=10;
    1e2c:	01079293          	slli	t0,a5,0x10
    1e30:	0102dd93          	srli	s11,t0,0x10
                        tmp+=cur;
    1e34:	969a                	add	a3,a3,t1

00001e36 <.LVL645>:
                        if (tmp>clipval) {
    1e36:	18d4d463          	bge	s1,a3,1fbe <.L827>
                                ret+=10;
    1e3a:	00ad8693          	addi	a3,s11,10

00001e3e <.LVL646>:
    1e3e:	01069e13          	slli	t3,a3,0x10
    1e42:	410e5793          	srai	a5,t3,0x10

00001e46 <.LVL647>:
                                tmp=0;
    1e46:	4681                	li	a3,0

00001e48 <.L828>:
                for (j=0; j<N; j++) {
    1e48:	0e91                	addi	t4,t4,4

00001e4a <.L706>:
                        cur=C[i*N+j];
    1e4a:	8c9a                	mv	s9,t1

00001e4c <.LVL650>:
    1e4c:	000ea303          	lw	t1,0(t4)

00001e50 <.LVL651>:
                                ret+=10;
    1e50:	07c2                	slli	a5,a5,0x10
    1e52:	0107dd13          	srli	s10,a5,0x10
                        tmp+=cur;
    1e56:	969a                	add	a3,a3,t1

00001e58 <.LVL652>:
                        if (tmp>clipval) {
    1e58:	14d4d663          	bge	s1,a3,1fa4 <.L829>
                                ret+=10;
    1e5c:	00ad0b13          	addi	s6,s10,10
    1e60:	010b1093          	slli	ra,s6,0x10
    1e64:	010b1293          	slli	t0,s6,0x10
    1e68:	0100d893          	srli	a7,ra,0x10

00001e6c <.LVL653>:
    1e6c:	4102d793          	srai	a5,t0,0x10

00001e70 <.LVL654>:
                                tmp=0;
    1e70:	4681                	li	a3,0

00001e72 <.L830>:
                for (j=0; j<N; j++) {
    1e72:	0e91                	addi	t4,t4,4

00001e74 <.LVL656>:
    1e74:	09d71c63          	bne	a4,t4,1f0c <.L306>

00001e78 <.L831>:
        for (i=0; i<N; i++) {
    1e78:	00160d13          	addi	s10,a2,1

00001e7c <.LVL657>:
    1e7c:	40b38733          	sub	a4,t2,a1
    1e80:	f8cf8e63          	beq	t6,a2,161c <.L885>
    1e84:	866a                	mv	a2,s10
    1e86:	bf89                	j	1dd8 <.L303>

00001e88 <.L887>:
                                ret += (cur>prev) ? 1 : 0;
    1e88:	01b32333          	slt	t1,t1,s11
                        cur=C[i*N+j];
    1e8c:	004eaf03          	lw	t5,4(t4)
                                ret += (cur>prev) ? 1 : 0;
    1e90:	006c0833          	add	a6,s8,t1
    1e94:	01081e13          	slli	t3,a6,0x10
    1e98:	410e5793          	srai	a5,t3,0x10
                                ret+=10;
    1e9c:	01079a93          	slli	s5,a5,0x10
                        tmp+=cur;
    1ea0:	01ed0433          	add	s0,s10,t5
                for (j=0; j<N; j++) {
    1ea4:	0e91                	addi	t4,t4,4
                                ret+=10;
    1ea6:	010ad913          	srli	s2,s5,0x10
                        if (tmp>clipval) {
    1eaa:	0884dd63          	bge	s1,s0,1f44 <.L886>

00001eae <.L558>:
                        cur=C[i*N+j];
    1eae:	004eae03          	lw	t3,4(t4)
                                ret+=10;
    1eb2:	00a90893          	addi	a7,s2,10
    1eb6:	01089c13          	slli	s8,a7,0x10
    1eba:	410c5d93          	srai	s11,s8,0x10

00001ebe <.LVL659>:
                                tmp=0;
    1ebe:	4401                	li	s0,0

00001ec0 <.LVL660>:
                                ret+=10;
    1ec0:	010d9313          	slli	t1,s11,0x10
                        tmp+=cur;
    1ec4:	01c406b3          	add	a3,s0,t3
                                ret+=10;
    1ec8:	01035c93          	srli	s9,t1,0x10
                        if (tmp>clipval) {
    1ecc:	08d4de63          	bge	s1,a3,1f68 <.L833>

00001ed0 <.L888>:
                        cur=C[i*N+j];
    1ed0:	008ea303          	lw	t1,8(t4)
                                ret+=10;
    1ed4:	00ac8a93          	addi	s5,s9,10
    1ed8:	010a9913          	slli	s2,s5,0x10
    1edc:	41095f13          	srai	t5,s2,0x10

00001ee0 <.LVL661>:
                                tmp=0;
    1ee0:	4681                	li	a3,0

00001ee2 <.LVL662>:
                                ret+=10;
    1ee2:	010f1413          	slli	s0,t5,0x10
                        tmp+=cur;
    1ee6:	969a                	add	a3,a3,t1

00001ee8 <.LVL663>:
                                ret+=10;
    1ee8:	01045b13          	srli	s6,s0,0x10
                        if (tmp>clipval) {
    1eec:	08d4df63          	bge	s1,a3,1f8a <.L835>

00001ef0 <.L889>:
                                ret+=10;
    1ef0:	00ab0c93          	addi	s9,s6,10
    1ef4:	010c9e13          	slli	t3,s9,0x10
    1ef8:	010c9813          	slli	a6,s9,0x10
    1efc:	010e5893          	srli	a7,t3,0x10
    1f00:	41085793          	srai	a5,a6,0x10

00001f04 <.LVL665>:
                                tmp=0;
    1f04:	4681                	li	a3,0

00001f06 <.L836>:
                for (j=0; j<N; j++) {
    1f06:	0eb1                	addi	t4,t4,12
    1f08:	f7d708e3          	beq	a4,t4,1e78 <.L831>

00001f0c <.L306>:
                        cur=C[i*N+j];
    1f0c:	000ead83          	lw	s11,0(t4)
                                ret+=10;
    1f10:	01079893          	slli	a7,a5,0x10
    1f14:	0108dc13          	srli	s8,a7,0x10
                        tmp+=cur;
    1f18:	01b68d33          	add	s10,a3,s11
                        if (tmp>clipval) {
    1f1c:	f7a4d6e3          	bge	s1,s10,1e88 <.L887>
                        cur=C[i*N+j];
    1f20:	004eaf03          	lw	t5,4(t4)
                                ret+=10;
    1f24:	00ac0693          	addi	a3,s8,10
    1f28:	01069c93          	slli	s9,a3,0x10
    1f2c:	410cd793          	srai	a5,s9,0x10

00001f30 <.LVL668>:
                                tmp=0;
    1f30:	4d01                	li	s10,0

00001f32 <.LVL669>:
                                ret+=10;
    1f32:	01079a93          	slli	s5,a5,0x10
                        tmp+=cur;
    1f36:	01ed0433          	add	s0,s10,t5
                for (j=0; j<N; j++) {
    1f3a:	0e91                	addi	t4,t4,4
                                ret+=10;
    1f3c:	010ad913          	srli	s2,s5,0x10
                        if (tmp>clipval) {
    1f40:	f684c7e3          	blt	s1,s0,1eae <.L558>

00001f44 <.L886>:
                                ret += (cur>prev) ? 1 : 0;
    1f44:	01edab33          	slt	s6,s11,t5
                        cur=C[i*N+j];
    1f48:	004eae03          	lw	t3,4(t4)
                                ret += (cur>prev) ? 1 : 0;
    1f4c:	016900b3          	add	ra,s2,s6
    1f50:	01009293          	slli	t0,ra,0x10
    1f54:	4102dd93          	srai	s11,t0,0x10
                                ret+=10;
    1f58:	010d9313          	slli	t1,s11,0x10
                        tmp+=cur;
    1f5c:	01c406b3          	add	a3,s0,t3
                                ret+=10;
    1f60:	01035c93          	srli	s9,t1,0x10
                        if (tmp>clipval) {
    1f64:	f6d4c6e3          	blt	s1,a3,1ed0 <.L888>

00001f68 <.L833>:
                                ret += (cur>prev) ? 1 : 0;
    1f68:	01cf2833          	slt	a6,t5,t3
                        cur=C[i*N+j];
    1f6c:	008ea303          	lw	t1,8(t4)
                                ret += (cur>prev) ? 1 : 0;
    1f70:	010c87b3          	add	a5,s9,a6
    1f74:	01079d13          	slli	s10,a5,0x10
    1f78:	410d5f13          	srai	t5,s10,0x10

00001f7c <.LVL670>:
                                ret+=10;
    1f7c:	010f1413          	slli	s0,t5,0x10
                        tmp+=cur;
    1f80:	969a                	add	a3,a3,t1

00001f82 <.LVL671>:
                                ret+=10;
    1f82:	01045b13          	srli	s6,s0,0x10
                        if (tmp>clipval) {
    1f86:	f6d4c5e3          	blt	s1,a3,1ef0 <.L889>

00001f8a <.L835>:
                                ret += (cur>prev) ? 1 : 0;
    1f8a:	006e20b3          	slt	ra,t3,t1
    1f8e:	001b02b3          	add	t0,s6,ra
    1f92:	01029d93          	slli	s11,t0,0x10
    1f96:	01029c13          	slli	s8,t0,0x10
    1f9a:	010dd893          	srli	a7,s11,0x10
    1f9e:	410c5793          	srai	a5,s8,0x10
    1fa2:	b795                	j	1f06 <.L836>

00001fa4 <.L829>:
    1fa4:	006caf33          	slt	t5,s9,t1
    1fa8:	01ed0ab3          	add	s5,s10,t5
    1fac:	010a9913          	slli	s2,s5,0x10
    1fb0:	010a9413          	slli	s0,s5,0x10
    1fb4:	01095893          	srli	a7,s2,0x10

00001fb8 <.LVL672>:
    1fb8:	41045793          	srai	a5,s0,0x10
    1fbc:	bd5d                	j	1e72 <.L830>

00001fbe <.L827>:
    1fbe:	0060a8b3          	slt	a7,ra,t1
    1fc2:	011d8c33          	add	s8,s11,a7

00001fc6 <.LVL674>:
    1fc6:	010c1813          	slli	a6,s8,0x10
    1fca:	41085793          	srai	a5,a6,0x10
    1fce:	bdad                	j	1e48 <.L828>

00001fd0 <.L825>:
    1fd0:	006caf33          	slt	t5,s9,t1
    1fd4:	01ed0ab3          	add	s5,s10,t5

00001fd8 <.LVL676>:
    1fd8:	010a9913          	slli	s2,s5,0x10
    1fdc:	41095793          	srai	a5,s2,0x10
    1fe0:	b589                	j	1e22 <.L826>

00001fe2 <.L884>:
    1fe2:	4d12                	lw	s10,4(sp)
    1fe4:	41300bb3          	neg	s7,s3
    1fe8:	002b9593          	slli	a1,s7,0x2

00001fec <.LVL678>:
    1fec:	996a                	add	s2,s2,s10

00001fee <.LBB486>:
                        if (tmp>clipval) {
    1fee:	4781                	li	a5,0
    1ff0:	4881                	li	a7,0
    1ff2:	4701                	li	a4,0
    1ff4:	4681                	li	a3,0
        for (i=0; i<N; i++) {
    1ff6:	003b9613          	slli	a2,s7,0x3

00001ffa <.L329>:
                for (j=0; j<N; j++) {
    1ffa:	01258ab3          	add	s5,a1,s2
    1ffe:	41590db3          	sub	s11,s2,s5
    2002:	ffcd8513          	addi	a0,s11,-4
    2006:	00255f13          	srli	t5,a0,0x2
    200a:	001f0393          	addi	t2,t5,1
    200e:	0033ff93          	andi	t6,t2,3
        for (i=0; i<N; i++) {
    2012:	8ed6                	mv	t4,s5
    2014:	100f8d63          	beqz	t6,212e <.L332>
    2018:	4285                	li	t0,1
    201a:	045f8963          	beq	t6,t0,206c <.L710>
    201e:	4309                	li	t1,2
    2020:	026f8463          	beq	t6,t1,2048 <.L711>

00002024 <.LVL680>:
                        cur=C[i*N+j];
    2024:	8ec6                	mv	t4,a7

00002026 <.LVL681>:
    2026:	000aa883          	lw	a7,0(s5)

0000202a <.LVL682>:
                                ret+=10;
    202a:	07c2                	slli	a5,a5,0x10
    202c:	0107d093          	srli	ra,a5,0x10
                        tmp+=cur;
    2030:	9746                	add	a4,a4,a7

00002032 <.LVL683>:
                        if (tmp>clipval) {
    2032:	1ce4d063          	bge	s1,a4,21f2 <.L812>
                                ret+=10;
    2036:	00a08b13          	addi	s6,ra,10

0000203a <.LVL684>:
    203a:	010b1b93          	slli	s7,s6,0x10
    203e:	410bd793          	srai	a5,s7,0x10

00002042 <.LVL685>:
                                tmp=0;
    2042:	4701                	li	a4,0

00002044 <.L813>:
                for (j=0; j<N; j++) {
    2044:	004a8e93          	addi	t4,s5,4

00002048 <.L711>:
                        cur=C[i*N+j];
    2048:	8d46                	mv	s10,a7

0000204a <.LVL688>:
    204a:	000ea883          	lw	a7,0(t4)

0000204e <.LVL689>:
                                ret+=10;
    204e:	01079d93          	slli	s11,a5,0x10
    2052:	010ddf13          	srli	t5,s11,0x10
                        tmp+=cur;
    2056:	9746                	add	a4,a4,a7

00002058 <.LVL690>:
                        if (tmp>clipval) {
    2058:	18e4d463          	bge	s1,a4,21e0 <.L814>
                                ret+=10;
    205c:	00af0713          	addi	a4,t5,10

00002060 <.LVL691>:
    2060:	01071293          	slli	t0,a4,0x10
    2064:	4102d793          	srai	a5,t0,0x10

00002068 <.LVL692>:
                                tmp=0;
    2068:	4701                	li	a4,0

0000206a <.L815>:
                for (j=0; j<N; j++) {
    206a:	0e91                	addi	t4,t4,4

0000206c <.L710>:
                        cur=C[i*N+j];
    206c:	8346                	mv	t1,a7

0000206e <.LVL695>:
    206e:	000ea883          	lw	a7,0(t4)

00002072 <.LVL696>:
                                ret+=10;
    2072:	07c2                	slli	a5,a5,0x10
    2074:	0107d093          	srli	ra,a5,0x10
                        tmp+=cur;
    2078:	9746                	add	a4,a4,a7

0000207a <.LVL697>:
                        if (tmp>clipval) {
    207a:	14e4d663          	bge	s1,a4,21c6 <.L816>
                                ret+=10;
    207e:	00a08b93          	addi	s7,ra,10
    2082:	010b9d13          	slli	s10,s7,0x10
    2086:	010b9d93          	slli	s11,s7,0x10
    208a:	010d5393          	srli	t2,s10,0x10

0000208e <.LVL698>:
    208e:	410dd793          	srai	a5,s11,0x10

00002092 <.LVL699>:
                                tmp=0;
    2092:	4701                	li	a4,0

00002094 <.L817>:
                for (j=0; j<N; j++) {
    2094:	0e91                	addi	t4,t4,4

00002096 <.LVL701>:
    2096:	092e9c63          	bne	t4,s2,212e <.L332>

0000209a <.L818>:
        for (i=0; i<N; i++) {
    209a:	00168093          	addi	ra,a3,1

0000209e <.LVL702>:
    209e:	40ca8933          	sub	s2,s5,a2
    20a2:	96de05e3          	beq	t3,a3,1a0c <.L890>
    20a6:	8686                	mv	a3,ra
    20a8:	bf89                	j	1ffa <.L329>

000020aa <.L892>:
                                ret += (cur>prev) ? 1 : 0;
    20aa:	01e8a8b3          	slt	a7,a7,t5
                        cur=C[i*N+j];
    20ae:	004ea803          	lw	a6,4(t4)
                                ret += (cur>prev) ? 1 : 0;
    20b2:	01138fb3          	add	t6,t2,a7
    20b6:	010f9293          	slli	t0,t6,0x10
    20ba:	4102d793          	srai	a5,t0,0x10
                                ret+=10;
    20be:	01079c13          	slli	s8,a5,0x10
                        tmp+=cur;
    20c2:	01008b33          	add	s6,ra,a6
                for (j=0; j<N; j++) {
    20c6:	0e91                	addi	t4,t4,4
                                ret+=10;
    20c8:	010c5c93          	srli	s9,s8,0x10
                        if (tmp>clipval) {
    20cc:	0964dd63          	bge	s1,s6,2166 <.L891>

000020d0 <.L534>:
                        cur=C[i*N+j];
    20d0:	004eaf83          	lw	t6,4(t4)
                                ret+=10;
    20d4:	00ac8513          	addi	a0,s9,10
    20d8:	01051393          	slli	t2,a0,0x10
    20dc:	4103df13          	srai	t5,t2,0x10

000020e0 <.LVL704>:
                                tmp=0;
    20e0:	4b01                	li	s6,0

000020e2 <.LVL705>:
                                ret+=10;
    20e2:	010f1893          	slli	a7,t5,0x10
                        tmp+=cur;
    20e6:	01fb0733          	add	a4,s6,t6
                                ret+=10;
    20ea:	0108d293          	srli	t0,a7,0x10
                        if (tmp>clipval) {
    20ee:	08e4de63          	bge	s1,a4,218a <.L820>

000020f2 <.L893>:
                        cur=C[i*N+j];
    20f2:	008ea883          	lw	a7,8(t4)
                                ret+=10;
    20f6:	00a28c13          	addi	s8,t0,10
    20fa:	010c1c93          	slli	s9,s8,0x10
    20fe:	410cd813          	srai	a6,s9,0x10

00002102 <.LVL706>:
                                tmp=0;
    2102:	4701                	li	a4,0

00002104 <.LVL707>:
                                ret+=10;
    2104:	01081b13          	slli	s6,a6,0x10
                        tmp+=cur;
    2108:	9746                	add	a4,a4,a7

0000210a <.LVL708>:
                                ret+=10;
    210a:	010b5b93          	srli	s7,s6,0x10
                        if (tmp>clipval) {
    210e:	08e4df63          	bge	s1,a4,21ac <.L822>

00002112 <.L894>:
                                ret+=10;
    2112:	00ab8f93          	addi	t6,s7,10
    2116:	010f9293          	slli	t0,t6,0x10
    211a:	010f9313          	slli	t1,t6,0x10
    211e:	0102d393          	srli	t2,t0,0x10
    2122:	41035793          	srai	a5,t1,0x10

00002126 <.LVL710>:
                                tmp=0;
    2126:	4701                	li	a4,0

00002128 <.L823>:
                for (j=0; j<N; j++) {
    2128:	0eb1                	addi	t4,t4,12
    212a:	f72e88e3          	beq	t4,s2,209a <.L818>

0000212e <.L332>:
                        cur=C[i*N+j];
    212e:	000eaf03          	lw	t5,0(t4)
                                ret+=10;
    2132:	01079513          	slli	a0,a5,0x10
    2136:	01055393          	srli	t2,a0,0x10
                        tmp+=cur;
    213a:	01e700b3          	add	ra,a4,t5
                        if (tmp>clipval) {
    213e:	f614d6e3          	bge	s1,ra,20aa <.L892>
                        cur=C[i*N+j];
    2142:	004ea803          	lw	a6,4(t4)
                                ret+=10;
    2146:	00a38713          	addi	a4,t2,10
    214a:	01071313          	slli	t1,a4,0x10
    214e:	41035793          	srai	a5,t1,0x10

00002152 <.LVL713>:
                                tmp=0;
    2152:	4081                	li	ra,0

00002154 <.LVL714>:
                                ret+=10;
    2154:	01079c13          	slli	s8,a5,0x10
                        tmp+=cur;
    2158:	01008b33          	add	s6,ra,a6
                for (j=0; j<N; j++) {
    215c:	0e91                	addi	t4,t4,4
                                ret+=10;
    215e:	010c5c93          	srli	s9,s8,0x10
                        if (tmp>clipval) {
    2162:	f764c7e3          	blt	s1,s6,20d0 <.L534>

00002166 <.L891>:
                                ret += (cur>prev) ? 1 : 0;
    2166:	010f2bb3          	slt	s7,t5,a6
                        cur=C[i*N+j];
    216a:	004eaf83          	lw	t6,4(t4)
                                ret += (cur>prev) ? 1 : 0;
    216e:	017c8d33          	add	s10,s9,s7
    2172:	010d1d93          	slli	s11,s10,0x10
    2176:	410ddf13          	srai	t5,s11,0x10
                                ret+=10;
    217a:	010f1893          	slli	a7,t5,0x10
                        tmp+=cur;
    217e:	01fb0733          	add	a4,s6,t6
                                ret+=10;
    2182:	0108d293          	srli	t0,a7,0x10
                        if (tmp>clipval) {
    2186:	f6e4c6e3          	blt	s1,a4,20f2 <.L893>

0000218a <.L820>:
                                ret += (cur>prev) ? 1 : 0;
    218a:	01f82333          	slt	t1,a6,t6
                        cur=C[i*N+j];
    218e:	008ea883          	lw	a7,8(t4)
                                ret += (cur>prev) ? 1 : 0;
    2192:	006287b3          	add	a5,t0,t1
    2196:	01079093          	slli	ra,a5,0x10
    219a:	4100d813          	srai	a6,ra,0x10

0000219e <.LVL715>:
                                ret+=10;
    219e:	01081b13          	slli	s6,a6,0x10
                        tmp+=cur;
    21a2:	9746                	add	a4,a4,a7

000021a4 <.LVL716>:
                                ret+=10;
    21a4:	010b5b93          	srli	s7,s6,0x10
                        if (tmp>clipval) {
    21a8:	f6e4c5e3          	blt	s1,a4,2112 <.L894>

000021ac <.L822>:
                                ret += (cur>prev) ? 1 : 0;
    21ac:	011fad33          	slt	s10,t6,a7
    21b0:	01ab8db3          	add	s11,s7,s10
    21b4:	010d9f13          	slli	t5,s11,0x10
    21b8:	010d9513          	slli	a0,s11,0x10
    21bc:	010f5393          	srli	t2,t5,0x10
    21c0:	41055793          	srai	a5,a0,0x10
    21c4:	b795                	j	2128 <.L823>

000021c6 <.L816>:
    21c6:	01132833          	slt	a6,t1,a7
    21ca:	01008c33          	add	s8,ra,a6
    21ce:	010c1c93          	slli	s9,s8,0x10
    21d2:	010c1b13          	slli	s6,s8,0x10
    21d6:	010cd393          	srli	t2,s9,0x10

000021da <.LVL717>:
    21da:	410b5793          	srai	a5,s6,0x10
    21de:	bd5d                	j	2094 <.L817>

000021e0 <.L814>:
    21e0:	011d2533          	slt	a0,s10,a7
    21e4:	00af03b3          	add	t2,t5,a0

000021e8 <.LVL719>:
    21e8:	01039f93          	slli	t6,t2,0x10
    21ec:	410fd793          	srai	a5,t6,0x10
    21f0:	bdad                	j	206a <.L815>

000021f2 <.L812>:
    21f2:	011ea833          	slt	a6,t4,a7
    21f6:	01008c33          	add	s8,ra,a6

000021fa <.LVL721>:
    21fa:	010c1c93          	slli	s9,s8,0x10
    21fe:	410cd793          	srai	a5,s9,0x10
    2202:	b589                	j	2044 <.L813>

00002204 <.L353>:
                data >>= 1;
    2204:	4681                	li	a3,0

00002206 <.LBB488>:
        for (i=0; i<N; i++) {
    2206:	4701                	li	a4,0

00002208 <.LBB400>:
                crc >>= 1;
    2208:	4781                	li	a5,0
    220a:	a51fe06f          	j	c5a <.L248>

0000220e <.L357>:
        for (i=0; i<N; i++) {
    220e:	4e01                	li	t3,0
    2210:	4f81                	li	t6,0
    2212:	e95fe06f          	j	10a6 <.L274>

00002216 <core_bench_matrix>:
ee_u16 core_bench_matrix(mat_params *p, ee_s16 seed, ee_u16 crc) {
    2216:	1141                	addi	sp,sp,-16
        crc=crc16(matrix_test(N,C,A,B,val),crc);
    2218:	4514                	lw	a3,8(a0)
ee_u16 core_bench_matrix(mat_params *p, ee_s16 seed, ee_u16 crc) {
    221a:	872e                	mv	a4,a1

0000221c <.LVL727>:
    221c:	c422                	sw	s0,8(sp)
        crc=crc16(matrix_test(N,C,A,B,val),crc);
    221e:	454c                	lw	a1,12(a0)

00002220 <.LVL728>:
ee_u16 core_bench_matrix(mat_params *p, ee_s16 seed, ee_u16 crc) {
    2220:	8432                	mv	s0,a2
        crc=crc16(matrix_test(N,C,A,B,val),crc);
    2222:	4150                	lw	a2,4(a0)

00002224 <.LVL729>:
    2224:	4108                	lw	a0,0(a0)

00002226 <.LVL730>:
ee_u16 core_bench_matrix(mat_params *p, ee_s16 seed, ee_u16 crc) {
    2226:	c606                	sw	ra,12(sp)
        crc=crc16(matrix_test(N,C,A,B,val),crc);
    2228:	d1cfe0ef          	jal	ra,744 <matrix_test>

0000222c <.LBB501>:
                x16 = (ee_u8)((data & 1) ^ ((ee_u8)crc & 1));
    222c:	00a446b3          	xor	a3,s0,a0

00002230 <.LBE505>:
        crc=crcu8( (ee_u8) (newval)                             ,crc);
    2230:	0ff57713          	andi	a4,a0,255

00002234 <.LBE503>:
        crc=crc16((ee_s16) newval               ,crc);
        crc=crc16((ee_s16) (newval>>16) ,crc);
        return crc;
}
ee_u16 crc16(ee_s16 newval, ee_u16 crc) {
        return crcu16((ee_u16)newval, crc);
    2234:	01051793          	slli	a5,a0,0x10

00002238 <.LBB510>:
                if (x16 == 1)
    2238:	0016f293          	andi	t0,a3,1

0000223c <.LBE510>:
        return crcu16((ee_u16)newval, crc);
    223c:	0107d313          	srli	t1,a5,0x10

00002240 <.LBB511>:
                data >>= 1;
    2240:	00175613          	srli	a2,a4,0x1

00002244 <.LVL733>:
                crc >>= 1;
    2244:	00145813          	srli	a6,s0,0x1
                if (x16 == 1)
    2248:	00028b63          	beqz	t0,225e <.L896>

0000224c <.LVL734>:
                   crc |= 0x8000;
    224c:	70e9                	lui	ra,0xffffa
    224e:	00108393          	addi	t2,ra,1 # ffffa001 <STACK+0xffb1a51>
    2252:	00784533          	xor	a0,a6,t2

00002256 <.LVL735>:
    2256:	01051593          	slli	a1,a0,0x10
    225a:	0105d813          	srli	a6,a1,0x10

0000225e <.L896>:
                x16 = (ee_u8)((data & 1) ^ ((ee_u8)crc & 1));
    225e:	00c848b3          	xor	a7,a6,a2
                if (x16 == 1)
    2262:	0018fe13          	andi	t3,a7,1
                data >>= 1;
    2266:	00275e93          	srli	t4,a4,0x2

0000226a <.LVL737>:
                crc >>= 1;
    226a:	00185293          	srli	t0,a6,0x1
                if (x16 == 1)
    226e:	000e0b63          	beqz	t3,2284 <.L897>

00002272 <.LVL738>:
                   crc |= 0x8000;
    2272:	7f69                	lui	t5,0xffffa
    2274:	001f0f93          	addi	t6,t5,1 # ffffa001 <STACK+0xffb1a51>
    2278:	01f2c433          	xor	s0,t0,t6

0000227c <.LVL739>:
    227c:	01041693          	slli	a3,s0,0x10
    2280:	0106d293          	srli	t0,a3,0x10

00002284 <.L897>:
                x16 = (ee_u8)((data & 1) ^ ((ee_u8)crc & 1));
    2284:	01d2c7b3          	xor	a5,t0,t4
                if (x16 == 1)
    2288:	0017f093          	andi	ra,a5,1
                data >>= 1;
    228c:	00375613          	srli	a2,a4,0x3

00002290 <.LVL741>:
                crc >>= 1;
    2290:	0012d893          	srli	a7,t0,0x1
                if (x16 == 1)
    2294:	00008b63          	beqz	ra,22aa <.L898>

00002298 <.LVL742>:
                   crc |= 0x8000;
    2298:	73e9                	lui	t2,0xffffa
    229a:	00138593          	addi	a1,t2,1 # ffffa001 <STACK+0xffb1a51>
    229e:	00b8c533          	xor	a0,a7,a1

000022a2 <.LVL743>:
    22a2:	01051813          	slli	a6,a0,0x10
    22a6:	01085893          	srli	a7,a6,0x10

000022aa <.L898>:
                x16 = (ee_u8)((data & 1) ^ ((ee_u8)crc & 1));
    22aa:	00c8ce33          	xor	t3,a7,a2
                if (x16 == 1)
    22ae:	001e7e93          	andi	t4,t3,1
                data >>= 1;
    22b2:	00475f13          	srli	t5,a4,0x4

000022b6 <.LVL745>:
                crc >>= 1;
    22b6:	0018d793          	srli	a5,a7,0x1
                if (x16 == 1)
    22ba:	000e8b63          	beqz	t4,22d0 <.L899>

000022be <.LVL746>:
                   crc |= 0x8000;
    22be:	7fe9                	lui	t6,0xffffa
    22c0:	001f8413          	addi	s0,t6,1 # ffffa001 <STACK+0xffb1a51>
    22c4:	0087c6b3          	xor	a3,a5,s0

000022c8 <.LVL747>:
    22c8:	01069293          	slli	t0,a3,0x10
    22cc:	0102d793          	srli	a5,t0,0x10

000022d0 <.L899>:
                x16 = (ee_u8)((data & 1) ^ ((ee_u8)crc & 1));
    22d0:	01e7c0b3          	xor	ra,a5,t5
                if (x16 == 1)
    22d4:	0010f393          	andi	t2,ra,1
                data >>= 1;
    22d8:	00575613          	srli	a2,a4,0x5

000022dc <.LVL749>:
                crc >>= 1;
    22dc:	0017de13          	srli	t3,a5,0x1
                if (x16 == 1)
    22e0:	00038b63          	beqz	t2,22f6 <.L900>

000022e4 <.LVL750>:
                   crc |= 0x8000;
    22e4:	75e9                	lui	a1,0xffffa
    22e6:	00158813          	addi	a6,a1,1 # ffffa001 <STACK+0xffb1a51>
    22ea:	010e4533          	xor	a0,t3,a6

000022ee <.LVL751>:
    22ee:	01051893          	slli	a7,a0,0x10
    22f2:	0108de13          	srli	t3,a7,0x10

000022f6 <.L900>:
                x16 = (ee_u8)((data & 1) ^ ((ee_u8)crc & 1));
    22f6:	00ce4eb3          	xor	t4,t3,a2
                if (x16 == 1)
    22fa:	001eff13          	andi	t5,t4,1
                data >>= 1;
    22fe:	00675f93          	srli	t6,a4,0x6

00002302 <.LVL753>:
                crc >>= 1;
    2302:	001e5093          	srli	ra,t3,0x1
                if (x16 == 1)
    2306:	000f0b63          	beqz	t5,231c <.L901>

0000230a <.LVL754>:
                   crc |= 0x8000;
    230a:	7469                	lui	s0,0xffffa
    230c:	00140693          	addi	a3,s0,1 # ffffa001 <STACK+0xffb1a51>
    2310:	00d0c2b3          	xor	t0,ra,a3

00002314 <.LVL755>:
    2314:	01029793          	slli	a5,t0,0x10
    2318:	0107d093          	srli	ra,a5,0x10

0000231c <.L901>:
                x16 = (ee_u8)((data & 1) ^ ((ee_u8)crc & 1));
    231c:	01f0c3b3          	xor	t2,ra,t6
                if (x16 == 1)
    2320:	0013f613          	andi	a2,t2,1
                data >>= 1;
    2324:	831d                	srli	a4,a4,0x7

00002326 <.LVL757>:
                crc >>= 1;
    2326:	0010de13          	srli	t3,ra,0x1
                if (x16 == 1)
    232a:	ca11                	beqz	a2,233e <.L902>

0000232c <.LVL758>:
                   crc |= 0x8000;
    232c:	75e9                	lui	a1,0xffffa
    232e:	00158813          	addi	a6,a1,1 # ffffa001 <STACK+0xffb1a51>
    2332:	010e4533          	xor	a0,t3,a6

00002336 <.LVL759>:
    2336:	01051893          	slli	a7,a0,0x10
    233a:	0108de13          	srli	t3,a7,0x10

0000233e <.L902>:
                if (x16 == 1)
    233e:	001e7e93          	andi	t4,t3,1
                crc >>= 1;
    2342:	001e5293          	srli	t0,t3,0x1
                if (x16 == 1)
    2346:	12ee9c63          	bne	t4,a4,247e <.L961>

0000234a <.L903>:
        crc=crcu8( (ee_u8) ((newval)>>8)        ,crc);
    234a:	00835793          	srli	a5,t1,0x8

0000234e <.LBB512>:
                x16 = (ee_u8)((data & 1) ^ ((ee_u8)crc & 1));
    234e:	0057c0b3          	xor	ra,a5,t0
                if (x16 == 1)
    2352:	0010f393          	andi	t2,ra,1

00002356 <.LBE512>:
        crc=crcu8( (ee_u8) ((newval)>>8)        ,crc);
    2356:	00835613          	srli	a2,t1,0x8

0000235a <.LBB515>:
                data >>= 1;
    235a:	0012d893          	srli	a7,t0,0x1
    235e:	00935313          	srli	t1,t1,0x9

00002362 <.LVL763>:
                if (x16 == 1)
    2362:	00038b63          	beqz	t2,2378 <.L904>

00002366 <.LVL764>:
                   crc |= 0x8000;
    2366:	7769                	lui	a4,0xffffa
    2368:	00170593          	addi	a1,a4,1 # ffffa001 <STACK+0xffb1a51>
    236c:	00b8c833          	xor	a6,a7,a1

00002370 <.LVL765>:
    2370:	01081513          	slli	a0,a6,0x10
    2374:	01055893          	srli	a7,a0,0x10

00002378 <.L904>:
                x16 = (ee_u8)((data & 1) ^ ((ee_u8)crc & 1));
    2378:	01134e33          	xor	t3,t1,a7
                if (x16 == 1)
    237c:	001e7e93          	andi	t4,t3,1
                data >>= 1;
    2380:	00265f13          	srli	t5,a2,0x2

00002384 <.LVL767>:
                if (x16 == 1)
    2384:	0018d093          	srli	ra,a7,0x1
    2388:	000e8b63          	beqz	t4,239e <.L905>

0000238c <.LVL768>:
                   crc |= 0x8000;
    238c:	7fe9                	lui	t6,0xffffa
    238e:	001f8413          	addi	s0,t6,1 # ffffa001 <STACK+0xffb1a51>
    2392:	0080c6b3          	xor	a3,ra,s0

00002396 <.LVL769>:
    2396:	01069293          	slli	t0,a3,0x10
    239a:	0102d093          	srli	ra,t0,0x10

0000239e <.L905>:
                x16 = (ee_u8)((data & 1) ^ ((ee_u8)crc & 1));
    239e:	01e0c7b3          	xor	a5,ra,t5
                if (x16 == 1)
    23a2:	0017f393          	andi	t2,a5,1
                data >>= 1;
    23a6:	00365313          	srli	t1,a2,0x3

000023aa <.LVL771>:
                if (x16 == 1)
    23aa:	0010d893          	srli	a7,ra,0x1
    23ae:	00038b63          	beqz	t2,23c4 <.L906>

000023b2 <.LVL772>:
                   crc |= 0x8000;
    23b2:	7769                	lui	a4,0xffffa
    23b4:	00170593          	addi	a1,a4,1 # ffffa001 <STACK+0xffb1a51>
    23b8:	00b8c833          	xor	a6,a7,a1

000023bc <.LVL773>:
    23bc:	01081513          	slli	a0,a6,0x10
    23c0:	01055893          	srli	a7,a0,0x10

000023c4 <.L906>:
                x16 = (ee_u8)((data & 1) ^ ((ee_u8)crc & 1));
    23c4:	0068ce33          	xor	t3,a7,t1
                if (x16 == 1)
    23c8:	001e7e93          	andi	t4,t3,1
                data >>= 1;
    23cc:	00465f13          	srli	t5,a2,0x4

000023d0 <.LVL775>:
                if (x16 == 1)
    23d0:	0018d093          	srli	ra,a7,0x1
    23d4:	000e8b63          	beqz	t4,23ea <.L907>

000023d8 <.LVL776>:
                   crc |= 0x8000;
    23d8:	7fe9                	lui	t6,0xffffa
    23da:	001f8413          	addi	s0,t6,1 # ffffa001 <STACK+0xffb1a51>
    23de:	0080c6b3          	xor	a3,ra,s0

000023e2 <.LVL777>:
    23e2:	01069293          	slli	t0,a3,0x10
    23e6:	0102d093          	srli	ra,t0,0x10

000023ea <.L907>:
                x16 = (ee_u8)((data & 1) ^ ((ee_u8)crc & 1));
    23ea:	01e0c7b3          	xor	a5,ra,t5
                if (x16 == 1)
    23ee:	0017f393          	andi	t2,a5,1
                data >>= 1;
    23f2:	00565313          	srli	t1,a2,0x5

000023f6 <.LVL779>:
                if (x16 == 1)
    23f6:	0010d893          	srli	a7,ra,0x1
    23fa:	00038b63          	beqz	t2,2410 <.L908>

000023fe <.LVL780>:
                   crc |= 0x8000;
    23fe:	7769                	lui	a4,0xffffa
    2400:	00170593          	addi	a1,a4,1 # ffffa001 <STACK+0xffb1a51>
    2404:	00b8c833          	xor	a6,a7,a1

00002408 <.LVL781>:
    2408:	01081513          	slli	a0,a6,0x10
    240c:	01055893          	srli	a7,a0,0x10

00002410 <.L908>:
                x16 = (ee_u8)((data & 1) ^ ((ee_u8)crc & 1));
    2410:	0068ce33          	xor	t3,a7,t1
                if (x16 == 1)
    2414:	001e7e93          	andi	t4,t3,1
                data >>= 1;
    2418:	00665f13          	srli	t5,a2,0x6

0000241c <.LVL783>:
                if (x16 == 1)
    241c:	0018d093          	srli	ra,a7,0x1
    2420:	000e8b63          	beqz	t4,2436 <.L909>

00002424 <.LVL784>:
                   crc |= 0x8000;
    2424:	7fe9                	lui	t6,0xffffa
    2426:	001f8413          	addi	s0,t6,1 # ffffa001 <STACK+0xffb1a51>
    242a:	0080c6b3          	xor	a3,ra,s0

0000242e <.LVL785>:
    242e:	01069293          	slli	t0,a3,0x10
    2432:	0102d093          	srli	ra,t0,0x10

00002436 <.L909>:
                x16 = (ee_u8)((data & 1) ^ ((ee_u8)crc & 1));
    2436:	01e0c7b3          	xor	a5,ra,t5
                if (x16 == 1)
    243a:	0017f393          	andi	t2,a5,1
                data >>= 1;
    243e:	821d                	srli	a2,a2,0x7

00002440 <.LVL787>:
                if (x16 == 1)
    2440:	0010d513          	srli	a0,ra,0x1
    2444:	00038b63          	beqz	t2,245a <.L910>

00002448 <.LVL788>:
                   crc |= 0x8000;
    2448:	7369                	lui	t1,0xffffa
    244a:	00130713          	addi	a4,t1,1 # ffffa001 <STACK+0xffb1a51>
    244e:	00e545b3          	xor	a1,a0,a4

00002452 <.LVL789>:
    2452:	01059813          	slli	a6,a1,0x10
    2456:	01085513          	srli	a0,a6,0x10

0000245a <.L910>:
                if (x16 == 1)
    245a:	00157893          	andi	a7,a0,1
    245e:	8105                	srli	a0,a0,0x1
    2460:	00c88b63          	beq	a7,a2,2476 <.L911>

00002464 <.LVL791>:
                   crc |= 0x8000;
    2464:	7e69                	lui	t3,0xffffa
    2466:	001e0e93          	addi	t4,t3,1 # ffffa001 <STACK+0xffb1a51>
    246a:	01d54f33          	xor	t5,a0,t4
    246e:	010f1f93          	slli	t6,t5,0x10
    2472:	010fd513          	srli	a0,t6,0x10

00002476 <.L911>:
}
    2476:	40b2                	lw	ra,12(sp)
    2478:	4422                	lw	s0,8(sp)
    247a:	0141                	addi	sp,sp,16
    247c:	8082                	ret

0000247e <.L961>:
                   crc |= 0x8000;
    247e:	7f69                	lui	t5,0xffffa
    2480:	001f0f93          	addi	t6,t5,1 # ffffa001 <STACK+0xffb1a51>
    2484:	01f2c433          	xor	s0,t0,t6

00002488 <.LVL794>:
    2488:	01041693          	slli	a3,s0,0x10
    248c:	0106d293          	srli	t0,a3,0x10

00002490 <.LVL795>:
    2490:	bd6d                	j	234a <.L903>

00002492 <core_init_matrix>:
ee_u32 core_init_matrix(ee_u32 blksize, void *memblk, ee_s32 seed, mat_params *p) {
    2492:	7179                	addi	sp,sp,-48
    2494:	d24a                	sw	s2,36(sp)
    2496:	d622                	sw	s0,44(sp)
    2498:	d426                	sw	s1,40(sp)
    249a:	d04e                	sw	s3,32(sp)
    249c:	ce52                	sw	s4,28(sp)
    249e:	cc56                	sw	s5,24(sp)
    24a0:	ca5a                	sw	s6,20(sp)
    24a2:	c85e                	sw	s7,16(sp)
    24a4:	c662                	sw	s8,12(sp)
    24a6:	c466                	sw	s9,8(sp)
    24a8:	c26a                	sw	s10,4(sp)
    24aa:	872a                	mv	a4,a0

000024ac <.LVL797>:
    24ac:	8936                	mv	s2,a3
        if (seed==0)
    24ae:	e211                	bnez	a2,24b2 <.L963>
                seed=1;
    24b0:	4605                	li	a2,1

000024b2 <.L963>:
        A=(MATDAT *)align_mem(memblk);
    24b2:	15fd                	addi	a1,a1,-1

000024b4 <.LVL799>:
    24b4:	ffc5f413          	andi	s0,a1,-4
    24b8:	00440a13          	addi	s4,s0,4
        while (j<blksize) {
    24bc:	4781                	li	a5,0
    24be:	34070263          	beqz	a4,2802 <.L1012>

000024c2 <.L964>:
                i++;
    24c2:	00178293          	addi	t0,a5,1

000024c6 <.LVL801>:
                j=i*i*2*4;
    24c6:	025286b3          	mul	a3,t0,t0
                i++;
    24ca:	00278813          	addi	a6,a5,2
    24ce:	00378e13          	addi	t3,a5,3
    24d2:	00478f13          	addi	t5,a5,4
    24d6:	00578e93          	addi	t4,a5,5
    24da:	00678893          	addi	a7,a5,6
    24de:	00778313          	addi	t1,a5,7
        while (j<blksize) {
    24e2:	853e                	mv	a0,a5
                i++;
    24e4:	07a1                	addi	a5,a5,8
                j=i*i*2*4;
    24e6:	00369393          	slli	t2,a3,0x3
        while (j<blksize) {
    24ea:	06e3f363          	bgeu	t2,a4,2550 <.L1007>
                j=i*i*2*4;
    24ee:	030809b3          	mul	s3,a6,a6
    24f2:	8516                	mv	a0,t0
    24f4:	00399b13          	slli	s6,s3,0x3
        while (j<blksize) {
    24f8:	04eb7c63          	bgeu	s6,a4,2550 <.L1007>
                j=i*i*2*4;
    24fc:	03ce0bb3          	mul	s7,t3,t3
    2500:	8542                	mv	a0,a6
    2502:	003b9c13          	slli	s8,s7,0x3
        while (j<blksize) {
    2506:	04ec7563          	bgeu	s8,a4,2550 <.L1007>
                j=i*i*2*4;
    250a:	03ef0cb3          	mul	s9,t5,t5
    250e:	8572                	mv	a0,t3
    2510:	003c9d13          	slli	s10,s9,0x3
        while (j<blksize) {
    2514:	02ed7e63          	bgeu	s10,a4,2550 <.L1007>
                j=i*i*2*4;
    2518:	03de8fb3          	mul	t6,t4,t4
    251c:	857a                	mv	a0,t5
    251e:	003f9593          	slli	a1,t6,0x3
        while (j<blksize) {
    2522:	02e5f763          	bgeu	a1,a4,2550 <.L1007>
                j=i*i*2*4;
    2526:	03188433          	mul	s0,a7,a7
    252a:	8576                	mv	a0,t4
    252c:	00341a93          	slli	s5,s0,0x3
        while (j<blksize) {
    2530:	02eaf063          	bgeu	s5,a4,2550 <.L1007>
                j=i*i*2*4;
    2534:	026304b3          	mul	s1,t1,t1
    2538:	8546                	mv	a0,a7
    253a:	00349293          	slli	t0,s1,0x3
        while (j<blksize) {
    253e:	00e2f963          	bgeu	t0,a4,2550 <.L1007>
                j=i*i*2*4;
    2542:	02f78833          	mul	a6,a5,a5
    2546:	851a                	mv	a0,t1
    2548:	00381e13          	slli	t3,a6,0x3
        while (j<blksize) {
    254c:	f6ee6be3          	bltu	t3,a4,24c2 <.L964>

00002550 <.L1007>:
        B=A+N*N;
    2550:	02a50733          	mul	a4,a0,a0

00002554 <.LVL803>:
        p->N=N;
    2554:	8aaa                	mv	s5,a0
        B=A+N*N;
    2556:	00171493          	slli	s1,a4,0x1
    255a:	009a0433          	add	s0,s4,s1

0000255e <.LVL804>:
        for (i=0; i<N; i++) {
    255e:	26050663          	beqz	a0,27ca <.L968>

00002562 <.L967>:
                        seed = ( ( order * seed ) % 65536 );
    2562:	6ec1                	lui	t4,0x10
        B=A+N*N;
    2564:	4681                	li	a3,0
    2566:	4381                	li	t2,0
    2568:	4f85                	li	t6,1
    256a:	408a0f33          	sub	t5,s4,s0
                        seed = ( ( order * seed ) % 65536 );
    256e:	1efd                	addi	t4,t4,-1
                        order++;
    2570:	fff50993          	addi	s3,a0,-1

00002574 <.L972>:
                        seed = ( ( order * seed ) % 65536 );
    2574:	03f60633          	mul	a2,a2,t6
    2578:	010f9893          	slli	a7,t6,0x10
    257c:	0108d793          	srli	a5,a7,0x10
    2580:	00169313          	slli	t1,a3,0x1
    2584:	00830b33          	add	s6,t1,s0
    2588:	fff50c13          	addi	s8,a0,-1
    258c:	003c7c93          	andi	s9,s8,3

00002590 <.LVL807>:
                        A[i*N+j] = val;
    2590:	016f0bb3          	add	s7,t5,s6
                for (j=0; j<N; j++) {
    2594:	4e05                	li	t3,1
                        order++;
    2596:	001f8813          	addi	a6,t6,1
                        seed = ( ( order * seed ) % 65536 );
    259a:	41f65d13          	srai	s10,a2,0x1f
    259e:	010d5293          	srli	t0,s10,0x10
    25a2:	00560733          	add	a4,a2,t0
    25a6:	01d77633          	and	a2,a4,t4

000025aa <.LVL808>:
    25aa:	40560633          	sub	a2,a2,t0

000025ae <.LVL809>:
                        val = (seed + order);
    25ae:	00c788b3          	add	a7,a5,a2
    25b2:	01089313          	slli	t1,a7,0x10
    25b6:	01035c13          	srli	s8,t1,0x10
                        val =  (val + order);
    25ba:	97e2                	add	a5,a5,s8
                        B[i*N+j] = val;
    25bc:	018b1023          	sh	s8,0(s6)
                        val=matrix_clip(val,1);
    25c0:	0ff7fd13          	andi	s10,a5,255
                        A[i*N+j] = val;
    25c4:	01ab9023          	sh	s10,0(s7)

000025c8 <.LVL811>:
                for (j=0; j<N; j++) {
    25c8:	002b0593          	addi	a1,s6,2
    25cc:	1eae7663          	bgeu	t3,a0,27b8 <.L1009>
    25d0:	0e0c8363          	beqz	s9,26b6 <.L969>
    25d4:	09cc8c63          	beq	s9,t3,266c <.L997>
    25d8:	4b89                	li	s7,2
    25da:	057c8663          	beq	s9,s7,2626 <.L998>
                        seed = ( ( order * seed ) % 65536 );
    25de:	03060cb3          	mul	s9,a2,a6
    25e2:	0842                	slli	a6,a6,0x10

000025e4 <.LVL812>:
    25e4:	01085293          	srli	t0,a6,0x10
                        A[i*N+j] = val;
    25e8:	00bf08b3          	add	a7,t5,a1
                for (j=0; j<N; j++) {
    25ec:	004b0593          	addi	a1,s6,4
                        order++;
    25f0:	002f8813          	addi	a6,t6,2
                for (j=0; j<N; j++) {
    25f4:	4e09                	li	t3,2
                        seed = ( ( order * seed ) % 65536 );
    25f6:	41fcd713          	srai	a4,s9,0x1f
    25fa:	01075313          	srli	t1,a4,0x10
    25fe:	006c8633          	add	a2,s9,t1

00002602 <.LVL813>:
    2602:	01d67c33          	and	s8,a2,t4

00002606 <.LVL814>:
    2606:	406c0633          	sub	a2,s8,t1

0000260a <.LVL815>:
                        val = (seed + order);
    260a:	00c287b3          	add	a5,t0,a2
    260e:	01079d13          	slli	s10,a5,0x10
    2612:	010d5b93          	srli	s7,s10,0x10
                        val =  (val + order);
    2616:	005b8cb3          	add	s9,s7,t0
                        B[i*N+j] = val;
    261a:	017b1123          	sh	s7,2(s6)
                        val=matrix_clip(val,1);
    261e:	0ffcfb13          	andi	s6,s9,255
                        A[i*N+j] = val;
    2622:	01689023          	sh	s6,0(a7)

00002626 <.L998>:
                        seed = ( ( order * seed ) % 65536 );
    2626:	030602b3          	mul	t0,a2,a6
    262a:	01081893          	slli	a7,a6,0x10
    262e:	0108d313          	srli	t1,a7,0x10
                        A[i*N+j] = val;
    2632:	00bf0c33          	add	s8,t5,a1
                for (j=0; j<N; j++) {
    2636:	0e05                	addi	t3,t3,1
                        val = (seed + order);
    2638:	0805                	addi	a6,a6,1
                for (j=0; j<N; j++) {
    263a:	0589                	addi	a1,a1,2
                        seed = ( ( order * seed ) % 65536 );
    263c:	41f2d713          	srai	a4,t0,0x1f
    2640:	01075793          	srli	a5,a4,0x10
    2644:	00f28633          	add	a2,t0,a5

00002648 <.LVL817>:
    2648:	01d67d33          	and	s10,a2,t4

0000264c <.LVL818>:
    264c:	40fd0633          	sub	a2,s10,a5

00002650 <.LVL819>:
                        val = (seed + order);
    2650:	00c30bb3          	add	s7,t1,a2
    2654:	010b9c93          	slli	s9,s7,0x10
    2658:	010cdb13          	srli	s6,s9,0x10
                        val =  (val + order);
    265c:	006b02b3          	add	t0,s6,t1
                        B[i*N+j] = val;
    2660:	ff659f23          	sh	s6,-2(a1)
                        val=matrix_clip(val,1);
    2664:	0ff2f893          	andi	a7,t0,255
                        A[i*N+j] = val;
    2668:	011c1023          	sh	a7,0(s8)

0000266c <.L997>:
                        seed = ( ( order * seed ) % 65536 );
    266c:	03060333          	mul	t1,a2,a6
    2670:	01081c13          	slli	s8,a6,0x10
    2674:	010c5793          	srli	a5,s8,0x10
                        A[i*N+j] = val;
    2678:	00bf0d33          	add	s10,t5,a1
                for (j=0; j<N; j++) {
    267c:	0589                	addi	a1,a1,2
    267e:	0e05                	addi	t3,t3,1
                        val = (seed + order);
    2680:	0805                	addi	a6,a6,1
                        seed = ( ( order * seed ) % 65536 );
    2682:	41f35713          	srai	a4,t1,0x1f
    2686:	01075b93          	srli	s7,a4,0x10
    268a:	01730633          	add	a2,t1,s7

0000268e <.LVL820>:
    268e:	01d67cb3          	and	s9,a2,t4

00002692 <.LVL821>:
    2692:	417c8633          	sub	a2,s9,s7

00002696 <.LVL822>:
                        val = (seed + order);
    2696:	00c78b33          	add	s6,a5,a2
    269a:	010b1293          	slli	t0,s6,0x10
    269e:	0102d893          	srli	a7,t0,0x10
                        val =  (val + order);
    26a2:	00f88333          	add	t1,a7,a5
                        B[i*N+j] = val;
    26a6:	ff159f23          	sh	a7,-2(a1)
                        val=matrix_clip(val,1);
    26aa:	0ff37c13          	andi	s8,t1,255
                        A[i*N+j] = val;
    26ae:	018d1023          	sh	s8,0(s10)
                for (j=0; j<N; j++) {
    26b2:	10ae7363          	bgeu	t3,a0,27b8 <.L1009>

000026b6 <.L969>:
                        seed = ( ( order * seed ) % 65536 );
    26b6:	03060633          	mul	a2,a2,a6

000026ba <.LVL823>:
                        order++;
    26ba:	00280793          	addi	a5,a6,2
    26be:	00380b13          	addi	s6,a6,3
    26c2:	01081d13          	slli	s10,a6,0x10
    26c6:	010d5293          	srli	t0,s10,0x10
    26ca:	01079893          	slli	a7,a5,0x10
    26ce:	010b1d13          	slli	s10,s6,0x10
    26d2:	0108d313          	srli	t1,a7,0x10
    26d6:	010d5893          	srli	a7,s10,0x10
    26da:	00180713          	addi	a4,a6,1
                        seed = ( ( order * seed ) % 65536 );
    26de:	41f65d13          	srai	s10,a2,0x1f
    26e2:	010d5d13          	srli	s10,s10,0x10
    26e6:	966a                	add	a2,a2,s10
    26e8:	01d67633          	and	a2,a2,t4
    26ec:	41a60d33          	sub	s10,a2,s10
                        val = (seed + order);
    26f0:	01071b93          	slli	s7,a4,0x10
                        seed = ( ( order * seed ) % 65536 );
    26f4:	02ed0733          	mul	a4,s10,a4
                        val = (seed + order);
    26f8:	01a28633          	add	a2,t0,s10
    26fc:	01061d13          	slli	s10,a2,0x10
    2700:	010d5613          	srli	a2,s10,0x10
                        val =  (val + order);
    2704:	92b2                	add	t0,t0,a2
                        A[i*N+j] = val;
    2706:	00bf0cb3          	add	s9,t5,a1
                        B[i*N+j] = val;
    270a:	00c59023          	sh	a2,0(a1)

0000270e <.LVL824>:
                        val=matrix_clip(val,1);
    270e:	0ff2fd13          	andi	s10,t0,255
                        A[i*N+j] = val;
    2712:	01ac9023          	sh	s10,0(s9)
    2716:	8c66                	mv	s8,s9
    2718:	8666                	mv	a2,s9
    271a:	82e6                	mv	t0,s9

0000271c <.LVL825>:
                        seed = ( ( order * seed ) % 65536 );
    271c:	41f75c93          	srai	s9,a4,0x1f
    2720:	010cdd13          	srli	s10,s9,0x10
    2724:	976a                	add	a4,a4,s10
    2726:	01d77cb3          	and	s9,a4,t4
    272a:	41ac8d33          	sub	s10,s9,s10
    272e:	02fd07b3          	mul	a5,s10,a5
    2732:	010bdb93          	srli	s7,s7,0x10
                        val = (seed + order);
    2736:	01ab8733          	add	a4,s7,s10
    273a:	01071c93          	slli	s9,a4,0x10
    273e:	010cdd13          	srli	s10,s9,0x10
                        val =  (val + order);
    2742:	9bea                	add	s7,s7,s10
                        B[i*N+j] = val;
    2744:	01a59123          	sh	s10,2(a1)
                        val=matrix_clip(val,1);
    2748:	0ffbf713          	andi	a4,s7,255
                        A[i*N+j] = val;
    274c:	00ec1123          	sh	a4,2(s8)
                for (j=0; j<N; j++) {
    2750:	05a1                	addi	a1,a1,8
                        seed = ( ( order * seed ) % 65536 );
    2752:	41f7dc13          	srai	s8,a5,0x1f
    2756:	010c5c93          	srli	s9,s8,0x10
    275a:	97e6                	add	a5,a5,s9
    275c:	01d7fd33          	and	s10,a5,t4
    2760:	419d0bb3          	sub	s7,s10,s9
    2764:	036b8b33          	mul	s6,s7,s6
                        val = (seed + order);
    2768:	01730733          	add	a4,t1,s7
    276c:	01071c13          	slli	s8,a4,0x10
    2770:	010c5c93          	srli	s9,s8,0x10
                        val =  (val + order);
    2774:	9366                	add	t1,t1,s9
                        B[i*N+j] = val;
    2776:	ff959e23          	sh	s9,-4(a1)
                        val=matrix_clip(val,1);
    277a:	0ff37793          	andi	a5,t1,255
                        A[i*N+j] = val;
    277e:	00f61223          	sh	a5,4(a2)
                for (j=0; j<N; j++) {
    2782:	0e11                	addi	t3,t3,4
                        order++;
    2784:	0811                	addi	a6,a6,4
                        seed = ( ( order * seed ) % 65536 );
    2786:	41fb5613          	srai	a2,s6,0x1f
    278a:	01065d13          	srli	s10,a2,0x10
    278e:	01ab0bb3          	add	s7,s6,s10
    2792:	01dbfb33          	and	s6,s7,t4

00002796 <.LVL826>:
    2796:	41ab0633          	sub	a2,s6,s10

0000279a <.LVL827>:
                        val = (seed + order);
    279a:	00c88733          	add	a4,a7,a2
    279e:	01071c13          	slli	s8,a4,0x10
    27a2:	010c5c93          	srli	s9,s8,0x10
                        val =  (val + order);
    27a6:	98e6                	add	a7,a7,s9
                        B[i*N+j] = val;
    27a8:	ff959f23          	sh	s9,-2(a1)
                        val=matrix_clip(val,1);
    27ac:	0ff8f313          	andi	t1,a7,255
                        A[i*N+j] = val;
    27b0:	00629323          	sh	t1,6(t0)

000027b4 <.LVL828>:
                for (j=0; j<N; j++) {
    27b4:	f0ae61e3          	bltu	t3,a0,26b6 <.L969>

000027b8 <.L1009>:
    27b8:	0f85                	addi	t6,t6,1
                        order++;
    27ba:	4e01                	li	t3,0
    27bc:	c111                	beqz	a0,27c0 <.L971>
    27be:	8e4e                	mv	t3,s3

000027c0 <.L971>:
        for (i=0; i<N; i++) {
    27c0:	0385                	addi	t2,t2,1

000027c2 <.LVL830>:
                        order++;
    27c2:	9ff2                	add	t6,t6,t3

000027c4 <.LVL831>:
        for (i=0; i<N; i++) {
    27c4:	96aa                	add	a3,a3,a0
    27c6:	daa3e7e3          	bltu	t2,a0,2574 <.L972>

000027ca <.L968>:
        p->C=(MATRES *)align_mem(B+N*N);
    27ca:	94a2                	add	s1,s1,s0
    27cc:	fff48693          	addi	a3,s1,-1
        p->B=B;
    27d0:	00892423          	sw	s0,8(s2)
        p->C=(MATRES *)align_mem(B+N*N);
    27d4:	ffc6f393          	andi	t2,a3,-4
}
    27d8:	5432                	lw	s0,44(sp)
        p->C=(MATRES *)align_mem(B+N*N);
    27da:	00438f13          	addi	t5,t2,4
        p->A=A;
    27de:	01492223          	sw	s4,4(s2)
        p->N=N;
    27e2:	01592023          	sw	s5,0(s2)
        p->C=(MATRES *)align_mem(B+N*N);
    27e6:	01e92623          	sw	t5,12(s2)
}
    27ea:	54a2                	lw	s1,40(sp)
    27ec:	5912                	lw	s2,36(sp)

000027ee <.LVL833>:
    27ee:	5982                	lw	s3,32(sp)
    27f0:	4a72                	lw	s4,28(sp)
    27f2:	4ae2                	lw	s5,24(sp)
    27f4:	4b52                	lw	s6,20(sp)
    27f6:	4bc2                	lw	s7,16(sp)
    27f8:	4c32                	lw	s8,12(sp)
    27fa:	4ca2                	lw	s9,8(sp)
    27fc:	4d12                	lw	s10,4(sp)
    27fe:	6145                	addi	sp,sp,48
    2800:	8082                	ret

00002802 <.L1012>:
        B=A+N*N;
    2802:	0419                	addi	s0,s0,6

00002804 <.LVL835>:
    2804:	5afd                	li	s5,-1
        N=i-1;
    2806:	557d                	li	a0,-1

00002808 <.LVL836>:
        B=A+N*N;
    2808:	4489                	li	s1,2
    280a:	bba1                	j	2562 <.L967>

0000280c <matrix_sum>:
ee_s16 matrix_sum(ee_u32 N, MATRES *C, MATDAT clipval) {
    280c:	882a                	mv	a6,a0
        for (i=0; i<N; i++) {
    280e:	3e050663          	beqz	a0,2bfa <.L1019>
    2812:	40a008b3          	neg	a7,a0
    2816:	00251713          	slli	a4,a0,0x2
    281a:	972e                	add	a4,a4,a1
    281c:	00289313          	slli	t1,a7,0x2
    2820:	4581                	li	a1,0

00002822 <.LVL838>:
        ee_s16 ret=0;
    2822:	4501                	li	a0,0

00002824 <.LVL839>:
        MATRES tmp=0,prev=0,cur=0;
    2824:	4f81                	li	t6,0
    2826:	4e81                	li	t4,0
        for (i=0; i<N; i++) {
    2828:	088e                	slli	a7,a7,0x3

0000282a <.L1018>:
                for (j=0; j<N; j++) {
    282a:	00e306b3          	add	a3,t1,a4
    282e:	40d707b3          	sub	a5,a4,a3
    2832:	ffc78293          	addi	t0,a5,-4
    2836:	0022d393          	srli	t2,t0,0x2
    283a:	00138e13          	addi	t3,t2,1
    283e:	007e7793          	andi	a5,t3,7
        MATRES tmp=0,prev=0,cur=0;
    2842:	8e36                	mv	t3,a3
    2844:	22078063          	beqz	a5,2a64 <.L1017>
    2848:	4f05                	li	t5,1
    284a:	0fe78963          	beq	a5,t5,293c <.L1057>
    284e:	4289                	li	t0,2
    2850:	0c578463          	beq	a5,t0,2918 <.L1058>
    2854:	438d                	li	t2,3
    2856:	0a778163          	beq	a5,t2,28f8 <.L1059>
    285a:	4f11                	li	t5,4
    285c:	07e78c63          	beq	a5,t5,28d4 <.L1060>
    2860:	4295                	li	t0,5
    2862:	04578763          	beq	a5,t0,28b0 <.L1061>
    2866:	4399                	li	t2,6
    2868:	02778463          	beq	a5,t2,2890 <.L1062>

0000286c <.LVL841>:
                        cur=C[i*N+j];
    286c:	8e7e                	mv	t3,t6

0000286e <.LVL842>:
    286e:	0006af83          	lw	t6,0(a3)

00002872 <.LVL843>:
                                ret+=10;
    2872:	0542                	slli	a0,a0,0x10
    2874:	01055f13          	srli	t5,a0,0x10
                        tmp+=cur;
    2878:	9efe                	add	t4,t4,t6

0000287a <.LVL844>:
                        if (tmp>clipval) {
    287a:	37d65763          	bge	a2,t4,2be8 <.L1066>
                                ret+=10;
    287e:	00af0e93          	addi	t4,t5,10

00002882 <.LVL845>:
    2882:	010e9e13          	slli	t3,t4,0x10
    2886:	410e5513          	srai	a0,t3,0x10

0000288a <.LVL846>:
                                tmp=0;
    288a:	4e81                	li	t4,0

0000288c <.L1067>:
                for (j=0; j<N; j++) {
    288c:	00468e13          	addi	t3,a3,4

00002890 <.L1062>:
                        cur=C[i*N+j];
    2890:	8f7e                	mv	t5,t6

00002892 <.LVL849>:
    2892:	000e2f83          	lw	t6,0(t3)

00002896 <.LVL850>:
                                ret+=10;
    2896:	0542                	slli	a0,a0,0x10
    2898:	01055293          	srli	t0,a0,0x10
                        tmp+=cur;
    289c:	9efe                	add	t4,t4,t6

0000289e <.LVL851>:
                        if (tmp>clipval) {
    289e:	33d65c63          	bge	a2,t4,2bd6 <.L1068>
                                ret+=10;
    28a2:	00a28e93          	addi	t4,t0,10

000028a6 <.LVL852>:
    28a6:	010e9513          	slli	a0,t4,0x10
    28aa:	8541                	srai	a0,a0,0x10

000028ac <.LVL853>:
                                tmp=0;
    28ac:	4e81                	li	t4,0

000028ae <.L1069>:
                for (j=0; j<N; j++) {
    28ae:	0e11                	addi	t3,t3,4

000028b0 <.L1061>:
                        cur=C[i*N+j];
    28b0:	82fe                	mv	t0,t6

000028b2 <.LVL856>:
    28b2:	000e2f83          	lw	t6,0(t3)

000028b6 <.LVL857>:
                                ret+=10;
    28b6:	01051793          	slli	a5,a0,0x10
    28ba:	0107d393          	srli	t2,a5,0x10
                        tmp+=cur;
    28be:	9efe                	add	t4,t4,t6

000028c0 <.LVL858>:
                        if (tmp>clipval) {
    28c0:	31d65263          	bge	a2,t4,2bc4 <.L1070>
                                ret+=10;
    28c4:	00a38e93          	addi	t4,t2,10

000028c8 <.LVL859>:
    28c8:	010e9793          	slli	a5,t4,0x10
    28cc:	4107d513          	srai	a0,a5,0x10

000028d0 <.LVL860>:
                                tmp=0;
    28d0:	4e81                	li	t4,0

000028d2 <.L1071>:
                for (j=0; j<N; j++) {
    28d2:	0e11                	addi	t3,t3,4

000028d4 <.L1060>:
                        cur=C[i*N+j];
    28d4:	83fe                	mv	t2,t6

000028d6 <.LVL863>:
    28d6:	000e2f83          	lw	t6,0(t3)

000028da <.LVL864>:
                                ret+=10;
    28da:	01051f13          	slli	t5,a0,0x10
    28de:	010f5513          	srli	a0,t5,0x10
                        tmp+=cur;
    28e2:	9efe                	add	t4,t4,t6

000028e4 <.LVL865>:
                        if (tmp>clipval) {
    28e4:	2dd65763          	bge	a2,t4,2bb2 <.L1072>
                                ret+=10;
    28e8:	00a50e93          	addi	t4,a0,10

000028ec <.LVL866>:
    28ec:	010e9f13          	slli	t5,t4,0x10
    28f0:	410f5513          	srai	a0,t5,0x10

000028f4 <.LVL867>:
                                tmp=0;
    28f4:	4e81                	li	t4,0

000028f6 <.L1073>:
                for (j=0; j<N; j++) {
    28f6:	0e11                	addi	t3,t3,4

000028f8 <.L1059>:
                        cur=C[i*N+j];
    28f8:	82fe                	mv	t0,t6

000028fa <.LVL870>:
    28fa:	000e2f83          	lw	t6,0(t3)

000028fe <.LVL871>:
                                ret+=10;
    28fe:	0542                	slli	a0,a0,0x10
    2900:	01055393          	srli	t2,a0,0x10
                        tmp+=cur;
    2904:	9efe                	add	t4,t4,t6

00002906 <.LVL872>:
                        if (tmp>clipval) {
    2906:	29d65d63          	bge	a2,t4,2ba0 <.L1074>
                                ret+=10;
    290a:	00a38e93          	addi	t4,t2,10

0000290e <.LVL873>:
    290e:	010e9513          	slli	a0,t4,0x10
    2912:	8541                	srai	a0,a0,0x10

00002914 <.LVL874>:
                                tmp=0;
    2914:	4e81                	li	t4,0

00002916 <.L1075>:
                for (j=0; j<N; j++) {
    2916:	0e11                	addi	t3,t3,4

00002918 <.L1058>:
                        cur=C[i*N+j];
    2918:	83fe                	mv	t2,t6

0000291a <.LVL877>:
    291a:	000e2f83          	lw	t6,0(t3)

0000291e <.LVL878>:
                                ret+=10;
    291e:	01051793          	slli	a5,a0,0x10
    2922:	0107df13          	srli	t5,a5,0x10
                        tmp+=cur;
    2926:	9efe                	add	t4,t4,t6

00002928 <.LVL879>:
                        if (tmp>clipval) {
    2928:	27d65363          	bge	a2,t4,2b8e <.L1076>
                                ret+=10;
    292c:	00af0e93          	addi	t4,t5,10

00002930 <.LVL880>:
    2930:	010e9793          	slli	a5,t4,0x10
    2934:	4107d513          	srai	a0,a5,0x10

00002938 <.LVL881>:
                                tmp=0;
    2938:	4e81                	li	t4,0

0000293a <.L1077>:
                for (j=0; j<N; j++) {
    293a:	0e11                	addi	t3,t3,4

0000293c <.L1057>:
                        cur=C[i*N+j];
    293c:	8f7e                	mv	t5,t6

0000293e <.LVL884>:
    293e:	000e2f83          	lw	t6,0(t3)

00002942 <.LVL885>:
                                ret+=10;
    2942:	01051293          	slli	t0,a0,0x10
    2946:	0102d513          	srli	a0,t0,0x10
                        tmp+=cur;
    294a:	9efe                	add	t4,t4,t6

0000294c <.LVL886>:
                        if (tmp>clipval) {
    294c:	23d65863          	bge	a2,t4,2b7c <.L1078>
                                ret+=10;
    2950:	00a50e93          	addi	t4,a0,10

00002954 <.LVL887>:
    2954:	010e9293          	slli	t0,t4,0x10
    2958:	4102d513          	srai	a0,t0,0x10

0000295c <.LVL888>:
                                tmp=0;
    295c:	4e81                	li	t4,0

0000295e <.L1079>:
                for (j=0; j<N; j++) {
    295e:	0e11                	addi	t3,t3,4

00002960 <.LVL890>:
    2960:	11c71263          	bne	a4,t3,2a64 <.L1017>

00002964 <.L1080>:
        for (i=0; i<N; i++) {
    2964:	0585                	addi	a1,a1,1
    2966:	41168733          	sub	a4,a3,a7
    296a:	ecb810e3          	bne	a6,a1,282a <.L1018>
    296e:	8082                	ret

00002970 <.L1095>:
                                ret += (cur>prev) ? 1 : 0;
    2970:	007fafb3          	slt	t6,t6,t2
    2974:	01ff07b3          	add	a5,t5,t6
                        cur=C[i*N+j];
    2978:	004e2f83          	lw	t6,4(t3)
                                ret += (cur>prev) ? 1 : 0;
    297c:	01079293          	slli	t0,a5,0x10
    2980:	4102df13          	srai	t5,t0,0x10
                                ret+=10;
    2984:	010f1793          	slli	a5,t5,0x10
                        tmp+=cur;
    2988:	01fe8533          	add	a0,t4,t6
                for (j=0; j<N; j++) {
    298c:	0e11                	addi	t3,t3,4
                                ret+=10;
    298e:	0107d293          	srli	t0,a5,0x10
                        if (tmp>clipval) {
    2992:	10a65363          	bge	a2,a0,2a98 <.L1094>

00002996 <.L1043>:
                        cur=C[i*N+j];
    2996:	004e2383          	lw	t2,4(t3)
                                ret+=10;
    299a:	02a9                	addi	t0,t0,10
    299c:	01029513          	slli	a0,t0,0x10
    29a0:	41055793          	srai	a5,a0,0x10

000029a4 <.LVL893>:
                                tmp=0;
    29a4:	4501                	li	a0,0

000029a6 <.LVL894>:
                                ret+=10;
    29a6:	01079f13          	slli	t5,a5,0x10
                        tmp+=cur;
    29aa:	00750eb3          	add	t4,a0,t2
                                ret+=10;
    29ae:	010f5793          	srli	a5,t5,0x10
                        if (tmp>clipval) {
    29b2:	11d65563          	bge	a2,t4,2abc <.L1082>

000029b6 <.L1096>:
                        cur=C[i*N+j];
    29b6:	008e2f83          	lw	t6,8(t3)
                                ret+=10;
    29ba:	07a9                	addi	a5,a5,10
    29bc:	01079e93          	slli	t4,a5,0x10
    29c0:	410edf13          	srai	t5,t4,0x10

000029c4 <.LVL895>:
                                tmp=0;
    29c4:	4e81                	li	t4,0

000029c6 <.LVL896>:
                                ret+=10;
    29c6:	010f1293          	slli	t0,t5,0x10
                        tmp+=cur;
    29ca:	9efe                	add	t4,t4,t6
                                ret+=10;
    29cc:	0102d513          	srli	a0,t0,0x10
                        if (tmp>clipval) {
    29d0:	11d65763          	bge	a2,t4,2ade <.L1084>

000029d4 <.L1097>:
                        cur=C[i*N+j];
    29d4:	00ce2383          	lw	t2,12(t3)
                                ret+=10;
    29d8:	0529                	addi	a0,a0,10
    29da:	01051e93          	slli	t4,a0,0x10
    29de:	410ed293          	srai	t0,t4,0x10

000029e2 <.LVL897>:
                                tmp=0;
    29e2:	4e81                	li	t4,0

000029e4 <.LVL898>:
                                ret+=10;
    29e4:	01029f13          	slli	t5,t0,0x10
                        tmp+=cur;
    29e8:	007e82b3          	add	t0,t4,t2
                                ret+=10;
    29ec:	010f5793          	srli	a5,t5,0x10
                        if (tmp>clipval) {
    29f0:	10565963          	bge	a2,t0,2b02 <.L1086>

000029f4 <.L1098>:
                                ret+=10;
    29f4:	07a9                	addi	a5,a5,10
                        cur=C[i*N+j];
    29f6:	010e2f83          	lw	t6,16(t3)
                                ret+=10;
    29fa:	01079293          	slli	t0,a5,0x10
    29fe:	4102df13          	srai	t5,t0,0x10

00002a02 <.LVL899>:
                                tmp=0;
    2a02:	4281                	li	t0,0

00002a04 <.LVL900>:
                                ret+=10;
    2a04:	010f1513          	slli	a0,t5,0x10
                        tmp+=cur;
    2a08:	01f28eb3          	add	t4,t0,t6
                                ret+=10;
    2a0c:	01055793          	srli	a5,a0,0x10
                        if (tmp>clipval) {
    2a10:	11d65b63          	bge	a2,t4,2b26 <.L1088>

00002a14 <.L1099>:
                        cur=C[i*N+j];
    2a14:	014e2383          	lw	t2,20(t3)
                                ret+=10;
    2a18:	07a9                	addi	a5,a5,10
    2a1a:	01079e93          	slli	t4,a5,0x10
    2a1e:	410ed513          	srai	a0,t4,0x10

00002a22 <.LVL901>:
                                tmp=0;
    2a22:	4e81                	li	t4,0

00002a24 <.LVL902>:
                                ret+=10;
    2a24:	01051f13          	slli	t5,a0,0x10
                        tmp+=cur;
    2a28:	9e9e                	add	t4,t4,t2
                                ret+=10;
    2a2a:	010f5293          	srli	t0,t5,0x10
                        if (tmp>clipval) {
    2a2e:	11d65d63          	bge	a2,t4,2b48 <.L1090>

00002a32 <.L1100>:
                        cur=C[i*N+j];
    2a32:	018e2f83          	lw	t6,24(t3)
                                ret+=10;
    2a36:	02a9                	addi	t0,t0,10
    2a38:	01029e93          	slli	t4,t0,0x10
    2a3c:	410edf13          	srai	t5,t4,0x10

00002a40 <.LVL903>:
                                tmp=0;
    2a40:	4e81                	li	t4,0

00002a42 <.LVL904>:
                                ret+=10;
    2a42:	010f1513          	slli	a0,t5,0x10
                        tmp+=cur;
    2a46:	9efe                	add	t4,t4,t6

00002a48 <.LVL905>:
                                ret+=10;
    2a48:	01055793          	srli	a5,a0,0x10
                        if (tmp>clipval) {
    2a4c:	11d65f63          	bge	a2,t4,2b6a <.L1092>

00002a50 <.L1101>:
                                ret+=10;
    2a50:	00a78513          	addi	a0,a5,10
    2a54:	01051793          	slli	a5,a0,0x10
    2a58:	4107d513          	srai	a0,a5,0x10

00002a5c <.LVL907>:
                                tmp=0;
    2a5c:	4e81                	li	t4,0

00002a5e <.L1093>:
                for (j=0; j<N; j++) {
    2a5e:	0e71                	addi	t3,t3,28
    2a60:	f1c702e3          	beq	a4,t3,2964 <.L1080>

00002a64 <.L1017>:
                        cur=C[i*N+j];
    2a64:	000e2383          	lw	t2,0(t3)
                                ret+=10;
    2a68:	0542                	slli	a0,a0,0x10
    2a6a:	01055f13          	srli	t5,a0,0x10
                        tmp+=cur;
    2a6e:	9e9e                	add	t4,t4,t2
                        if (tmp>clipval) {
    2a70:	f1d650e3          	bge	a2,t4,2970 <.L1095>
                                ret+=10;
    2a74:	00af0e93          	addi	t4,t5,10
                        cur=C[i*N+j];
    2a78:	004e2f83          	lw	t6,4(t3)
                                ret+=10;
    2a7c:	010e9513          	slli	a0,t4,0x10
    2a80:	41055f13          	srai	t5,a0,0x10

00002a84 <.LVL910>:
                                tmp=0;
    2a84:	4e81                	li	t4,0

00002a86 <.LVL911>:
                                ret+=10;
    2a86:	010f1793          	slli	a5,t5,0x10
                        tmp+=cur;
    2a8a:	01fe8533          	add	a0,t4,t6
                for (j=0; j<N; j++) {
    2a8e:	0e11                	addi	t3,t3,4
                                ret+=10;
    2a90:	0107d293          	srli	t0,a5,0x10
                        if (tmp>clipval) {
    2a94:	f0a641e3          	blt	a2,a0,2996 <.L1043>

00002a98 <.L1094>:
                                ret += (cur>prev) ? 1 : 0;
    2a98:	01f3a3b3          	slt	t2,t2,t6
    2a9c:	00728f33          	add	t5,t0,t2
                        cur=C[i*N+j];
    2aa0:	004e2383          	lw	t2,4(t3)
                                ret += (cur>prev) ? 1 : 0;
    2aa4:	010f1e93          	slli	t4,t5,0x10
    2aa8:	410ed793          	srai	a5,t4,0x10
                                ret+=10;
    2aac:	01079f13          	slli	t5,a5,0x10
                        tmp+=cur;
    2ab0:	00750eb3          	add	t4,a0,t2
                                ret+=10;
    2ab4:	010f5793          	srli	a5,t5,0x10
                        if (tmp>clipval) {
    2ab8:	efd64fe3          	blt	a2,t4,29b6 <.L1096>

00002abc <.L1082>:
                                ret += (cur>prev) ? 1 : 0;
    2abc:	007fafb3          	slt	t6,t6,t2
    2ac0:	01f782b3          	add	t0,a5,t6
                        cur=C[i*N+j];
    2ac4:	008e2f83          	lw	t6,8(t3)
                                ret += (cur>prev) ? 1 : 0;
    2ac8:	01029513          	slli	a0,t0,0x10
    2acc:	41055f13          	srai	t5,a0,0x10
                                ret+=10;
    2ad0:	010f1293          	slli	t0,t5,0x10
                        tmp+=cur;
    2ad4:	9efe                	add	t4,t4,t6
                                ret+=10;
    2ad6:	0102d513          	srli	a0,t0,0x10
                        if (tmp>clipval) {
    2ada:	efd64de3          	blt	a2,t4,29d4 <.L1097>

00002ade <.L1084>:
                                ret += (cur>prev) ? 1 : 0;
    2ade:	01f3a3b3          	slt	t2,t2,t6
    2ae2:	00750f33          	add	t5,a0,t2
                        cur=C[i*N+j];
    2ae6:	00ce2383          	lw	t2,12(t3)
                                ret += (cur>prev) ? 1 : 0;
    2aea:	010f1793          	slli	a5,t5,0x10
    2aee:	4107d293          	srai	t0,a5,0x10
                                ret+=10;
    2af2:	01029f13          	slli	t5,t0,0x10
                        tmp+=cur;
    2af6:	007e82b3          	add	t0,t4,t2
                                ret+=10;
    2afa:	010f5793          	srli	a5,t5,0x10
                        if (tmp>clipval) {
    2afe:	ee564be3          	blt	a2,t0,29f4 <.L1098>

00002b02 <.L1086>:
                                ret += (cur>prev) ? 1 : 0;
    2b02:	007fafb3          	slt	t6,t6,t2
    2b06:	01f78533          	add	a0,a5,t6
                        cur=C[i*N+j];
    2b0a:	010e2f83          	lw	t6,16(t3)
                                ret += (cur>prev) ? 1 : 0;
    2b0e:	01051e93          	slli	t4,a0,0x10
    2b12:	410edf13          	srai	t5,t4,0x10
                                ret+=10;
    2b16:	010f1513          	slli	a0,t5,0x10
                        tmp+=cur;
    2b1a:	01f28eb3          	add	t4,t0,t6
                                ret+=10;
    2b1e:	01055793          	srli	a5,a0,0x10
                        if (tmp>clipval) {
    2b22:	efd649e3          	blt	a2,t4,2a14 <.L1099>

00002b26 <.L1088>:
                                ret += (cur>prev) ? 1 : 0;
    2b26:	01f3a3b3          	slt	t2,t2,t6
    2b2a:	00778f33          	add	t5,a5,t2
                        cur=C[i*N+j];
    2b2e:	014e2383          	lw	t2,20(t3)
                                ret += (cur>prev) ? 1 : 0;
    2b32:	010f1293          	slli	t0,t5,0x10
    2b36:	4102d513          	srai	a0,t0,0x10
                                ret+=10;
    2b3a:	01051f13          	slli	t5,a0,0x10
                        tmp+=cur;
    2b3e:	9e9e                	add	t4,t4,t2
                                ret+=10;
    2b40:	010f5293          	srli	t0,t5,0x10
                        if (tmp>clipval) {
    2b44:	efd647e3          	blt	a2,t4,2a32 <.L1100>

00002b48 <.L1090>:
                                ret += (cur>prev) ? 1 : 0;
    2b48:	007fafb3          	slt	t6,t6,t2
    2b4c:	01f28533          	add	a0,t0,t6
                        cur=C[i*N+j];
    2b50:	018e2f83          	lw	t6,24(t3)
                                ret += (cur>prev) ? 1 : 0;
    2b54:	01051793          	slli	a5,a0,0x10
    2b58:	4107df13          	srai	t5,a5,0x10

00002b5c <.LVL912>:
                                ret+=10;
    2b5c:	010f1513          	slli	a0,t5,0x10
                        tmp+=cur;
    2b60:	9efe                	add	t4,t4,t6

00002b62 <.LVL913>:
                                ret+=10;
    2b62:	01055793          	srli	a5,a0,0x10
                        if (tmp>clipval) {
    2b66:	efd645e3          	blt	a2,t4,2a50 <.L1101>

00002b6a <.L1092>:
                                ret += (cur>prev) ? 1 : 0;
    2b6a:	01f3a3b3          	slt	t2,t2,t6
    2b6e:	00778f33          	add	t5,a5,t2
    2b72:	010f1293          	slli	t0,t5,0x10
    2b76:	4102d513          	srai	a0,t0,0x10
    2b7a:	b5d5                	j	2a5e <.L1093>

00002b7c <.L1078>:
    2b7c:	01ff23b3          	slt	t2,t5,t6
    2b80:	007507b3          	add	a5,a0,t2

00002b84 <.LVL914>:
    2b84:	01079f13          	slli	t5,a5,0x10
    2b88:	410f5513          	srai	a0,t5,0x10
    2b8c:	bbc9                	j	295e <.L1079>

00002b8e <.L1076>:
    2b8e:	01f3a2b3          	slt	t0,t2,t6
    2b92:	005f0533          	add	a0,t5,t0

00002b96 <.LVL916>:
    2b96:	01051393          	slli	t2,a0,0x10
    2b9a:	4103d513          	srai	a0,t2,0x10

00002b9e <.LVL917>:
    2b9e:	bb71                	j	293a <.L1077>

00002ba0 <.L1074>:
    2ba0:	01f2a7b3          	slt	a5,t0,t6
    2ba4:	00f38f33          	add	t5,t2,a5

00002ba8 <.LVL919>:
    2ba8:	010f1293          	slli	t0,t5,0x10
    2bac:	4102d513          	srai	a0,t0,0x10
    2bb0:	b39d                	j	2916 <.L1075>

00002bb2 <.L1072>:
    2bb2:	01f3a2b3          	slt	t0,t2,t6
    2bb6:	005507b3          	add	a5,a0,t0

00002bba <.LVL921>:
    2bba:	01079393          	slli	t2,a5,0x10
    2bbe:	4103d513          	srai	a0,t2,0x10
    2bc2:	bb15                	j	28f6 <.L1073>

00002bc4 <.L1070>:
    2bc4:	01f2af33          	slt	t5,t0,t6
    2bc8:	01e38533          	add	a0,t2,t5

00002bcc <.LVL923>:
    2bcc:	01051293          	slli	t0,a0,0x10
    2bd0:	4102d513          	srai	a0,t0,0x10

00002bd4 <.LVL924>:
    2bd4:	b9fd                	j	28d2 <.L1071>

00002bd6 <.L1068>:
    2bd6:	01ff27b3          	slt	a5,t5,t6
    2bda:	00f283b3          	add	t2,t0,a5

00002bde <.LVL926>:
    2bde:	01039f13          	slli	t5,t2,0x10
    2be2:	410f5513          	srai	a0,t5,0x10
    2be6:	b1e1                	j	28ae <.L1069>

00002be8 <.L1066>:
    2be8:	01fe27b3          	slt	a5,t3,t6
    2bec:	00ff02b3          	add	t0,t5,a5

00002bf0 <.LVL928>:
    2bf0:	01029393          	slli	t2,t0,0x10
    2bf4:	4103d513          	srai	a0,t2,0x10
    2bf8:	b951                	j	288c <.L1067>

00002bfa <.L1019>:
        ee_s16 ret=0;
    2bfa:	4501                	li	a0,0

00002bfc <.LVL930>:
}
    2bfc:	8082                	ret

00002bfe <matrix_mul_const>:
        for (i=0; i<N; i++) {
    2bfe:	16050163          	beqz	a0,2d60 <.L1141>
void matrix_mul_const(ee_u32 N, MATRES *C, MATDAT *A, MATDAT val) {
    2c02:	1141                	addi	sp,sp,-16
    2c04:	40a003b3          	neg	t2,a0
    2c08:	00151813          	slli	a6,a0,0x1
    2c0c:	c622                	sw	s0,12(sp)
    2c0e:	c426                	sw	s1,8(sp)
    2c10:	00139413          	slli	s0,t2,0x1
    2c14:	c24a                	sw	s2,4(sp)
    2c16:	c04e                	sw	s3,0(sp)
    2c18:	9832                	add	a6,a6,a2
                        C[i*N+j]=(MATRES)A[i*N+j] * (MATRES)val;
    2c1a:	4f81                	li	t6,0
        for (i=0; i<N; i++) {
    2c1c:	4281                	li	t0,0
    2c1e:	038a                	slli	t2,t2,0x2

00002c20 <.L1104>:
                for (j=0; j<N; j++) {
    2c20:	010408b3          	add	a7,s0,a6
    2c24:	41180633          	sub	a2,a6,a7
    2c28:	ffe60313          	addi	t1,a2,-2
    2c2c:	00135493          	srli	s1,t1,0x1
    2c30:	00148713          	addi	a4,s1,1
    2c34:	002f9793          	slli	a5,t6,0x2
    2c38:	00777913          	andi	s2,a4,7
    2c3c:	97ae                	add	a5,a5,a1
void matrix_mul_const(ee_u32 N, MATRES *C, MATDAT *A, MATDAT val) {
    2c3e:	8746                	mv	a4,a7
    2c40:	08090f63          	beqz	s2,2cde <.L1105>
    2c44:	4985                	li	s3,1
    2c46:	09390263          	beq	s2,s3,2cca <.L1130>
    2c4a:	4e09                	li	t3,2
    2c4c:	07c90763          	beq	s2,t3,2cba <.L1131>
    2c50:	4e8d                	li	t4,3
    2c52:	05d90c63          	beq	s2,t4,2caa <.L1132>
    2c56:	4f11                	li	t5,4
    2c58:	05e90163          	beq	s2,t5,2c9a <.L1133>
    2c5c:	4615                	li	a2,5
    2c5e:	02c90663          	beq	s2,a2,2c8a <.L1134>
    2c62:	4319                	li	t1,6
    2c64:	00690b63          	beq	s2,t1,2c7a <.L1135>

00002c68 <.LVL933>:
                        C[i*N+j]=(MATRES)A[i*N+j] * (MATRES)val;
    2c68:	00089483          	lh	s1,0(a7)
                for (j=0; j<N; j++) {
    2c6c:	00288713          	addi	a4,a7,2
    2c70:	0791                	addi	a5,a5,4
                        C[i*N+j]=(MATRES)A[i*N+j] * (MATRES)val;
    2c72:	02d48933          	mul	s2,s1,a3
    2c76:	ff27ae23          	sw	s2,-4(a5)

00002c7a <.L1135>:
    2c7a:	00071983          	lh	s3,0(a4)
                for (j=0; j<N; j++) {
    2c7e:	0791                	addi	a5,a5,4
    2c80:	0709                	addi	a4,a4,2
                        C[i*N+j]=(MATRES)A[i*N+j] * (MATRES)val;
    2c82:	02d98e33          	mul	t3,s3,a3
    2c86:	ffc7ae23          	sw	t3,-4(a5)

00002c8a <.L1134>:
    2c8a:	00071e83          	lh	t4,0(a4)
                for (j=0; j<N; j++) {
    2c8e:	0791                	addi	a5,a5,4
    2c90:	0709                	addi	a4,a4,2
                        C[i*N+j]=(MATRES)A[i*N+j] * (MATRES)val;
    2c92:	02de8f33          	mul	t5,t4,a3
    2c96:	ffe7ae23          	sw	t5,-4(a5)

00002c9a <.L1133>:
    2c9a:	00071603          	lh	a2,0(a4)
                for (j=0; j<N; j++) {
    2c9e:	0791                	addi	a5,a5,4
    2ca0:	0709                	addi	a4,a4,2
                        C[i*N+j]=(MATRES)A[i*N+j] * (MATRES)val;
    2ca2:	02d60333          	mul	t1,a2,a3
    2ca6:	fe67ae23          	sw	t1,-4(a5)

00002caa <.L1132>:
    2caa:	00071483          	lh	s1,0(a4)
                for (j=0; j<N; j++) {
    2cae:	0791                	addi	a5,a5,4
    2cb0:	0709                	addi	a4,a4,2
                        C[i*N+j]=(MATRES)A[i*N+j] * (MATRES)val;
    2cb2:	02d48933          	mul	s2,s1,a3
    2cb6:	ff27ae23          	sw	s2,-4(a5)

00002cba <.L1131>:
    2cba:	00071983          	lh	s3,0(a4)
                for (j=0; j<N; j++) {
    2cbe:	0791                	addi	a5,a5,4
    2cc0:	0709                	addi	a4,a4,2
                        C[i*N+j]=(MATRES)A[i*N+j] * (MATRES)val;
    2cc2:	02d98e33          	mul	t3,s3,a3
    2cc6:	ffc7ae23          	sw	t3,-4(a5)

00002cca <.L1130>:
    2cca:	00071e83          	lh	t4,0(a4)
                for (j=0; j<N; j++) {
    2cce:	0791                	addi	a5,a5,4
    2cd0:	0709                	addi	a4,a4,2
                        C[i*N+j]=(MATRES)A[i*N+j] * (MATRES)val;
    2cd2:	02de8f33          	mul	t5,t4,a3
    2cd6:	ffe7ae23          	sw	t5,-4(a5)
                for (j=0; j<N; j++) {
    2cda:	06e80763          	beq	a6,a4,2d48 <.L1139>

00002cde <.L1105>:
                        C[i*N+j]=(MATRES)A[i*N+j] * (MATRES)val;
    2cde:	00071983          	lh	s3,0(a4)
    2ce2:	00271903          	lh	s2,2(a4)
    2ce6:	00471483          	lh	s1,4(a4)
    2cea:	00671f03          	lh	t5,6(a4)
    2cee:	00871e83          	lh	t4,8(a4)
    2cf2:	00a71e03          	lh	t3,10(a4)
    2cf6:	00c71303          	lh	t1,12(a4)
    2cfa:	00e71603          	lh	a2,14(a4)
    2cfe:	02d989b3          	mul	s3,s3,a3
                for (j=0; j<N; j++) {
    2d02:	0741                	addi	a4,a4,16
    2d04:	02078793          	addi	a5,a5,32
                        C[i*N+j]=(MATRES)A[i*N+j] * (MATRES)val;
    2d08:	02d90933          	mul	s2,s2,a3
    2d0c:	ff37a023          	sw	s3,-32(a5)
    2d10:	02d484b3          	mul	s1,s1,a3
    2d14:	ff27a223          	sw	s2,-28(a5)
    2d18:	02df0f33          	mul	t5,t5,a3
    2d1c:	fe97a423          	sw	s1,-24(a5)
    2d20:	02de8eb3          	mul	t4,t4,a3
    2d24:	ffe7a623          	sw	t5,-20(a5)
    2d28:	02de0e33          	mul	t3,t3,a3
    2d2c:	ffd7a823          	sw	t4,-16(a5)
    2d30:	02d30333          	mul	t1,t1,a3
    2d34:	ffc7aa23          	sw	t3,-12(a5)
    2d38:	02d60633          	mul	a2,a2,a3
    2d3c:	fe67ac23          	sw	t1,-8(a5)
    2d40:	fec7ae23          	sw	a2,-4(a5)
                for (j=0; j<N; j++) {
    2d44:	f8e81de3          	bne	a6,a4,2cde <.L1105>

00002d48 <.L1139>:
        for (i=0; i<N; i++) {
    2d48:	0285                	addi	t0,t0,1
    2d4a:	9faa                	add	t6,t6,a0
    2d4c:	40788833          	sub	a6,a7,t2
    2d50:	ec5518e3          	bne	a0,t0,2c20 <.L1104>
}
    2d54:	4432                	lw	s0,12(sp)
    2d56:	44a2                	lw	s1,8(sp)
    2d58:	4912                	lw	s2,4(sp)
    2d5a:	4982                	lw	s3,0(sp)
    2d5c:	0141                	addi	sp,sp,16
    2d5e:	8082                	ret

00002d60 <.L1141>:
    2d60:	8082                	ret

00002d62 <matrix_add_const>:
        for (i=0; i<N; i++) {
    2d62:	1e050063          	beqz	a0,2f42 <.L1183>
    2d66:	40a002b3          	neg	t0,a0
                        A[i*N+j] += val;
    2d6a:	01061693          	slli	a3,a2,0x10
    2d6e:	00151793          	slli	a5,a0,0x1
    2d72:	00129393          	slli	t2,t0,0x1
    2d76:	82c1                	srli	a3,a3,0x10
    2d78:	00f58633          	add	a2,a1,a5

00002d7c <.LVL937>:
        for (i=0; i<N; i++) {
    2d7c:	4f81                	li	t6,0
    2d7e:	028a                	slli	t0,t0,0x2

00002d80 <.L1184>:
                for (j=0; j<N; j++) {
    2d80:	00c385b3          	add	a1,t2,a2
    2d84:	40b60733          	sub	a4,a2,a1
    2d88:	ffe70313          	addi	t1,a4,-2
    2d8c:	00135813          	srli	a6,t1,0x1
    2d90:	00180893          	addi	a7,a6,1
    2d94:	0078fe13          	andi	t3,a7,7
void matrix_add_const(ee_u32 N, MATDAT *A, MATDAT val) {
    2d98:	87ae                	mv	a5,a1
    2d9a:	080e0863          	beqz	t3,2e2a <.L1201>
    2d9e:	4e85                	li	t4,1
    2da0:	07de0c63          	beq	t3,t4,2e18 <.L1187>
    2da4:	4f09                	li	t5,2
    2da6:	07ee0263          	beq	t3,t5,2e0a <.L1189>
    2daa:	470d                	li	a4,3
    2dac:	04ee0863          	beq	t3,a4,2dfc <.L1191>
    2db0:	4311                	li	t1,4
    2db2:	026e0e63          	beq	t3,t1,2dee <.L1193>
    2db6:	4815                	li	a6,5
    2db8:	030e0463          	beq	t3,a6,2de0 <.L1195>
    2dbc:	4899                	li	a7,6
    2dbe:	011e0a63          	beq	t3,a7,2dd2 <.L1197>

00002dc2 <.LVL939>:
                        A[i*N+j] += val;
    2dc2:	0005de03          	lhu	t3,0(a1)
                for (j=0; j<N; j++) {
    2dc6:	00258793          	addi	a5,a1,2
                        A[i*N+j] += val;
    2dca:	01c68eb3          	add	t4,a3,t3
    2dce:	01d59023          	sh	t4,0(a1)

00002dd2 <.L1197>:
    2dd2:	0007df03          	lhu	t5,0(a5)
                for (j=0; j<N; j++) {
    2dd6:	0789                	addi	a5,a5,2
                        A[i*N+j] += val;
    2dd8:	01e68733          	add	a4,a3,t5
    2ddc:	fee79f23          	sh	a4,-2(a5)

00002de0 <.L1195>:
    2de0:	0007d303          	lhu	t1,0(a5)
                for (j=0; j<N; j++) {
    2de4:	0789                	addi	a5,a5,2
                        A[i*N+j] += val;
    2de6:	00668833          	add	a6,a3,t1
    2dea:	ff079f23          	sh	a6,-2(a5)

00002dee <.L1193>:
    2dee:	0007d883          	lhu	a7,0(a5)
                for (j=0; j<N; j++) {
    2df2:	0789                	addi	a5,a5,2
                        A[i*N+j] += val;
    2df4:	01168e33          	add	t3,a3,a7
    2df8:	ffc79f23          	sh	t3,-2(a5)

00002dfc <.L1191>:
    2dfc:	0007de83          	lhu	t4,0(a5)
                for (j=0; j<N; j++) {
    2e00:	0789                	addi	a5,a5,2
                        A[i*N+j] += val;
    2e02:	01d68f33          	add	t5,a3,t4
    2e06:	ffe79f23          	sh	t5,-2(a5)

00002e0a <.L1189>:
    2e0a:	0007d703          	lhu	a4,0(a5)
                for (j=0; j<N; j++) {
    2e0e:	0789                	addi	a5,a5,2
                        A[i*N+j] += val;
    2e10:	00e68333          	add	t1,a3,a4
    2e14:	fe679f23          	sh	t1,-2(a5)

00002e18 <.L1187>:
    2e18:	0007d803          	lhu	a6,0(a5)
                for (j=0; j<N; j++) {
    2e1c:	0789                	addi	a5,a5,2
                        A[i*N+j] += val;
    2e1e:	010688b3          	add	a7,a3,a6
    2e22:	ff179f23          	sh	a7,-2(a5)
                for (j=0; j<N; j++) {
